 Framework.exe

 Timestamp is 536eb326 (Sun May 11 01:15:50 2014)

 Preferred load address is 0000000140000000

 Start         Length     Name                   Class
 0001:00000000 000519bcH .text                   CODE
 0001:000519c0 000207efH .text$mn                CODE
 0001:000721b0 000015b5H .text$x                 CODE
 0002:00000000 00000109H .CRT$XCA                DATA
 0002:00000110 00000109H .CRT$XCZ                DATA
 0002:00000220 00000109H .CRT$XIA                DATA
 0002:00000330 00000126H .CRT$XIC                DATA
 0002:00000458 00000109H .CRT$XIY                DATA
 0002:00000568 00000109H .CRT$XIZ                DATA
 0002:00000678 00000008H .CRT$XLA                DATA
 0002:00000680 00000008H .CRT$XLZ                DATA
 0002:00000688 00000109H .CRT$XPA                DATA
 0002:00000798 00000113H .CRT$XPX                DATA
 0002:000008b0 00000109H .CRT$XPXA               DATA
 0002:000009c0 00000109H .CRT$XPZ                DATA
 0002:00000ad0 00000109H .CRT$XTA                DATA
 0002:00000be0 00000109H .CRT$XTZ                DATA
 0002:00000cf0 00007e79H .rdata                  DATA
 0002:00008b70 00000130H .rdata$T                DATA
 0002:00008ca0 0000017cH .rdata$debug            DATA
 0002:00008e20 00000109H .rtc$IAA                DATA
 0002:00008f30 00000109H .rtc$IZZ                DATA
 0002:00009040 00000109H .rtc$TAA                DATA
 0002:00009150 00000109H .rtc$TZZ                DATA
 0002:00009260 00006099H .xdata                  DATA
 0002:0000f2f9 00000000H .edata                  DATA
 0003:00000000 0001a902H .data                   DATA
 0003:0001a920 00003051H .bss                    DATA
 0004:00000000 00006bb8H .pdata                  DATA
 0005:00000000 00000468H .idata$5                DATA
 0005:00000468 00000028H .idata$2                DATA
 0005:00000490 00000014H .idata$3                DATA
 0005:000004a8 00000468H .idata$4                DATA
 0005:00000910 00000925H .idata$6                DATA
 0006:00000000 0000011cH ._deh$A                 DATA
 0006:00000120 0000088fH ._deh$B                 DATA
 0006:000009b0 00000109H ._deh$C                 DATA
 0007:00000000 00000109H .minfo$A                DATA
 0007:00000110 000003e5H .minfo$B                DATA
 0007:000004f8 00000109H .minfo$C                DATA
 0008:00000000 00000101H .tls                    DATA
 0008:00000110 00000143H .tls$AAB                DATA
 0008:00000253 00000101H .tls$ZZZ                DATA

  Address         Publics by Value              Rva+Base               Lib:Object

 0000:00000000       ___safe_se_handler_table   0000000000000000     <absolute>
 0000:00000000       __guard_fids_count         0000000000000000     <absolute>
 0000:00000000       ___safe_se_handler_count   0000000000000000     <absolute>
 0000:00000000       __guard_flags              0000000000000000     <absolute>
 0000:00000000       __guard_fids_table         0000000000000000     <absolute>
 0000:00000000       __ImageBase                0000000140000000     <linker-defined>
 0001:00001220       _Dmain                     0000000140002220 f i Framework.exe.obj
 0001:000012a0       _D4main15__unittestL38_1FZv 00000001400022a0 f i Framework.exe.obj
 0001:000013a0       _D3std6traits15__T8DemangleTkZ8Demangle11__xopEqualsFKxS3std6traits15__T8DemangleTkZ8DemangleKxS3std6traits15__T8DemangleTkZ8DemangleZb 00000001400023a0 f i Framework.exe.obj
 0001:00001410       _D3std8internal14unicode_tables25__T9TrieEntryTbVi8Vi4Vi9Z9TrieEntry11__xopEqualsFNfKxS3std8internal14unicode_tables25__T9TrieEntryTbVi8Vi4Vi9Z9TrieEntryKxS3std8internal14unicode_tables25__T9TrieEntryTbVi8Vi4Vi9Z9TrieEntryZb 0000000140002410 f i Framework.exe.obj
 0001:000014d0       _D3std8internal14unicode_tables25__T9TrieEntryTtVi8Vi7Vi6Z9TrieEntry11__xopEqualsFNfKxS3std8internal14unicode_tables25__T9TrieEntryTtVi8Vi7Vi6Z9TrieEntryKxS3std8internal14unicode_tables25__T9TrieEntryTtVi8Vi7Vi6Z9TrieEntryZb 00000001400024d0 f i Framework.exe.obj
 0001:00001590       _D3std8internal14unicode_tables25__T9TrieEntryTbVi8Vi5Vi8Z9TrieEntry11__xopEqualsFNfKxS3std8internal14unicode_tables25__T9TrieEntryTbVi8Vi5Vi8Z9TrieEntryKxS3std8internal14unicode_tables25__T9TrieEntryTbVi8Vi5Vi8Z9TrieEntryZb 0000000140002590 f i Framework.exe.obj
 0001:00001650       _D3std8internal14unicode_tables25__T9TrieEntryTbVi8Vi6Vi7Z9TrieEntry11__xopEqualsFNfKxS3std8internal14unicode_tables25__T9TrieEntryTbVi8Vi6Vi7Z9TrieEntryKxS3std8internal14unicode_tables25__T9TrieEntryTbVi8Vi6Vi7Z9TrieEntryZb 0000000140002650 f i Framework.exe.obj
 0001:00001710       _D3std8internal14unicode_tables28__T9TrieEntryTbVi7Vi4Vi4Vi6Z9TrieEntry11__xopEqualsFNfKxS3std8internal14unicode_tables28__T9TrieEntryTbVi7Vi4Vi4Vi6Z9TrieEntryKxS3std8internal14unicode_tables28__T9TrieEntryTbVi7Vi4Vi4Vi6Z9TrieEntryZb 0000000140002710 f i Framework.exe.obj
 0001:000017d0       _D3std3uni13ReallocPolicy14__T7destroyThZ7destroyFNbNeKAhZv 00000001400027d0 f i Framework.exe.obj
 0001:00001820       _D3std3uni42__T11Uint24ArrayTS3std3uni13ReallocPolicyZ11Uint24Array13__T8opEqualsZ8opEqualsMxFNbNexS3std3uni42__T11Uint24ArrayTS3std3uni13ReallocPolicyZ11Uint24ArrayZb 0000000140002820 f i Framework.exe.obj
 0001:00001a30       _D3std3uni8GcPolicy15__T7destroyTAhZ7destroyFNaNbNeKAhZv 0000000140002a30 f i Framework.exe.obj
 0001:00001a40       _D3std3uni36__T11Uint24ArrayTS3std3uni8GcPolicyZ11Uint24Array13__T8opEqualsZ8opEqualsMxFNaNbNexS3std3uni36__T11Uint24ArrayTS3std3uni8GcPolicyZ11Uint24ArrayZb 0000000140002a40 f i Framework.exe.obj
 0001:00001c50       _D3std3uni17CodepointInterval42__T8opEqualsTS3std3uni17CodepointIntervalZ8opEqualsMxFNaNbNfS3std3uni17CodepointIntervalZb 0000000140002c50 f i Framework.exe.obj
 0001:00001cc0       _D3std6format18__T10FormatSpecTaZ10FormatSpec6flDashMxFNaNbNdNfZb 0000000140002cc0 f i Framework.exe.obj
 0001:00001d10       _D3std6format18__T10FormatSpecTaZ10FormatSpec6flDashMFNaNbNdNfbZv 0000000140002d10 f i Framework.exe.obj
 0001:00001d70       _D3std6format18__T10FormatSpecTaZ10FormatSpec6flZeroMxFNaNbNdNfZb 0000000140002d70 f i Framework.exe.obj
 0001:00001dc0       _D3std6format18__T10FormatSpecTaZ10FormatSpec6flZeroMFNaNbNdNfbZv 0000000140002dc0 f i Framework.exe.obj
 0001:00001e20       _D3std6format18__T10FormatSpecTaZ10FormatSpec7flSpaceMxFNaNbNdNfZb 0000000140002e20 f i Framework.exe.obj
 0001:00001e70       _D3std6format18__T10FormatSpecTaZ10FormatSpec7flSpaceMFNaNbNdNfbZv 0000000140002e70 f i Framework.exe.obj
 0001:00001ed0       _D3std6format18__T10FormatSpecTaZ10FormatSpec6flPlusMxFNaNbNdNfZb 0000000140002ed0 f i Framework.exe.obj
 0001:00001f20       _D3std6format18__T10FormatSpecTaZ10FormatSpec6flPlusMFNaNbNdNfbZv 0000000140002f20 f i Framework.exe.obj
 0001:00001f80       _D3std6format18__T10FormatSpecTaZ10FormatSpec6flHashMxFNaNbNdNfZb 0000000140002f80 f i Framework.exe.obj
 0001:00001fd0       _D3std6format18__T10FormatSpecTaZ10FormatSpec6flHashMFNaNbNdNfbZv 0000000140002fd0 f i Framework.exe.obj
 0001:00002030       _D3std6format18__T10FormatSpecTaZ10FormatSpec6__ctorMFNaNcNfxAaZS3std6format18__T10FormatSpecTaZ10FormatSpec 0000000140003030 f i Framework.exe.obj
 0001:00002050       _D3std6format18__T10FormatSpecTaZ10FormatSpec19__unittestL807_1349FNaNfZv 0000000140003050 f i Framework.exe.obj
 0001:00002ab0       _D3std6format18__T10FormatSpecTaZ10FormatSpec19__unittestL807_1349FNaNfZv12__dgliteral1MFNaNfZb 0000000140003ab0 f i Framework.exe.obj
 0001:00002ae0       _D3std6format18__T10FormatSpecTaZ10FormatSpec6fillUpMFNaNfZv 0000000140003ae0 f i Framework.exe.obj
 0001:000041a0       _D3std6format18__T10FormatSpecTaZ10FormatSpec6fillUpMFNaNfZv12__dgliteral1MFNaNfZAxa 00000001400051a0 f i Framework.exe.obj
 0001:00004270       _D3std6format18__T10FormatSpecTaZ10FormatSpec6fillUpMFNaNfZv12__dgliteral2MFNaNbNfZAya 0000000140005270 f i Framework.exe.obj
 0001:00004290       _D3std6format18__T10FormatSpecTaZ10FormatSpec6fillUpMFNaNfZv12__dgliteral3MFNaNfZAya 0000000140005290 f i Framework.exe.obj
 0001:00004360       _D3std6format18__T10FormatSpecTaZ10FormatSpec6fillUpMFNaNfZv12__dgliteral4MFNaNbNfZAya 0000000140005360 f i Framework.exe.obj
 0001:00004380       _D3std6format18__T10FormatSpecTaZ10FormatSpec6fillUpMFNaNfZv12__dgliteral5MFNaNbNfZAya 0000000140005380 f i Framework.exe.obj
 0001:000043a0       _D3std6format18__T10FormatSpecTaZ10FormatSpec12getCurFmtStrMxFNaNfZAya 00000001400053a0 f i Framework.exe.obj
 0001:00004620       _D3std6format18__T10FormatSpecTaZ10FormatSpec20__unittestL1113_1350FNaNfZv 0000000140005620 f i Framework.exe.obj
 0001:00004730       _D3std6format18__T10FormatSpecTaZ10FormatSpec16headUpToNextSpecMFNaZAxa 0000000140005730 f i Framework.exe.obj
 0001:000048b0       _D3std6format18__T10FormatSpecTaZ10FormatSpec8toStringMFNaNfZAya 00000001400058b0 f i Framework.exe.obj
 0001:00004c00       _D3std6format18__T10FormatSpecTaZ10FormatSpec11__xopEqualsFKxS3std6format18__T10FormatSpecTaZ10FormatSpecKxS3std6format18__T10FormatSpecTaZ10FormatSpecZb 0000000140005c00 f i Framework.exe.obj
 0001:00004d30       _D3std5range13__T4onlyTgTiZ4onlyFNaNbNfgiZS3std5range21__T10OnlyResultTiVm2Z10OnlyResult 0000000140005d30 f i Framework.exe.obj
 0001:00004da0       _D3std5range21__T10OnlyResultTiVm2Z10OnlyResult5emptyMFNaNbNdNfZb 0000000140005da0 f i Framework.exe.obj
 0001:00004df0       _D3std5range21__T10OnlyResultTiVm2Z10OnlyResult5frontMFNaNbNdNfZi 0000000140005df0 f i Framework.exe.obj
 0001:00004e90       _D3std5range21__T10OnlyResultTiVm2Z10OnlyResult8popFrontMFNaNbNfZv 0000000140005e90 f i Framework.exe.obj
 0001:00004f00       _D3std5range21__T10OnlyResultTiVm2Z10OnlyResult4backMFNaNbNdNfZi 0000000140005f00 f i Framework.exe.obj
 0001:00004fa0       _D3std5range21__T10OnlyResultTiVm2Z10OnlyResult7popBackMFNaNbNfZv 0000000140005fa0 f i Framework.exe.obj
 0001:00005010       _D3std5range21__T10OnlyResultTiVm2Z10OnlyResult4saveMFNaNbNdNfZS3std5range21__T10OnlyResultTiVm2Z10OnlyResult 0000000140006010 f i Framework.exe.obj
 0001:00005070       _D3std5range21__T10OnlyResultTiVm2Z10OnlyResult6lengthMFNaNbNdNfZm 0000000140006070 f i Framework.exe.obj
 0001:000050b0       _D3std5range21__T10OnlyResultTiVm2Z10OnlyResult7opIndexMFNaNbNfmZi 00000001400060b0 f i Framework.exe.obj
 0001:000051b0       _D3std5range21__T10OnlyResultTiVm2Z10OnlyResult7opSliceMFNaNbNfZS3std5range21__T10OnlyResultTiVm2Z10OnlyResult 00000001400061b0 f i Framework.exe.obj
 0001:00005210       _D3std5range21__T10OnlyResultTiVm2Z10OnlyResult7opSliceMFNaNbNfmmZS3std5range21__T10OnlyResultTiVm2Z10OnlyResult 0000000140006210 f i Framework.exe.obj
 0001:00005320       _D3std5range21__T10OnlyResultTiVm2Z10OnlyResult15__T6__ctorTgTiZ6__ctorMFNaNbNcNfKgKiZS3std5range21__T10OnlyResultTiVm2Z10OnlyResult 0000000140006320 f i Framework.exe.obj
 0001:00005350       _D3std5range13__T4onlyTiTgZ4onlyFNaNbNfigZS3std5range21__T10OnlyResultTiVm2Z10OnlyResult 0000000140006350 f i Framework.exe.obj
 0001:000053c0       _D3std5range21__T10OnlyResultTiVm2Z10OnlyResult15__T6__ctorTiTgZ6__ctorMFNaNbNcNfKiKgZS3std5range21__T10OnlyResultTiVm2Z10OnlyResult 00000001400063c0 f i Framework.exe.obj
 0001:000053f0       _D3std5range17__T4onlyTAxaTAyaZ4onlyFNaNbNfAxaAyaZS3std5range23__T10OnlyResultTAxaVm2Z10OnlyResult 00000001400063f0 f i Framework.exe.obj
 0001:00005460       _D3std5range23__T10OnlyResultTAxaVm2Z10OnlyResult5emptyMFNaNbNdNfZb 0000000140006460 f i Framework.exe.obj
 0001:000054b0       _D3std5range23__T10OnlyResultTAxaVm2Z10OnlyResult5frontMFNaNbNdNfZAxa 00000001400064b0 f i Framework.exe.obj
 0001:00005550       _D3std5range23__T10OnlyResultTAxaVm2Z10OnlyResult8popFrontMFNaNbNfZv 0000000140006550 f i Framework.exe.obj
 0001:000055c0       _D3std5range23__T10OnlyResultTAxaVm2Z10OnlyResult4backMFNaNbNdNfZAxa 00000001400065c0 f i Framework.exe.obj
 0001:00005670       _D3std5range23__T10OnlyResultTAxaVm2Z10OnlyResult7popBackMFNaNbNfZv 0000000140006670 f i Framework.exe.obj
 0001:000056e0       _D3std5range23__T10OnlyResultTAxaVm2Z10OnlyResult4saveMFNaNbNdNfZS3std5range23__T10OnlyResultTAxaVm2Z10OnlyResult 00000001400066e0 f i Framework.exe.obj
 0001:00005740       _D3std5range23__T10OnlyResultTAxaVm2Z10OnlyResult6lengthMFNaNbNdNfZm 0000000140006740 f i Framework.exe.obj
 0001:00005780       _D3std5range23__T10OnlyResultTAxaVm2Z10OnlyResult7opIndexMFNaNbNfmZAxa 0000000140006780 f i Framework.exe.obj
 0001:00005890       _D3std5range23__T10OnlyResultTAxaVm2Z10OnlyResult7opSliceMFNaNbNfZS3std5range23__T10OnlyResultTAxaVm2Z10OnlyResult 0000000140006890 f i Framework.exe.obj
 0001:000058f0       _D3std5range23__T10OnlyResultTAxaVm2Z10OnlyResult7opSliceMFNaNbNfmmZS3std5range23__T10OnlyResultTAxaVm2Z10OnlyResult 00000001400068f0 f i Framework.exe.obj
 0001:00005a10       _D3std5range23__T10OnlyResultTAxaVm2Z10OnlyResult19__T6__ctorTAxaTAyaZ6__ctorMFNaNbNcNfKAxaKAyaZS3std5range23__T10OnlyResultTAxaVm2Z10OnlyResult 0000000140006a10 f i Framework.exe.obj
 0001:00005a60       _D3std5range17__T4onlyTAxaTAxaZ4onlyFNaNbNfAxaAxaZS3std5range23__T10OnlyResultTAxaVm2Z10OnlyResult 0000000140006a60 f i Framework.exe.obj
 0001:00005ad0       _D3std5range23__T10OnlyResultTAxaVm2Z10OnlyResult19__T6__ctorTAxaTAxaZ6__ctorMFNaNbNcNfKAxaKAxaZS3std5range23__T10OnlyResultTAxaVm2Z10OnlyResult 0000000140006ad0 f i Framework.exe.obj
 0001:00005b20       _D3std3uni25__T16SliceOverIndexedTAiZ16SliceOverIndexed7opIndexMxFNaNbNfmZxi 0000000140006b20 f i Framework.exe.obj
 0001:00005bd0       _D3std3uni25__T16SliceOverIndexedTAiZ16SliceOverIndexed13opIndexAssignMFNaNbNfimZv 0000000140006bd0 f i Framework.exe.obj
 0001:00005c80       _D3std3uni25__T16SliceOverIndexedTAiZ16SliceOverIndexed7opSliceMFNaNbNfmmZS3std3uni25__T16SliceOverIndexedTAiZ16SliceOverIndexed 0000000140006c80 f i Framework.exe.obj
 0001:00005d00       _D3std3uni25__T16SliceOverIndexedTAiZ16SliceOverIndexed7opSliceMFNaNbNfZS3std3uni25__T16SliceOverIndexedTAiZ16SliceOverIndexed 0000000140006d00 f i Framework.exe.obj
 0001:00005d60       _D3std3uni25__T16SliceOverIndexedTAiZ16SliceOverIndexed6lengthMxFNaNbNdNfZm 0000000140006d60 f i Framework.exe.obj
 0001:00005da0       _D3std3uni25__T16SliceOverIndexedTAiZ16SliceOverIndexed8opDollarMxFNaNbNfZm 0000000140006da0 f i Framework.exe.obj
 0001:00005df0       _D3std3uni25__T16SliceOverIndexedTAiZ16SliceOverIndexed5emptyMxFNaNbNdNfZb 0000000140006df0 f i Framework.exe.obj
 0001:00005e40       _D3std3uni25__T16SliceOverIndexedTAiZ16SliceOverIndexed5frontMxFNaNbNdNfZxi 0000000140006e40 f i Framework.exe.obj
 0001:00005ec0       _D3std3uni25__T16SliceOverIndexedTAiZ16SliceOverIndexed5frontMFNaNbNdNfiZv 0000000140006ec0 f i Framework.exe.obj
 0001:00005f50       _D3std3uni25__T16SliceOverIndexedTAiZ16SliceOverIndexed4backMxFNaNbNdNfZxi 0000000140006f50 f i Framework.exe.obj
 0001:00005fe0       _D3std3uni25__T16SliceOverIndexedTAiZ16SliceOverIndexed4backMFNaNbNdNfiZv 0000000140006fe0 f i Framework.exe.obj
 0001:00006070       _D3std3uni25__T16SliceOverIndexedTAiZ16SliceOverIndexed4saveMNgFNaNbNdNfZNgS3std3uni25__T16SliceOverIndexedTAiZ16SliceOverIndexed 0000000140007070 f i Framework.exe.obj
 0001:000060d0       _D3std3uni25__T16SliceOverIndexedTAiZ16SliceOverIndexed8popFrontMFNaNbNfZv 00000001400070d0 f i Framework.exe.obj
 0001:00006120       _D3std3uni25__T16SliceOverIndexedTAiZ16SliceOverIndexed7popBackMFNaNbNfZv 0000000140007120 f i Framework.exe.obj
 0001:00006170       _D3std3uni25__T16SliceOverIndexedTAiZ16SliceOverIndexed11__xopEqualsFKxS3std3uni25__T16SliceOverIndexedTAiZ16SliceOverIndexedKxS3std3uni25__T16SliceOverIndexedTAiZ16SliceOverIndexedZb 0000000140007170 f i Framework.exe.obj
 0001:000061a0       _D3std3uni25__T16SliceOverIndexedTAiZ16SliceOverIndexed68__T8opEqualsTS3std3uni25__T16SliceOverIndexedTAiZ16SliceOverIndexedZ8opEqualsMxFNaNbNfS3std3uni25__T16SliceOverIndexedTAiZ16SliceOverIndexedZb 00000001400071a0 f i Framework.exe.obj
 0001:000062c0       _D3std5array15__T8popFrontTiZ8popFrontFNaNbNfKAiZv 00000001400072c0 f i Framework.exe.obj
 0001:00006350       _D3std5array16__T8popFrontTyiZ8popFrontFNaNbNfKAyiZv 0000000140007350 f i Framework.exe.obj
 0001:000063e0       _D3std5array15__T7popBackTyiZ7popBackFNaNbNfKAyiZv 00000001400073e0 f i Framework.exe.obj
 0001:00006460       _D3std5array14__T7popBackTiZ7popBackFNaNbNfKAiZv 0000000140007460 f i Framework.exe.obj
 0001:000064e0       _D3std5stdio16__T7writelnTAyaZ7writelnFAyaZv 00000001400074e0 f i Framework.exe.obj
 0001:00006590       _D3std5stdio16__T7writelnTAyaZ7writelnFAyaZv12__dgliteral3MFNaNbNfZAxa 0000000140007590 f i Framework.exe.obj
 0001:000065a0       _D3std9exception14__T7enforceTbZ7enforceFNaNfbLAxaAyamZb 00000001400075a0 f i Framework.exe.obj
 0001:00006630       _D3std5array18__T8appenderTAaTaZ8appenderFNaNbNfZS3std5array16__T8AppenderTAaZ8Appender 0000000140007630 f i Framework.exe.obj
 0001:000066a0       _D3std5array16__T8AppenderTAaZ8Appender4Data11__xopEqualsFKxS3std5array16__T8AppenderTAaZ8Appender4DataKxS3std5array16__T8AppenderTAaZ8Appender4DataZb 00000001400076a0 f i Framework.exe.obj
 0001:00006710       _D3std5array16__T8AppenderTAaZ8Appender6__ctorMFNaNbNcNfAaZS3std5array16__T8AppenderTAaZ8Appender 0000000140007710 f i Framework.exe.obj
 0001:00006820       _D3std5array16__T8AppenderTAaZ8Appender6__ctorMFNaNbNcNfAaZS3std5array16__T8AppenderTAaZ8Appender9__lambda2MFNbNeZm 0000000140007820 f i Framework.exe.obj
 0001:00006860       _D3std5array16__T8AppenderTAaZ8Appender6__ctorMFNaNbNcNfAaZS3std5array16__T8AppenderTAaZ8Appender9__lambda3MFNbNeZAa 0000000140007860 f i Framework.exe.obj
 0001:00006880       _D3std5array16__T8AppenderTAaZ8Appender7reserveMFNaNbNfmZv 0000000140007880 f i Framework.exe.obj
 0001:00006900       _D3std5array16__T8AppenderTAaZ8Appender8capacityMxFNaNbNdNfZm 0000000140007900 f i Framework.exe.obj
 0001:00006950       _D3std5array16__T8AppenderTAaZ8Appender4dataMNgFNaNbNdNeZANga 0000000140007950 f i Framework.exe.obj
 0001:000069b0       _D3std5array16__T8AppenderTAaZ8Appender13ensureAddableMFNaNbNfmZv 00000001400079b0 f i Framework.exe.obj
 0001:00006ba0       _D3std5array16__T8AppenderTAaZ8Appender13ensureAddableMFNaNbNfmZv9__lambda2MFNbNeZm 0000000140007ba0 f i Framework.exe.obj
 0001:00006bc0       _D3std5array16__T8AppenderTAaZ8Appender13ensureAddableMFNaNbNfmZv9__lambda3MFNbNeZm 0000000140007bc0 f i Framework.exe.obj
 0001:00006c20       _D3std5array16__T8AppenderTAaZ8Appender13ensureAddableMFNaNbNfmZv9__lambda4MFNbNeZS4core6memory8BlkInfo_ 0000000140007c20 f i Framework.exe.obj
 0001:00006cd0       _D3std5array16__T8AppenderTAaZ8Appender13ensureAddableMFNaNbNfmZv9__lambda5MFNbNeZv 0000000140007cd0 f i Framework.exe.obj
 0001:00006d20       _D3std5array16__T8AppenderTAaZ8Appender13ensureAddableMFNaNbNfmZv9__lambda6MFNbNeZAa 0000000140007d20 f i Framework.exe.obj
 0001:00006d40       _D3std5array16__T8AppenderTAaZ8Appender5clearMFNaNbNfZv 0000000140007d40 f i Framework.exe.obj
 0001:00006de0       _D3std5array16__T8AppenderTAaZ8Appender5clearMFNaNbNfZv9__lambda1MFNbNeZAa 0000000140007de0 f i Framework.exe.obj
 0001:00006e10       _D3std5array16__T8AppenderTAaZ8Appender8shrinkToMFNaNfmZv 0000000140007e10 f i Framework.exe.obj
 0001:00006f90       _D3std5array16__T8AppenderTAaZ8Appender8shrinkToMFNaNfmZv12__dgliteral2MFNaNbNfZAxa 0000000140007f90 f i Framework.exe.obj
 0001:00006fa0       _D3std5array16__T8AppenderTAaZ8Appender8shrinkToMFNaNfmZv9__lambda3MFNbNeZAa 0000000140007fa0 f i Framework.exe.obj
 0001:00006fd0       _D3std5array16__T8AppenderTAaZ8Appender8shrinkToMFNaNfmZv12__dgliteral4MFNaNbNfZAxa 0000000140007fd0 f i Framework.exe.obj
 0001:00006fe0       _D6object15__T8capacityTaZ8capacityFNaNbNdAaZm 0000000140007fe0 f i Framework.exe.obj
 0001:00007010       _D3std6format18__T10FormatSpecTaZ10FormatSpec62__T17writeUpToNextSpecTS3std5array16__T8AppenderTAaZ8AppenderZ17writeUpToNextSpecMFNaNfS3std5array16__T8AppenderTAaZ8AppenderZb 0000000140008010 f i Framework.exe.obj
 0001:00007360       _D3std6format18__T10FormatSpecTaZ10FormatSpec62__T17writeUpToNextSpecTS3std5array16__T8AppenderTAaZ8AppenderZ17writeUpToNextSpecMFNaNfS3std5array16__T8AppenderTAaZ8AppenderZb12__dgliteral2MFNaNbNfZAya 0000000140008360 f i Framework.exe.obj
 0001:00007380       _D3std5array12__T5emptyTaZ5emptyFNaNbNdNfxAaZb 0000000140008380 f i Framework.exe.obj
 0001:000073a0       _D3std5range51__T3putTS3std5array16__T8AppenderTAaZ8AppenderTAxaZ3putFNaNbNfKS3std5array16__T8AppenderTAaZ8AppenderAxaZv 00000001400083a0 f i Framework.exe.obj
 0001:000073c0       _D3std5range53__T5doPutTS3std5array16__T8AppenderTAaZ8AppenderTAxaZ5doPutFNaNbNfKS3std5array16__T8AppenderTAaZ8AppenderKAxaZv 00000001400083c0 f i Framework.exe.obj
 0001:00007410       _D3std5array16__T8popFrontTxaZ8popFrontFNaNbNeKAxaZv 0000000140008410 f i Framework.exe.obj
 0001:00007570       _D3std5array13__T5frontTxaZ5frontFNaNdNfAxaZw 0000000140008570 f i Framework.exe.obj
 0001:000075d0       _D3std3utf15__T6decodeTAxaZ6decodeFNaNeKAxaKmZw 00000001400085d0 f i Framework.exe.obj
 0001:000076e0       _D3std3utf23__T10decodeImplVb1TAxaZ10decodeImplFNaKAxaKmZw 00000001400086e0 f i Framework.exe.obj
 0001:00007a20       _D3std3utf23__T10decodeImplVb1TAxaZ10decodeImplFNaKAxaKmZw10invalidUTFMFZC3std3utf12UTFException 0000000140008a20 f i Framework.exe.obj
 0001:00007a90       _D3std3utf23__T10decodeImplVb1TAxaZ10decodeImplFNaKAxaKmZw11outOfBoundsMFZC3std3utf12UTFException 0000000140008a90 f i Framework.exe.obj
 0001:00007b00       _D3std3utf23__T10decodeImplVb1TAxaZ10decodeImplFNaKAxaKmZw18__T9exceptionTAxaZ9exceptionFNaNfAxaAyaZC3std3utf12UTFException 0000000140008b00 f i Framework.exe.obj
 0001:00007ca0       _D3std5array16__T8AppenderTAaZ8Appender10__T3putTwZ3putMFNaNfwZv 0000000140008ca0 f i Framework.exe.obj
 0001:00007d60       _D3std5array15__T8popFrontTaZ8popFrontFNaNbNeKAaZv 0000000140008d60 f i Framework.exe.obj
 0001:00007ec0       _D3std5array12__T5frontTaZ5frontFNaNdNfAaZw 0000000140008ec0 f i Framework.exe.obj
 0001:00007f20       _D3std3utf14__T6decodeTAaZ6decodeFNaNeKAaKmZw 0000000140008f20 f i Framework.exe.obj
 0001:00008030       _D3std3utf22__T10decodeImplVb1TAaZ10decodeImplFNaKAaKmZw 0000000140009030 f i Framework.exe.obj
 0001:00008370       _D3std3utf22__T10decodeImplVb1TAaZ10decodeImplFNaKAaKmZw10invalidUTFMFZC3std3utf12UTFException 0000000140009370 f i Framework.exe.obj
 0001:000083e0       _D3std3utf22__T10decodeImplVb1TAaZ10decodeImplFNaKAaKmZw11outOfBoundsMFZC3std3utf12UTFException 00000001400093e0 f i Framework.exe.obj
 0001:00008450       _D3std3utf22__T10decodeImplVb1TAaZ10decodeImplFNaKAaKmZw17__T9exceptionTAaZ9exceptionFNaNfAaAyaZC3std3utf12UTFException 0000000140009450 f i Framework.exe.obj
 0001:000085f0       _D3std5array16__T8AppenderTAaZ8Appender11__T3putTAaZ3putMFNaNbNfAaZv 00000001400095f0 f i Framework.exe.obj
 0001:00008730       _D3std5array16__T8AppenderTAaZ8Appender11__T3putTAaZ3putMFNaNbNfAaZv10bigDataFunMFNaNbNeZAa 0000000140009730 f i Framework.exe.obj
 0001:00008760       _D3std5array28__T19appenderNewCapacityVm1Z19appenderNewCapacityFNaNbNfmmZm 0000000140009760 f i Framework.exe.obj
 0001:00008850       _D3std9algorithm12__T3maxTmTiZ3maxFNaNbNfmiZm 0000000140009850 f i Framework.exe.obj
 0001:00008880       _D3std9algorithm12__T3maxTmTmZ3maxFNaNbNfmmZm 0000000140009880 f i Framework.exe.obj
 0001:000088a0       _D3std5array16__T8AppenderTAaZ8Appender12__T3putTAxaZ3putMFNaNbNfAxaZv 00000001400098a0 f i Framework.exe.obj
 0001:000089e0       _D3std5array16__T8AppenderTAaZ8Appender12__T3putTAxaZ3putMFNaNbNfAxaZv10bigDataFunMFNaNbNeZAa 00000001400099e0 f i Framework.exe.obj
 0001:00008a10       _D3std9exception44__T9enforceExTC3std6format15FormatExceptionZ16__T9enforceExTbZ9enforceExFNaNfbLAyaAyamZb 0000000140009a10 f i Framework.exe.obj
 0001:00008ae0       _D3std4conv17__T4textTAyaTAxaZ4textFNaNfAyaAxaZAya 0000000140009ae0 f i Framework.exe.obj
 0001:00008b40       _D3std4conv25__T8textImplTAyaTAyaTAxaZ8textImplFNaNfAyaAxaZAya 0000000140009b40 f i Framework.exe.obj
 0001:00008bf0       _D3std4conv11__T2toTAyaZ11__T2toTAyaZ2toFNaNbNfAyaZAya 0000000140009bf0 f i Framework.exe.obj
 0001:00008c30       _D3std4conv19__T6toImplTAyaTAyaZ6toImplFNaNbNfAyaZAya 0000000140009c30 f i Framework.exe.obj
 0001:00008c40       _D3std4conv11__T2toTAyaZ11__T2toTAxaZ2toFNaNfAxaZAya 0000000140009c40 f i Framework.exe.obj
 0001:00008c80       _D3std4conv19__T6toImplTAyaTAxaZ6toImplFNaNfAxaZAya 0000000140009c80 f i Framework.exe.obj
 0001:00008cd0       _D3std4conv11__T2toTAxaZ11__T2toTAxaZ2toFNaNbNfAxaZAxa 0000000140009cd0 f i Framework.exe.obj
 0001:00008d10       _D3std4conv19__T6toImplTAxaTAxaZ6toImplFNaNbNfAxaZAxa 0000000140009d10 f i Framework.exe.obj
 0001:00008d20       _D3std4conv16__T5parseTiTAxaZ5parseFNaNfKAxaZi 0000000140009d20 f i Framework.exe.obj
 0001:00008fb0       _D3std4conv20__T9convErrorTAxaTiZ9convErrorFNaNfAxaAyamZC3std4conv13ConvException 0000000140009fb0 f i Framework.exe.obj
 0001:000090e0       _D3std4conv30__T20convError_unexpectedTAxaZ20convError_unexpectedFNaNfAxaZAya 000000014000a0e0 f i Framework.exe.obj
 0001:000091d0       _D3std4conv19__T4textTAyaTwTAyaZ4textFNaNfAyawAyaZAya 000000014000a1d0 f i Framework.exe.obj
 0001:00009230       _D3std4conv27__T8textImplTAyaTAyaTwTAyaZ8textImplFNaNfAyawAyaZAya 000000014000a230 f i Framework.exe.obj
 0001:00009330       _D3std4conv11__T2toTAyaZ9__T2toTwZ2toFNaNfwZAya 000000014000a330 f i Framework.exe.obj
 0001:00009350       _D3std4conv17__T6toImplTAyaTwZ6toImplFNaNfwZAya 000000014000a350 f i Framework.exe.obj
 0001:00009370       _D3std4conv16__T5toStrTAyaTwZ5toStrFNaNfwZAya 000000014000a370 f i Framework.exe.obj
 0001:000093f0       _D3std5array20__T8appenderTAyaTyaZ8appenderFNaNbNfZS3std5array17__T8AppenderTAyaZ8Appender 000000014000a3f0 f i Framework.exe.obj
 0001:00009460       _D3std5array17__T8AppenderTAyaZ8Appender4Data11__xopEqualsFKxS3std5array17__T8AppenderTAyaZ8Appender4DataKxS3std5array17__T8AppenderTAyaZ8Appender4DataZb 000000014000a460 f i Framework.exe.obj
 0001:000094d0       _D3std5array17__T8AppenderTAyaZ8Appender6__ctorMFNaNbNcNfAaZS3std5array17__T8AppenderTAyaZ8Appender 000000014000a4d0 f i Framework.exe.obj
 0001:000095e0       _D3std5array17__T8AppenderTAyaZ8Appender6__ctorMFNaNbNcNfAaZS3std5array17__T8AppenderTAyaZ8Appender9__lambda2MFNbNeZm 000000014000a5e0 f i Framework.exe.obj
 0001:00009620       _D3std5array17__T8AppenderTAyaZ8Appender6__ctorMFNaNbNcNfAaZS3std5array17__T8AppenderTAyaZ8Appender9__lambda3MFNbNeZAa 000000014000a620 f i Framework.exe.obj
 0001:00009640       _D3std5array17__T8AppenderTAyaZ8Appender7reserveMFNaNbNfmZv 000000014000a640 f i Framework.exe.obj
 0001:000096c0       _D3std5array17__T8AppenderTAyaZ8Appender8capacityMxFNaNbNdNfZm 000000014000a6c0 f i Framework.exe.obj
 0001:00009710       _D3std5array17__T8AppenderTAyaZ8Appender4dataMNgFNaNbNdNeZAya 000000014000a710 f i Framework.exe.obj
 0001:00009770       _D3std5array17__T8AppenderTAyaZ8Appender13ensureAddableMFNaNbNfmZv 000000014000a770 f i Framework.exe.obj
 0001:00009960       _D3std5array17__T8AppenderTAyaZ8Appender13ensureAddableMFNaNbNfmZv9__lambda2MFNbNeZm 000000014000a960 f i Framework.exe.obj
 0001:00009980       _D3std5array17__T8AppenderTAyaZ8Appender13ensureAddableMFNaNbNfmZv9__lambda3MFNbNeZm 000000014000a980 f i Framework.exe.obj
 0001:000099e0       _D3std5array17__T8AppenderTAyaZ8Appender13ensureAddableMFNaNbNfmZv9__lambda4MFNbNeZS4core6memory8BlkInfo_ 000000014000a9e0 f i Framework.exe.obj
 0001:00009a90       _D3std5array17__T8AppenderTAyaZ8Appender13ensureAddableMFNaNbNfmZv9__lambda5MFNbNeZv 000000014000aa90 f i Framework.exe.obj
 0001:00009ae0       _D3std5array17__T8AppenderTAyaZ8Appender13ensureAddableMFNaNbNfmZv9__lambda6MFNbNeZAa 000000014000aae0 f i Framework.exe.obj
 0001:00009b00       _D3std6format61__T11formatValueTS3std5array17__T8AppenderTAyaZ8AppenderTwTaZ11formatValueFNaNfS3std5array17__T8AppenderTAyaZ8AppenderwKS3std6format18__T10FormatSpecTaZ10FormatSpecZv 000000014000ab00 f i Framework.exe.obj
 0001:00009b50       _D3std5range50__T3putTS3std5array17__T8AppenderTAyaZ8AppenderTwZ3putFNaNfKS3std5array17__T8AppenderTAyaZ8AppenderwZv 000000014000ab50 f i Framework.exe.obj
 0001:00009b80       _D3std5range52__T5doPutTS3std5array17__T8AppenderTAyaZ8AppenderTwZ5doPutFNaNfKS3std5array17__T8AppenderTAyaZ8AppenderKwZv 000000014000ab80 f i Framework.exe.obj
 0001:00009bb0       _D3std5array17__T8AppenderTAyaZ8Appender10__T3putTwZ3putMFNaNfwZv 000000014000abb0 f i Framework.exe.obj
 0001:00009c70       _D3std5array17__T8AppenderTAyaZ8Appender11__T3putTAaZ3putMFNaNbNfAaZv 000000014000ac70 f i Framework.exe.obj
 0001:00009db0       _D3std5array17__T8AppenderTAyaZ8Appender11__T3putTAaZ3putMFNaNbNfAaZv10bigDataFunMFNaNbNeZAa 000000014000adb0 f i Framework.exe.obj
 0001:00009de0       _D3std6format61__T11formatValueTS3std5array17__T8AppenderTAyaZ8AppenderTkTaZ11formatValueFNaNfS3std5array17__T8AppenderTAyaZ8AppenderkKS3std6format18__T10FormatSpecTaZ10FormatSpecZv 000000014000ade0 f i Framework.exe.obj
 0001:0000a030       _D3std6format61__T11formatValueTS3std5array17__T8AppenderTAyaZ8AppenderTkTaZ11formatValueFNaNfS3std5array17__T8AppenderTAyaZ8AppenderkKS3std6format18__T10FormatSpecTaZ10FormatSpecZv16__T9__lambda4TkZ9__lambda4FNaNbNeKkZAxa 000000014000b030 f i Framework.exe.obj
 0001:0000a050       _D3std6format61__T11formatValueTS3std5array17__T8AppenderTAyaZ8AppenderTkTaZ11formatValueFNaNfS3std5array17__T8AppenderTAyaZ8AppenderkKS3std6format18__T10FormatSpecTaZ10FormatSpecZv12__dgliteral5MFNaNbNfZAya 000000014000b050 f i Framework.exe.obj
 0001:0000a070       _D3std5range51__T3putTS3std5array17__T8AppenderTAyaZ8AppenderTxaZ3putFNaNbNfKS3std5array17__T8AppenderTAyaZ8AppenderxaZv 000000014000b070 f i Framework.exe.obj
 0001:0000a0a0       _D3std5range53__T5doPutTS3std5array17__T8AppenderTAyaZ8AppenderTxaZ5doPutFNaNbNfKS3std5array17__T8AppenderTAyaZ8AppenderKxaZv 000000014000b0a0 f i Framework.exe.obj
 0001:0000a0d0       _D3std5array17__T8AppenderTAyaZ8Appender11__T3putTxaZ3putMFNaNbNfxaZv 000000014000b0d0 f i Framework.exe.obj
 0001:0000a1e0       _D3std5array17__T8AppenderTAyaZ8Appender11__T3putTxaZ3putMFNaNbNfxaZv10bigDataFunMFNaNbNeZAa 000000014000b1e0 f i Framework.exe.obj
 0001:0000a220       _D3std5array17__T8AppenderTAyaZ8Appender11__T3putTxaZ3putMFNaNbNfxaZv5uitemMFNaNbNdNeZa 000000014000b220 f i Framework.exe.obj
 0001:0000a230       _D3std6format64__T14formatIntegralTS3std5array17__T8AppenderTAyaZ8AppenderTmTaZ14formatIntegralFNaNbNfS3std5array17__T8AppenderTAyaZ8AppenderxmKS3std6format18__T10FormatSpecTaZ10FormatSpeckmZv 000000014000b230 f i Framework.exe.obj
 0001:0000a290       _D3std6format62__T14formatUnsignedTS3std5array17__T8AppenderTAyaZ8AppenderTaZ14formatUnsignedFNaNbNfS3std5array17__T8AppenderTAyaZ8AppendermKS3std6format18__T10FormatSpecTaZ10FormatSpeckbZv 000000014000b290 f i Framework.exe.obj
 0001:0000a810       _D3std5range50__T3putTS3std5array17__T8AppenderTAyaZ8AppenderTaZ3putFNaNbNfKS3std5array17__T8AppenderTAyaZ8AppenderaZv 000000014000b810 f i Framework.exe.obj
 0001:0000a840       _D3std5range52__T5doPutTS3std5array17__T8AppenderTAyaZ8AppenderTaZ5doPutFNaNbNfKS3std5array17__T8AppenderTAyaZ8AppenderKaZv 000000014000b840 f i Framework.exe.obj
 0001:0000a870       _D3std5array17__T8AppenderTAyaZ8Appender10__T3putTaZ3putMFNaNbNfaZv 000000014000b870 f i Framework.exe.obj
 0001:0000a980       _D3std5array17__T8AppenderTAyaZ8Appender10__T3putTaZ3putMFNaNbNfaZv10bigDataFunMFNaNbNeZAa 000000014000b980 f i Framework.exe.obj
 0001:0000a9c0       _D3std5array17__T8AppenderTAyaZ8Appender10__T3putTaZ3putMFNaNbNfaZv5uitemMFNbNdNeZa 000000014000b9c0 f i Framework.exe.obj
 0001:0000a9d0       _D3std5range51__T3putTS3std5array17__T8AppenderTAyaZ8AppenderTAaZ3putFNaNbNfKS3std5array17__T8AppenderTAyaZ8AppenderAaZv 000000014000b9d0 f i Framework.exe.obj
 0001:0000a9f0       _D3std5range53__T5doPutTS3std5array17__T8AppenderTAyaZ8AppenderTAaZ5doPutFNaNbNfKS3std5array17__T8AppenderTAyaZ8AppenderKAaZv 000000014000b9f0 f i Framework.exe.obj
 0001:0000aa40       _D3std4conv21__T4textTAyaTAyaTAyaZ4textFNaNbNfAyaAyaAyaZAya 000000014000ba40 f i Framework.exe.obj
 0001:0000aac0       _D3std4conv29__T8textImplTAyaTAyaTAyaTAyaZ8textImplFNaNbNfAyaAyaAyaZAya 000000014000bac0 f i Framework.exe.obj
 0001:0000abd0       _D3std4conv16__T5parseTkTAxaZ5parseFNaNfKAxaZk 000000014000bbd0 f i Framework.exe.obj
 0001:0000ade0       _D3std4conv20__T9convErrorTAxaTkZ9convErrorFNaNfAxaAyamZC3std4conv13ConvException 000000014000bde0 f i Framework.exe.obj
 0001:0000af10       _D3std9exception44__T9enforceExTC3std6format15FormatExceptionZ16__T9enforceExTmZ9enforceExFNaNfmLAyaAyamZm 000000014000bf10 f i Framework.exe.obj
 0001:0000afe0       _D3std10functional33__T9binaryFunVAyaa6_61203d3d2062Z18__T9binaryFunTwTaZ9binaryFunFNaNbNfwaZb 000000014000bfe0 f i Framework.exe.obj
 0001:0000b000       _D3std9algorithm41__T10startsWithVAyaa6_61203d3d2062TAxaTaZ10startsWithFNaNfAxaaZb 000000014000c000 f i Framework.exe.obj
 0001:0000b0a0       _D3std4conv9__T2toThZ10__T2toTxkZ2toFNaNfxkZh 000000014000c0a0 f i Framework.exe.obj
 0001:0000b0c0       _D3std4conv16__T6toImplThTxkZ6toImplFNaNfxkZh 000000014000c0c0 f i Framework.exe.obj
 0001:0000b190       _D3std4conv16__T6toImplThTxkZ6toImplFNaNfxkZh17__T9__lambda2TxkZ9__lambda2FNaNbNeKxkZh 000000014000c190 f i Framework.exe.obj
 0001:0000b1a0       _D3std4conv16__T5parseThTAxaZ5parseFNaNfKAxaZh 000000014000c1a0 f i Framework.exe.obj
 0001:0000b2f0       _D3std4conv16__T5parseThTAxaZ5parseFNaNfKAxaZh9__lambda2MFNbNeZh 000000014000c2f0 f i Framework.exe.obj
 0001:0000b300       _D3std4conv20__T9convErrorTAxaThZ9convErrorFNaNfAxaAyamZC3std4conv13ConvException 000000014000c300 f i Framework.exe.obj
 0001:0000b430       _D3std4conv9__T2toTiZ10__T2toTxkZ2toFNaNfxkZi 000000014000c430 f i Framework.exe.obj
 0001:0000b450       _D3std4conv16__T6toImplTiTxkZ6toImplFNaNfxkZi 000000014000c450 f i Framework.exe.obj
 0001:0000b4b0       _D3std4conv16__T6toImplTiTxkZ6toImplFNaNfxkZi12__dgliteral2MFNaNbNfZC6object9Throwable 000000014000c4b0 f i Framework.exe.obj
 0001:0000b540       _D3std9exception14__T7enforceTbZ7enforceFNaNfbLC6object9ThrowableZb 000000014000c540 f i Framework.exe.obj
 0001:0000b590       _D3std4conv13__T4textTAxaZ4textFNaNfAxaZAya 000000014000c590 f i Framework.exe.obj
 0001:0000b5d0       _D3std4conv21__T8textImplTAyaTAxaZ8textImplFNaNfAxaZAya 000000014000c5d0 f i Framework.exe.obj
 0001:0000b610       _D3std9exception50__T12assertThrownTC3std6format15FormatExceptionTbZ12assertThrownFNaNfLbAyaAyamZv 000000014000c610 f i Framework.exe.obj
 0001:0000b800       _D3std6string25__T6formatTaTAyaTAyaTAyaZ6formatFNaNfxAaAyaAyaAyaZAya 000000014000c800 f i Framework.exe.obj
 0001:0000b920       _D3std6string25__T6formatTaTAyaTAyaTAyaZ6formatFNaNfxAaAyaAyaAyaZAya12__dgliteral6MFNaNfZC6object9Throwable 000000014000c920 f i Framework.exe.obj
 0001:0000ba50       _D3std6format74__T14formattedWriteTS3std5array17__T8AppenderTAyaZ8AppenderTaTAyaTAyaTAyaZ14formattedWriteFNaNfS3std5array17__T8AppenderTAyaZ8AppenderxAaAyaAyaAyaZk 000000014000ca50 f i Framework.exe.obj
 0001:0000c1d0       _D3std6format74__T14formattedWriteTS3std5array17__T8AppenderTAyaZ8AppenderTaTAyaTAyaTAyaZ14formattedWriteFNaNfS3std5array17__T8AppenderTAyaZ8AppenderxAaAyaAyaAyaZk9__lambda7FNaNbNeZPFNaNbNfS3std5array17__T8AppenderTAyaZ8AppenderPxvKS3std6format18__T10FormatSpecTaZ10FormatSpecZv 000000014000d1d0 f i Framework.exe.obj
 0001:0000c1e0       _D3std6format74__T14formattedWriteTS3std5array17__T8AppenderTAyaZ8AppenderTaTAyaTAyaTAyaZ14formattedWriteFNaNfS3std5array17__T8AppenderTAyaZ8AppenderxAaAyaAyaAyaZk18__T9__lambda8TAyaZ9__lambda8FNaNbNeKAyaZxPv 000000014000d1e0 f i Framework.exe.obj
 0001:0000c1f0       _D3std6format74__T14formattedWriteTS3std5array17__T8AppenderTAyaZ8AppenderTaTAyaTAyaTAyaZ14formattedWriteFNaNfS3std5array17__T8AppenderTAyaZ8AppenderxAaAyaAyaAyaZk9__lambda9FNaNbNeZPFNaNbNfS3std5array17__T8AppenderTAyaZ8AppenderPxvKS3std6format18__T10FormatSpecTaZ10FormatSpecZv 000000014000d1f0 f i Framework.exe.obj
 0001:0000c200       _D3std6format74__T14formattedWriteTS3std5array17__T8AppenderTAyaZ8AppenderTaTAyaTAyaTAyaZ14formattedWriteFNaNfS3std5array17__T8AppenderTAyaZ8AppenderxAaAyaAyaAyaZk20__T10__lambda10TAyaZ10__lambda10FNaNbNeKAyaZxPv 000000014000d200 f i Framework.exe.obj
 0001:0000c210       _D3std6format74__T14formattedWriteTS3std5array17__T8AppenderTAyaZ8AppenderTaTAyaTAyaTAyaZ14formattedWriteFNaNfS3std5array17__T8AppenderTAyaZ8AppenderxAaAyaAyaAyaZk10__lambda11FNaNbNeZPFNaNbNfS3std5array17__T8AppenderTAyaZ8AppenderPxvKS3std6format18__T10FormatSpecTaZ10FormatSpecZv 000000014000d210 f i Framework.exe.obj
 0001:0000c220       _D3std6format74__T14formattedWriteTS3std5array17__T8AppenderTAyaZ8AppenderTaTAyaTAyaTAyaZ14formattedWriteFNaNfS3std5array17__T8AppenderTAyaZ8AppenderxAaAyaAyaAyaZk20__T10__lambda12TAyaZ10__lambda12FNaNbNeKAyaZxPv 000000014000d220 f i Framework.exe.obj
 0001:0000c230       _D3std6format74__T14formattedWriteTS3std5array17__T8AppenderTAyaZ8AppenderTaTAyaTAyaTAyaZ14formattedWriteFNaNfS3std5array17__T8AppenderTAyaZ8AppenderxAaAyaAyaAyaZk13__dgliteral13MFNaNfZAya 000000014000d230 f i Framework.exe.obj
 0001:0000c2a0       _D3std6format65__T13formatGenericTS3std5array17__T8AppenderTAyaZ8AppenderTAyaTaZ13formatGenericFNaS3std5array17__T8AppenderTAyaZ8AppenderPxvKS3std6format18__T10FormatSpecTaZ10FormatSpecZv 000000014000d2a0 f i Framework.exe.obj
 0001:0000c2e0       _D3std6format63__T11formatValueTS3std5array17__T8AppenderTAyaZ8AppenderTAyaTaZ11formatValueFNaNfS3std5array17__T8AppenderTAyaZ8AppenderAyaKS3std6format18__T10FormatSpecTaZ10FormatSpecZv 000000014000d2e0 f i Framework.exe.obj
 0001:0000c330       _D3std5array16__T8popFrontTyaZ8popFrontFNaNbNeKAyaZv 000000014000d330 f i Framework.exe.obj
 0001:0000c490       _D3std5array13__T5frontTyaZ5frontFNaNdNfAyaZw 000000014000d490 f i Framework.exe.obj
 0001:0000c4f0       _D3std3utf15__T6decodeTAyaZ6decodeFNaNeKAyaKmZw 000000014000d4f0 f i Framework.exe.obj
 0001:0000c600       _D3std3utf23__T10decodeImplVb1TAyaZ10decodeImplFNaKAyaKmZw 000000014000d600 f i Framework.exe.obj
 0001:0000c940       _D3std3utf23__T10decodeImplVb1TAyaZ10decodeImplFNaKAyaKmZw10invalidUTFMFZC3std3utf12UTFException 000000014000d940 f i Framework.exe.obj
 0001:0000c9b0       _D3std3utf23__T10decodeImplVb1TAyaZ10decodeImplFNaKAyaKmZw11outOfBoundsMFZC3std3utf12UTFException 000000014000d9b0 f i Framework.exe.obj
 0001:0000ca20       _D3std3utf23__T10decodeImplVb1TAyaZ10decodeImplFNaKAyaKmZw18__T9exceptionTAyaZ9exceptionFNaNfAyaAyaZC3std3utf12UTFException 000000014000da20 f i Framework.exe.obj
 0001:0000cbc0       _D3std6format63__T11formatRangeTS3std5array17__T8AppenderTAyaZ8AppenderTAyaTaZ11formatRangeFNaNfKS3std5array17__T8AppenderTAyaZ8AppenderKAyaKS3std6format18__T10FormatSpecTaZ10FormatSpecZv 000000014000dbc0 f i Framework.exe.obj
 0001:0000d1f0       _D3std5range52__T3putTS3std5array17__T8AppenderTAyaZ8AppenderTAyaZ3putFNaNbNfKS3std5array17__T8AppenderTAyaZ8AppenderAyaZv 000000014000e1f0 f i Framework.exe.obj
 0001:0000d210       _D3std5range54__T5doPutTS3std5array17__T8AppenderTAyaZ8AppenderTAyaZ5doPutFNaNbNfKS3std5array17__T8AppenderTAyaZ8AppenderKAyaZv 000000014000e210 f i Framework.exe.obj
 0001:0000d260       _D3std5array17__T8AppenderTAyaZ8Appender12__T3putTAyaZ3putMFNaNbNfAyaZv 000000014000e260 f i Framework.exe.obj
 0001:0000d3a0       _D3std5array17__T8AppenderTAyaZ8Appender12__T3putTAyaZ3putMFNaNbNfAyaZv10bigDataFunMFNaNbNeZAa 000000014000e3a0 f i Framework.exe.obj
 0001:0000d3d0       _D3std6format62__T11formatValueTS3std5array17__T8AppenderTAyaZ8AppenderTyaTaZ11formatValueFNaNfS3std5array17__T8AppenderTAyaZ8AppenderyaKS3std6format18__T10FormatSpecTaZ10FormatSpecZv 000000014000e3d0 f i Framework.exe.obj
 0001:0000d420       _D3std5range51__T3putTS3std5array17__T8AppenderTAyaZ8AppenderTyaZ3putFNaNbNfKS3std5array17__T8AppenderTAyaZ8AppenderyaZv 000000014000e420 f i Framework.exe.obj
 0001:0000d450       _D3std5range53__T5doPutTS3std5array17__T8AppenderTAyaZ8AppenderTyaZ5doPutFNaNbNfKS3std5array17__T8AppenderTAyaZ8AppenderKyaZv 000000014000e450 f i Framework.exe.obj
 0001:0000d480       _D3std5array17__T8AppenderTAyaZ8Appender11__T3putTyaZ3putMFNaNbNfyaZv 000000014000e480 f i Framework.exe.obj
 0001:0000d590       _D3std5array17__T8AppenderTAyaZ8Appender11__T3putTyaZ3putMFNaNbNfyaZv10bigDataFunMFNaNbNeZAa 000000014000e590 f i Framework.exe.obj
 0001:0000d5d0       _D3std5array17__T8AppenderTAyaZ8Appender11__T3putTyaZ3putMFNaNbNfyaZv5uitemMFNaNbNdNeZa 000000014000e5d0 f i Framework.exe.obj
 0001:0000d5e0       _D3std6format61__T11formatValueTS3std5array17__T8AppenderTAyaZ8AppenderThTaZ11formatValueFNaNfS3std5array17__T8AppenderTAyaZ8AppenderhKS3std6format18__T10FormatSpecTaZ10FormatSpecZv 000000014000e5e0 f i Framework.exe.obj
 0001:0000d830       _D3std6format61__T11formatValueTS3std5array17__T8AppenderTAyaZ8AppenderThTaZ11formatValueFNaNfS3std5array17__T8AppenderTAyaZ8AppenderhKS3std6format18__T10FormatSpecTaZ10FormatSpecZv16__T9__lambda4ThZ9__lambda4FNaNbNeKhZAxa 000000014000e830 f i Framework.exe.obj
 0001:0000d850       _D3std6format61__T11formatValueTS3std5array17__T8AppenderTAyaZ8AppenderThTaZ11formatValueFNaNfS3std5array17__T8AppenderTAyaZ8AppenderhKS3std6format18__T10FormatSpecTaZ10FormatSpecZv12__dgliteral5MFNaNbNfZAya 000000014000e850 f i Framework.exe.obj
 0001:0000d870       _D3std6format18__T10FormatSpecTaZ10FormatSpec63__T17writeUpToNextSpecTS3std5array17__T8AppenderTAyaZ8AppenderZ17writeUpToNextSpecMFNaNfS3std5array17__T8AppenderTAyaZ8AppenderZb 000000014000e870 f i Framework.exe.obj
 0001:0000dbc0       _D3std6format18__T10FormatSpecTaZ10FormatSpec63__T17writeUpToNextSpecTS3std5array17__T8AppenderTAyaZ8AppenderZ17writeUpToNextSpecMFNaNfS3std5array17__T8AppenderTAyaZ8AppenderZb12__dgliteral2MFNaNbNfZAya 000000014000ebc0 f i Framework.exe.obj
 0001:0000dbe0       _D3std5range52__T3putTS3std5array17__T8AppenderTAyaZ8AppenderTAxaZ3putFNaNbNfKS3std5array17__T8AppenderTAyaZ8AppenderAxaZv 000000014000ebe0 f i Framework.exe.obj
 0001:0000dc00       _D3std5range54__T5doPutTS3std5array17__T8AppenderTAyaZ8AppenderTAxaZ5doPutFNaNbNfKS3std5array17__T8AppenderTAyaZ8AppenderKAxaZv 000000014000ec00 f i Framework.exe.obj
 0001:0000dc50       _D3std5array17__T8AppenderTAyaZ8Appender12__T3putTAxaZ3putMFNaNbNfAxaZv 000000014000ec50 f i Framework.exe.obj
 0001:0000dd90       _D3std5array17__T8AppenderTAyaZ8Appender12__T3putTAxaZ3putMFNaNbNfAxaZv10bigDataFunMFNaNbNeZAa 000000014000ed90 f i Framework.exe.obj
 0001:0000ddc0       _D3std6format63__T13formatElementTS3std5array17__T8AppenderTAyaZ8AppenderTwTaZ13formatElementFNaNfS3std5array17__T8AppenderTAyaZ8AppenderwKS3std6format18__T10FormatSpecTaZ10FormatSpecZv 000000014000edc0 f i Framework.exe.obj
 0001:0000de50       _D3std6format56__T10formatCharTS3std5array17__T8AppenderTAyaZ8AppenderZ10formatCharFNaNfS3std5array17__T8AppenderTAyaZ8AppenderxwxaZv 000000014000ee50 f i Framework.exe.obj
 0001:0000e160       _D3std5range51__T3putTS3std5array17__T8AppenderTAyaZ8AppenderTxwZ3putFNaNfKS3std5array17__T8AppenderTAyaZ8AppenderxwZv 000000014000f160 f i Framework.exe.obj
 0001:0000e190       _D3std5range53__T5doPutTS3std5array17__T8AppenderTAyaZ8AppenderTxwZ5doPutFNaNfKS3std5array17__T8AppenderTAyaZ8AppenderKxwZv 000000014000f190 f i Framework.exe.obj
 0001:0000e1c0       _D3std5array17__T8AppenderTAyaZ8Appender11__T3putTxwZ3putMFNaNfxwZv 000000014000f1c0 f i Framework.exe.obj
 0001:0000e280       _D3std6format64__T14formattedWriteTS3std5array17__T8AppenderTAyaZ8AppenderTaTkZ14formattedWriteFNaNfS3std5array17__T8AppenderTAyaZ8AppenderxAakZk 000000014000f280 f i Framework.exe.obj
 0001:0000e790       _D3std6format64__T14formattedWriteTS3std5array17__T8AppenderTAyaZ8AppenderTaTkZ14formattedWriteFNaNfS3std5array17__T8AppenderTAyaZ8AppenderxAakZk9__lambda5FNaNbNeZPFNaNbNfS3std5array17__T8AppenderTAyaZ8AppenderPxvKS3std6format18__T10FormatSpecTaZ10FormatSpecZv 000000014000f790 f i Framework.exe.obj
 0001:0000e7a0       _D3std6format64__T14formattedWriteTS3std5array17__T8AppenderTAyaZ8AppenderTaTkZ14formattedWriteFNaNfS3std5array17__T8AppenderTAyaZ8AppenderxAakZk16__T9__lambda6TkZ9__lambda6FNaNbNeKkZxPv 000000014000f7a0 f i Framework.exe.obj
 0001:0000e7b0       _D3std6format64__T14formattedWriteTS3std5array17__T8AppenderTAyaZ8AppenderTaTkZ14formattedWriteFNaNfS3std5array17__T8AppenderTAyaZ8AppenderxAakZk12__dgliteral7MFNaNfZAya 000000014000f7b0 f i Framework.exe.obj
 0001:0000e820       _D3std6format63__T13formatGenericTS3std5array17__T8AppenderTAyaZ8AppenderTkTaZ13formatGenericFNaS3std5array17__T8AppenderTAyaZ8AppenderPxvKS3std6format18__T10FormatSpecTaZ10FormatSpecZv 000000014000f820 f i Framework.exe.obj
 0001:0000e840       _D3std6format16__T9getNthIntTkZ9getNthIntFNaNfkkZi 000000014000f840 f i Framework.exe.obj
 0001:0000e880       _D3std6format14__T9getNthIntZ9getNthIntFNaNfkZi 000000014000f880 f i Framework.exe.obj
 0001:0000e930       _D3std4conv9__T2toTiZ9__T2toTkZ2toFNaNfkZi 000000014000f930 f i Framework.exe.obj
 0001:0000e950       _D3std4conv15__T6toImplTiTkZ6toImplFNaNfkZi 000000014000f950 f i Framework.exe.obj
 0001:0000e9b0       _D3std4conv15__T6toImplTiTkZ6toImplFNaNfkZi12__dgliteral2MFNaNbNfZC6object9Throwable 000000014000f9b0 f i Framework.exe.obj
 0001:0000ea40       _D3std4conv9__T2toTiZ9__T2toTiZ2toFNaNbNfiZi 000000014000fa40 f i Framework.exe.obj
 0001:0000ea60       _D3std4conv15__T6toImplTiTiZ6toImplFNaNbNfiZi 000000014000fa60 f i Framework.exe.obj
 0001:0000ea70       _D3std6format58__T9formatNthTS3std5array17__T8AppenderTAyaZ8AppenderTaTkZ9formatNthFNaNfS3std5array17__T8AppenderTAyaZ8AppenderKS3std6format18__T10FormatSpecTaZ10FormatSpecmkZv 000000014000fa70 f i Framework.exe.obj
 0001:0000eb50       _D3std6format58__T9formatNthTS3std5array17__T8AppenderTAyaZ8AppenderTaTkZ9formatNthFNaNfS3std5array17__T8AppenderTAyaZ8AppenderKS3std6format18__T10FormatSpecTaZ10FormatSpecmkZv15__T7gencodeVm1Z7gencodeFNaNfZAya 000000014000fb50 f i Framework.exe.obj
 0001:0000ec50       _D3std4conv11__T2toTAyaZ9__T2toTmZ2toFNaNfmZAya 000000014000fc50 f i Framework.exe.obj
 0001:0000ec70       _D3std4conv17__T6toImplTAyaTmZ6toImplFNaNfmZAya 000000014000fc70 f i Framework.exe.obj
 0001:0000eca0       _D3std4conv17__T6toImplTAyaTmZ6toImplFNaNemkE3std5ascii10LetterCaseZAya 000000014000fca0 f i Framework.exe.obj
 0001:0000edf0       _D3std4conv17__T6toImplTAyaTmZ6toImplFNaNemkE3std5ascii10LetterCaseZAya12__dgliteral4MFNaNbNfZC6object9Throwable 000000014000fdf0 f i Framework.exe.obj
 0001:0000ee80       _D3std4conv17__T6toImplTAyaTmZ6toImplFNaNemkE3std5ascii10LetterCaseZAya37__T20toStringRadixConvertVm25Vi10Vb1Z20toStringRadixConvertMFkZAya 000000014000fe80 f i Framework.exe.obj
 0001:0000efd0       _D3std4conv15__T8unsignedTmZ8unsignedFNaNbNfmZm 000000014000ffd0 f i Framework.exe.obj
 0001:0000efe0       _D3std4conv17__T6toImplTAyaTmZ6toImplFNaNemkE3std5ascii10LetterCaseZAya34__T20toStringRadixConvertVm24Vi10Z20toStringRadixConvertMFkZAya 000000014000ffe0 f i Framework.exe.obj
 0001:0000f100       _D3std4conv17__T6toImplTAyaTmZ6toImplFNaNemkE3std5ascii10LetterCaseZAya34__T20toStringRadixConvertVm16Vi16Z20toStringRadixConvertMFkZAya 0000000140010100 f i Framework.exe.obj
 0001:0000f240       _D3std4conv17__T6toImplTAyaTmZ6toImplFNaNemkE3std5ascii10LetterCaseZAya33__T20toStringRadixConvertVm64Vi2Z20toStringRadixConvertMFkZAya 0000000140010240 f i Framework.exe.obj
 0001:0000f340       _D3std4conv17__T6toImplTAyaTmZ6toImplFNaNemkE3std5ascii10LetterCaseZAya33__T20toStringRadixConvertVm24Vi8Z20toStringRadixConvertMFkZAya 0000000140010340 f i Framework.exe.obj
 0001:0000f450       _D3std4conv17__T6toImplTAyaTmZ6toImplFNaNemkE3std5ascii10LetterCaseZAya30__T20toStringRadixConvertVm48Z20toStringRadixConvertMFkZAya 0000000140010450 f i Framework.exe.obj
 0001:0000f5a0       _D3std4conv15__T4textTAyaTaZ4textFNaNfAyaaZAya 00000001400105a0 f i Framework.exe.obj
 0001:0000f5e0       _D3std4conv23__T8textImplTAyaTAyaTaZ8textImplFNaNfAyaaZAya 00000001400105e0 f i Framework.exe.obj
 0001:0000f680       _D3std4conv11__T2toTAyaZ9__T2toTaZ2toFNaNfaZAya 0000000140010680 f i Framework.exe.obj
 0001:0000f6a0       _D3std4conv17__T6toImplTAyaTaZ6toImplFNaNfaZAya 00000001400106a0 f i Framework.exe.obj
 0001:0000f6c0       _D3std4conv16__T5toStrTAyaTaZ5toStrFNaNfaZAya 00000001400106c0 f i Framework.exe.obj
 0001:0000f740       _D3std6format61__T11formatValueTS3std5array17__T8AppenderTAyaZ8AppenderTaTaZ11formatValueFNaNfS3std5array17__T8AppenderTAyaZ8AppenderaKS3std6format18__T10FormatSpecTaZ10FormatSpecZv 0000000140010740 f i Framework.exe.obj
 0001:0000f790       _D3std6format26__T9getNthIntTAyaTAyaTAyaZ9getNthIntFNaNfkAyaAyaAyaZi 0000000140010790 f i Framework.exe.obj
 0001:0000f8a0       _D3std6format22__T9getNthIntTAyaTAyaZ9getNthIntFNaNfkAyaAyaZi 00000001400108a0 f i Framework.exe.obj
 0001:0000f990       _D3std6format18__T9getNthIntTAyaZ9getNthIntFNaNfkAyaZi 0000000140010990 f i Framework.exe.obj
 0001:0000fa70       _D3std6format68__T9formatNthTS3std5array17__T8AppenderTAyaZ8AppenderTaTAyaTAyaTAyaZ9formatNthFNaNfS3std5array17__T8AppenderTAyaZ8AppenderKS3std6format18__T10FormatSpecTaZ10FormatSpecmAyaAyaAyaZv 0000000140010a70 f i Framework.exe.obj
 0001:0000fbe0       _D3std6format68__T9formatNthTS3std5array17__T8AppenderTAyaZ8AppenderTaTAyaTAyaTAyaZ9formatNthFNaNfS3std5array17__T8AppenderTAyaZ8AppenderKS3std6format18__T10FormatSpecTaZ10FormatSpecmAyaAyaAyaZv15__T7gencodeVm3Z7gencodeFNaNfZAya 0000000140010be0 f i Framework.exe.obj
 0001:0000fce0       _D3std4conv25__T4textTAyaTkTAyaTmTAyaZ4textFNaNfAyakAyamAyaZAya 0000000140010ce0 f i Framework.exe.obj
 0001:0000fd60       _D3std4conv33__T8textImplTAyaTAyaTkTAyaTmTAyaZ8textImplFNaNfAyakAyamAyaZAya 0000000140010d60 f i Framework.exe.obj
 0001:0000ff10       _D3std4conv11__T2toTAyaZ9__T2toTkZ2toFNaNfkZAya 0000000140010f10 f i Framework.exe.obj
 0001:0000ff30       _D3std4conv17__T6toImplTAyaTkZ6toImplFNaNfkZAya 0000000140010f30 f i Framework.exe.obj
 0001:0000ff60       _D3std4conv17__T6toImplTAyaTkZ6toImplFNaNekkE3std5ascii10LetterCaseZAya 0000000140010f60 f i Framework.exe.obj
 0001:000100b0       _D3std4conv17__T6toImplTAyaTkZ6toImplFNaNekkE3std5ascii10LetterCaseZAya12__dgliteral4MFNaNbNfZC6object9Throwable 00000001400110b0 f i Framework.exe.obj
 0001:00010140       _D3std4conv17__T6toImplTAyaTkZ6toImplFNaNekkE3std5ascii10LetterCaseZAya37__T20toStringRadixConvertVm13Vi10Vb1Z20toStringRadixConvertMFkZAya 0000000140011140 f i Framework.exe.obj
 0001:000102a0       _D3std4conv15__T8unsignedTkZ8unsignedFNaNbNfkZk 00000001400112a0 f i Framework.exe.obj
 0001:000102b0       _D3std4conv17__T6toImplTAyaTkZ6toImplFNaNekkE3std5ascii10LetterCaseZAya34__T20toStringRadixConvertVm12Vi10Z20toStringRadixConvertMFkZAya 00000001400112b0 f i Framework.exe.obj
 0001:000103d0       _D3std4conv17__T6toImplTAyaTkZ6toImplFNaNekkE3std5ascii10LetterCaseZAya33__T20toStringRadixConvertVm8Vi16Z20toStringRadixConvertMFkZAya 00000001400113d0 f i Framework.exe.obj
 0001:00010500       _D3std4conv17__T6toImplTAyaTkZ6toImplFNaNekkE3std5ascii10LetterCaseZAya33__T20toStringRadixConvertVm32Vi2Z20toStringRadixConvertMFkZAya 0000000140011500 f i Framework.exe.obj
 0001:00010600       _D3std4conv17__T6toImplTAyaTkZ6toImplFNaNekkE3std5ascii10LetterCaseZAya33__T20toStringRadixConvertVm12Vi8Z20toStringRadixConvertMFkZAya 0000000140011600 f i Framework.exe.obj
 0001:00010700       _D3std4conv17__T6toImplTAyaTkZ6toImplFNaNekkE3std5ascii10LetterCaseZAya30__T20toStringRadixConvertVm24Z20toStringRadixConvertMFkZAya 0000000140011700 f i Framework.exe.obj
 0001:00010850       _D3std6format62__T11formatValueTS3std5array17__T8AppenderTAyaZ8AppenderTxhTaZ11formatValueFNaNfS3std5array17__T8AppenderTAyaZ8AppenderxhKS3std6format18__T10FormatSpecTaZ10FormatSpecZv 0000000140011850 f i Framework.exe.obj
 0001:00010aa0       _D3std6format62__T11formatValueTS3std5array17__T8AppenderTAyaZ8AppenderTxhTaZ11formatValueFNaNfS3std5array17__T8AppenderTAyaZ8AppenderxhKS3std6format18__T10FormatSpecTaZ10FormatSpecZv17__T9__lambda4TxhZ9__lambda4FNaNbNeKxhZAxa 0000000140011aa0 f i Framework.exe.obj
 0001:00010ac0       _D3std6format62__T11formatValueTS3std5array17__T8AppenderTAyaZ8AppenderTxhTaZ11formatValueFNaNfS3std5array17__T8AppenderTAyaZ8AppenderxhKS3std6format18__T10FormatSpecTaZ10FormatSpecZv12__dgliteral5MFNaNbNfZAya 0000000140011ac0 f i Framework.exe.obj
 0001:00010ae0       _D3std6format62__T11formatValueTS3std5array17__T8AppenderTAyaZ8AppenderTxiTaZ11formatValueFNaNfS3std5array17__T8AppenderTAyaZ8AppenderxiKS3std6format18__T10FormatSpecTaZ10FormatSpecZv 0000000140011ae0 f i Framework.exe.obj
 0001:00010d30       _D3std6format62__T11formatValueTS3std5array17__T8AppenderTAyaZ8AppenderTxiTaZ11formatValueFNaNfS3std5array17__T8AppenderTAyaZ8AppenderxiKS3std6format18__T10FormatSpecTaZ10FormatSpecZv17__T9__lambda4TxiZ9__lambda4FNaNbNeKxiZAxa 0000000140011d30 f i Framework.exe.obj
 0001:00010d50       _D3std6format62__T11formatValueTS3std5array17__T8AppenderTAyaZ8AppenderTxiTaZ11formatValueFNaNfS3std5array17__T8AppenderTAyaZ8AppenderxiKS3std6format18__T10FormatSpecTaZ10FormatSpecZv12__dgliteral5MFNaNbNfZAya 0000000140011d50 f i Framework.exe.obj
 0001:00010d70       _D3std6format64__T14formatIntegralTS3std5array17__T8AppenderTAyaZ8AppenderTlTaZ14formatIntegralFNaNbNfS3std5array17__T8AppenderTAyaZ8AppenderxlKS3std6format18__T10FormatSpecTaZ10FormatSpeckmZv 0000000140011d70 f i Framework.exe.obj
 0001:00010e00       _D3std5array20__T8appenderTAxaTxaZ8appenderFNaNbNfZS3std5array17__T8AppenderTAxaZ8Appender 0000000140011e00 f i Framework.exe.obj
 0001:00010e70       _D3std5array17__T8AppenderTAxaZ8Appender4Data11__xopEqualsFKxS3std5array17__T8AppenderTAxaZ8Appender4DataKxS3std5array17__T8AppenderTAxaZ8Appender4DataZb 0000000140011e70 f i Framework.exe.obj
 0001:00010ee0       _D3std5array17__T8AppenderTAxaZ8Appender6__ctorMFNaNbNcNfAaZS3std5array17__T8AppenderTAxaZ8Appender 0000000140011ee0 f i Framework.exe.obj
 0001:00010ff0       _D3std5array17__T8AppenderTAxaZ8Appender6__ctorMFNaNbNcNfAaZS3std5array17__T8AppenderTAxaZ8Appender9__lambda2MFNbNeZm 0000000140011ff0 f i Framework.exe.obj
 0001:00011030       _D3std5array17__T8AppenderTAxaZ8Appender6__ctorMFNaNbNcNfAaZS3std5array17__T8AppenderTAxaZ8Appender9__lambda3MFNbNeZAa 0000000140012030 f i Framework.exe.obj
 0001:00011050       _D3std5array17__T8AppenderTAxaZ8Appender7reserveMFNaNbNfmZv 0000000140012050 f i Framework.exe.obj
 0001:000110d0       _D3std5array17__T8AppenderTAxaZ8Appender8capacityMxFNaNbNdNfZm 00000001400120d0 f i Framework.exe.obj
 0001:00011120       _D3std5array17__T8AppenderTAxaZ8Appender4dataMNgFNaNbNdNeZANgxa 0000000140012120 f i Framework.exe.obj
 0001:00011180       _D3std5array17__T8AppenderTAxaZ8Appender13ensureAddableMFNaNbNfmZv 0000000140012180 f i Framework.exe.obj
 0001:00011370       _D3std5array17__T8AppenderTAxaZ8Appender13ensureAddableMFNaNbNfmZv9__lambda2MFNbNeZm 0000000140012370 f i Framework.exe.obj
 0001:00011390       _D3std5array17__T8AppenderTAxaZ8Appender13ensureAddableMFNaNbNfmZv9__lambda3MFNbNeZm 0000000140012390 f i Framework.exe.obj
 0001:000113f0       _D3std5array17__T8AppenderTAxaZ8Appender13ensureAddableMFNaNbNfmZv9__lambda4MFNbNeZS4core6memory8BlkInfo_ 00000001400123f0 f i Framework.exe.obj
 0001:000114a0       _D3std5array17__T8AppenderTAxaZ8Appender13ensureAddableMFNaNbNfmZv9__lambda5MFNbNeZv 00000001400124a0 f i Framework.exe.obj
 0001:000114f0       _D3std5array17__T8AppenderTAxaZ8Appender13ensureAddableMFNaNbNfmZv9__lambda6MFNbNeZAa 00000001400124f0 f i Framework.exe.obj
 0001:00011510       _D3std5array17__T8AppenderTAxaZ8Appender10__T3putTaZ3putMFNaNbNfaZv 0000000140012510 f i Framework.exe.obj
 0001:00011620       _D3std5array17__T8AppenderTAxaZ8Appender10__T3putTaZ3putMFNaNbNfaZv10bigDataFunMFNaNbNeZAa 0000000140012620 f i Framework.exe.obj
 0001:00011660       _D3std5array17__T8AppenderTAxaZ8Appender10__T3putTaZ3putMFNaNbNfaZv5uitemMFNbNdNeZa 0000000140012660 f i Framework.exe.obj
 0001:00011670       _D3std5array17__T8AppenderTAxaZ8Appender10__T3putTwZ3putMFNaNfwZv 0000000140012670 f i Framework.exe.obj
 0001:00011730       _D3std5array17__T8AppenderTAxaZ8Appender11__T3putTAaZ3putMFNaNbNfAaZv 0000000140012730 f i Framework.exe.obj
 0001:00011870       _D3std5array17__T8AppenderTAxaZ8Appender11__T3putTAaZ3putMFNaNbNfAaZv10bigDataFunMFNaNbNeZAa 0000000140012870 f i Framework.exe.obj
 0001:000118a0       _D3std4conv96__T4textTAyaTPvTAyaTiTAyaTiTAyaTaTAyaThTAyaThTAyaTbTAyaTbTAyaTbTAyaTbTAyaTbTAyaTAxaTAyaTAxaTAyaZ4textFNaNfAyaPvAyaiAyaiAyaaAyahAyahAyabAyabAyabAyabAyabAyaAxaAyaAxaAyaZAya 00000001400128a0 f i Framework.exe.obj
 0001:00011b70       _D3std4conv104__T8textImplTAyaTAyaTPvTAyaTiTAyaTiTAyaTaTAyaThTAyaThTAyaTbTAyaTbTAyaTbTAyaTbTAyaTbTAyaTAxaTAyaTAxaTAyaZ8textImplFNaNfAyaPvAyaiAyaiAyaaAyahAyahAyabAyabAyabAyabAyabAyaAxaAyaAxaAyaZAya 0000000140012b70 f i Framework.exe.obj
 0001:000125b0       _D3std4conv11__T2toTAyaZ10__T2toTPvZ2toFNaNfPvZAya 00000001400135b0 f i Framework.exe.obj
 0001:000125d0       _D3std4conv18__T6toImplTAyaTPvZ6toImplFNaNfPvZAya 00000001400135d0 f i Framework.exe.obj
 0001:000125f0       _D3std4conv17__T5toStrTAyaTPvZ5toStrFNaNfPvZAya 00000001400135f0 f i Framework.exe.obj
 0001:00012670       _D3std6format62__T11formatValueTS3std5array17__T8AppenderTAyaZ8AppenderTPvTaZ11formatValueFNaNfS3std5array17__T8AppenderTAyaZ8AppenderPvKS3std6format18__T10FormatSpecTaZ10FormatSpecZv 0000000140013670 f i Framework.exe.obj
 0001:000127f0       _D3std6format62__T11formatValueTS3std5array17__T8AppenderTAyaZ8AppenderTPvTaZ11formatValueFNaNfS3std5array17__T8AppenderTAyaZ8AppenderPvKS3std6format18__T10FormatSpecTaZ10FormatSpecZv9__lambda4MFNbNeZm 00000001400137f0 f i Framework.exe.obj
 0001:00012800       _D3std6format62__T11formatValueTS3std5array17__T8AppenderTAyaZ8AppenderTPvTaZ11formatValueFNaNfS3std5array17__T8AppenderTAyaZ8AppenderPvKS3std6format18__T10FormatSpecTaZ10FormatSpecZv12__dgliteral5MFNaNbNfZAya 0000000140013800 f i Framework.exe.obj
 0001:00012820       _D3std6format62__T11formatValueTS3std5array17__T8AppenderTAyaZ8AppenderTxmTaZ11formatValueFNaNfS3std5array17__T8AppenderTAyaZ8AppenderxmKS3std6format18__T10FormatSpecTaZ10FormatSpecZv 0000000140013820 f i Framework.exe.obj
 0001:00012a70       _D3std6format62__T11formatValueTS3std5array17__T8AppenderTAyaZ8AppenderTxmTaZ11formatValueFNaNfS3std5array17__T8AppenderTAyaZ8AppenderxmKS3std6format18__T10FormatSpecTaZ10FormatSpecZv17__T9__lambda4TxmZ9__lambda4FNaNbNeKxmZAxa 0000000140013a70 f i Framework.exe.obj
 0001:00012a90       _D3std6format62__T11formatValueTS3std5array17__T8AppenderTAyaZ8AppenderTxmTaZ11formatValueFNaNfS3std5array17__T8AppenderTAyaZ8AppenderxmKS3std6format18__T10FormatSpecTaZ10FormatSpecZv12__dgliteral5MFNaNbNfZAya 0000000140013a90 f i Framework.exe.obj
 0001:00012ab0       _D3std4conv11__T2toTAyaZ9__T2toTiZ2toFNaNfiZAya 0000000140013ab0 f i Framework.exe.obj
 0001:00012ad0       _D3std4conv17__T6toImplTAyaTiZ6toImplFNaNfiZAya 0000000140013ad0 f i Framework.exe.obj
 0001:00012b00       _D3std4conv17__T6toImplTAyaTiZ6toImplFNaNeikE3std5ascii10LetterCaseZAya 0000000140013b00 f i Framework.exe.obj
 0001:00012c80       _D3std4conv17__T6toImplTAyaTiZ6toImplFNaNeikE3std5ascii10LetterCaseZAya12__dgliteral4MFNaNbNfZC6object9Throwable 0000000140013c80 f i Framework.exe.obj
 0001:00012d10       _D3std4conv17__T6toImplTAyaTiZ6toImplFNaNeikE3std5ascii10LetterCaseZAya37__T20toStringRadixConvertVm13Vi10Vb1Z20toStringRadixConvertMFkZAya 0000000140013d10 f i Framework.exe.obj
 0001:00012e70       _D3std4conv15__T8unsignedTiZ8unsignedFNaNbNfiZk 0000000140013e70 f i Framework.exe.obj
 0001:00012e80       _D3std4conv17__T6toImplTAyaTiZ6toImplFNaNeikE3std5ascii10LetterCaseZAya34__T20toStringRadixConvertVm12Vi10Z20toStringRadixConvertMFkZAya 0000000140013e80 f i Framework.exe.obj
 0001:00012fa0       _D3std4conv17__T6toImplTAyaTiZ6toImplFNaNeikE3std5ascii10LetterCaseZAya33__T20toStringRadixConvertVm8Vi16Z20toStringRadixConvertMFkZAya 0000000140013fa0 f i Framework.exe.obj
 0001:000130d0       _D3std4conv17__T6toImplTAyaTiZ6toImplFNaNeikE3std5ascii10LetterCaseZAya33__T20toStringRadixConvertVm32Vi2Z20toStringRadixConvertMFkZAya 00000001400140d0 f i Framework.exe.obj
 0001:000131d0       _D3std4conv17__T6toImplTAyaTiZ6toImplFNaNeikE3std5ascii10LetterCaseZAya33__T20toStringRadixConvertVm12Vi8Z20toStringRadixConvertMFkZAya 00000001400141d0 f i Framework.exe.obj
 0001:000132d0       _D3std4conv17__T6toImplTAyaTiZ6toImplFNaNeikE3std5ascii10LetterCaseZAya30__T20toStringRadixConvertVm24Z20toStringRadixConvertMFkZAya 00000001400142d0 f i Framework.exe.obj
 0001:00013420       _D3std4conv11__T2toTAyaZ9__T2toThZ2toFNaNfhZAya 0000000140014420 f i Framework.exe.obj
 0001:00013440       _D3std4conv17__T6toImplTAyaThZ6toImplFNaNfhZAya 0000000140014440 f i Framework.exe.obj
 0001:00013470       _D3std4conv17__T6toImplTAyaThZ6toImplFNaNehkE3std5ascii10LetterCaseZAya 0000000140014470 f i Framework.exe.obj
 0001:000135c0       _D3std4conv17__T6toImplTAyaThZ6toImplFNaNehkE3std5ascii10LetterCaseZAya12__dgliteral4MFNaNbNfZC6object9Throwable 00000001400145c0 f i Framework.exe.obj
 0001:00013650       _D3std4conv17__T6toImplTAyaThZ6toImplFNaNehkE3std5ascii10LetterCaseZAya36__T20toStringRadixConvertVm4Vi10Vb1Z20toStringRadixConvertMFkZAya 0000000140014650 f i Framework.exe.obj
 0001:000137c0       _D3std4conv15__T8unsignedThZ8unsignedFNaNbNfhZh 00000001400147c0 f i Framework.exe.obj
 0001:000137d0       _D3std4conv17__T6toImplTAyaThZ6toImplFNaNehkE3std5ascii10LetterCaseZAya33__T20toStringRadixConvertVm3Vi10Z20toStringRadixConvertMFkZAya 00000001400147d0 f i Framework.exe.obj
 0001:00013900       _D3std4conv17__T6toImplTAyaThZ6toImplFNaNehkE3std5ascii10LetterCaseZAya33__T20toStringRadixConvertVm2Vi16Z20toStringRadixConvertMFkZAya 0000000140014900 f i Framework.exe.obj
 0001:00013a50       _D3std4conv17__T6toImplTAyaThZ6toImplFNaNehkE3std5ascii10LetterCaseZAya32__T20toStringRadixConvertVm8Vi2Z20toStringRadixConvertMFkZAya 0000000140014a50 f i Framework.exe.obj
 0001:00013b60       _D3std4conv17__T6toImplTAyaThZ6toImplFNaNehkE3std5ascii10LetterCaseZAya32__T20toStringRadixConvertVm3Vi8Z20toStringRadixConvertMFkZAya 0000000140014b60 f i Framework.exe.obj
 0001:00013c70       _D3std4conv17__T6toImplTAyaThZ6toImplFNaNehkE3std5ascii10LetterCaseZAya29__T20toStringRadixConvertVm6Z20toStringRadixConvertMFkZAya 0000000140014c70 f i Framework.exe.obj
 0001:00013dd0       _D3std4conv11__T2toTAyaZ9__T2toTbZ2toFNaNfbZAya 0000000140014dd0 f i Framework.exe.obj
 0001:00013df0       _D3std4conv17__T6toImplTAyaTbZ6toImplFNaNfbZAya 0000000140014df0 f i Framework.exe.obj
 0001:00013e10       _D3std4conv16__T5toStrTAyaTbZ5toStrFNaNfbZAya 0000000140014e10 f i Framework.exe.obj
 0001:00013e90       _D3std6format61__T11formatValueTS3std5array17__T8AppenderTAyaZ8AppenderTbTaZ11formatValueFNaNfS3std5array17__T8AppenderTAyaZ8AppenderbKS3std6format18__T10FormatSpecTaZ10FormatSpecZv 0000000140014e90 f i Framework.exe.obj
 0001:00014010       _D3std6format61__T11formatValueTS3std5array17__T8AppenderTAyaZ8AppenderTiTaZ11formatValueFNaNfS3std5array17__T8AppenderTAyaZ8AppenderiKS3std6format18__T10FormatSpecTaZ10FormatSpecZv 0000000140015010 f i Framework.exe.obj
 0001:00014260       _D3std6format61__T11formatValueTS3std5array17__T8AppenderTAyaZ8AppenderTiTaZ11formatValueFNaNfS3std5array17__T8AppenderTAyaZ8AppenderiKS3std6format18__T10FormatSpecTaZ10FormatSpecZv16__T9__lambda4TiZ9__lambda4FNaNbNeKiZAxa 0000000140015260 f i Framework.exe.obj
 0001:00014280       _D3std6format61__T11formatValueTS3std5array17__T8AppenderTAyaZ8AppenderTiTaZ11formatValueFNaNfS3std5array17__T8AppenderTAyaZ8AppenderiKS3std6format18__T10FormatSpecTaZ10FormatSpecZv12__dgliteral5MFNaNbNfZAya 0000000140015280 f i Framework.exe.obj
 0001:000142a0       _D3std3uni25__T16SliceOverIndexedTAiZ16SliceOverIndexed69__T8opEqualsTxS3std3uni25__T16SliceOverIndexedTAiZ16SliceOverIndexedZ8opEqualsMxFNaNbNfKxS3std3uni25__T16SliceOverIndexedTAiZ16SliceOverIndexedZb 00000001400152a0 f i Framework.exe.obj
 0001:000143c0       _D4main9__modtestFZv       00000001400153c0 f i Framework.exe.obj
 0001:00014400       _D4main15__unittest_failFiZv 0000000140015400 f i Framework.exe.obj
 0001:00014430       main                       0000000140015430 f i Framework.exe.obj
 0001:00014450       _D6System6_Class4Type4Type23GetTypeFromHandleUnsafeFS6System6IntPtrZC6System11RuntimeType 0000000140015450 f i Framework.exe.obj
 0001:00014470       _D6System6_Class5Int325Int326__ctorMFZC6System6_Class5Int325Int32 0000000140015470 f i Framework.exe.obj
 0001:00014480       _D6System6_Class5Int325Int326opCastMFZi 0000000140015480 f i Framework.exe.obj
 0001:000144e0       _D6System6_Class5Int325Int326opCallFiZC6System6_Class5Int325Int32 00000001400154e0 f i Framework.exe.obj
 0001:00014530       _D6System6_Class5Int325Int329CompareToMFC6ObjectZi 0000000140015530 f i Framework.exe.obj
 0001:00014710       _D6System6_Class5Int325Int329CompareToMFiZi 0000000140015710 f i Framework.exe.obj
 0001:000147a0       _D6System6_Class5Int325Int326EqualsMFC6ObjectZb 00000001400157a0 f i Framework.exe.obj
 0001:000148c0       _D6System6_Class5Int325Int326EqualsMFiZb 00000001400158c0 f i Framework.exe.obj
 0001:00014930       _D6System6_Class5Int325Int3211GetHashCodeMFZi 0000000140015930 f i Framework.exe.obj
 0001:00014990       _D6System6_Class5Int3215__unittestL70_2FZv 0000000140015990 f i Framework.exe.obj
 0001:00014bd0       _D6System6_Class5Int329__modtestFZv 0000000140015bd0 f i Framework.exe.obj
 0001:00014bf0       _D6System6_Class5Int3215__unittest_failFiZv 0000000140015bf0 f i Framework.exe.obj
 0001:00014c20       _D6System7_Struct11ArgIterator11ArgIterator6__ctorMFNcS6System6IntPtrZS6System7_Struct11ArgIterator11ArgIterator 0000000140015c20 f i Framework.exe.obj
 0001:00014c30       _D6System7_Struct11ArgIterator11ArgIterator6__ctorMFNcS6System6IntPtrPvZS6System7_Struct11ArgIterator11ArgIterator 0000000140015c30 f i Framework.exe.obj
 0001:00014c40       _D6System7_Struct11ArgIterator11ArgIterator15FCallGetNextArgMFPvZv 0000000140015c40 f i Framework.exe.obj
 0001:00014c50       _D6System7_Struct11ArgIterator11ArgIterator18InternalGetNextArgMFPvC6System11RuntimeTypeZv 0000000140015c50 f i Framework.exe.obj
 0001:00014c60       _D6System7_Struct11ArgIterator11ArgIterator17GetRemainingCountMFZi 0000000140015c60 f i Framework.exe.obj
 0001:00014ca0       _D6System7_Struct11ArgIterator11ArgIterator15_GetNextArgTypeMFZPv 0000000140015ca0 f i Framework.exe.obj
 0001:00014cb0       _D6System7_Struct11ArgIterator11ArgIterator6__ctorMFNcS6System7_Struct21RuntimeArgumentHandle21RuntimeArgumentHandleZS6System7_Struct11ArgIterator11ArgIterator 0000000140015cb0 f i Framework.exe.obj
 0001:00014d10       _D6System7_Struct11ArgIterator11ArgIterator6__ctorMFNcS6System7_Struct21RuntimeArgumentHandle21RuntimeArgumentHandlePvZS6System7_Struct11ArgIterator11ArgIterator 0000000140015d10 f i Framework.exe.obj
 0001:00014d80       _D6System7_Struct11ArgIterator11ArgIterator10GetNextArgMFZS6System14TypedReference 0000000140015d80 f i Framework.exe.obj
 0001:00014df0       _D6System7_Struct11ArgIterator11ArgIterator10GetNextArgMFC6System17RuntimeTypeHandleZS6System14TypedReference 0000000140015df0 f i Framework.exe.obj
 0001:00014f20       _D6System7_Struct11ArgIterator11ArgIterator3EndMFZv 0000000140015f20 f i Framework.exe.obj
 0001:00014f60       _D6System7_Struct11ArgIterator11ArgIterator14GetNextArgTypeMFZC6System17RuntimeTypeHandle 0000000140015f60 f i Framework.exe.obj
 0001:00015010       _D6System7_Struct11ArgIterator11ArgIterator11GetHashCodeMFZi 0000000140016010 f i Framework.exe.obj
 0001:00015070       _D6System7_Struct11ArgIterator11ArgIterator6EqualsMFC6ObjectZb 0000000140016070 f i Framework.exe.obj
 0001:00015140       _D6System6_Class22ConsoleCancelEventArgs22ConsoleCancelEventArgs6CancelMFNdZb 0000000140016140 f i Framework.exe.obj
 0001:000151a0       _D6System6_Class22ConsoleCancelEventArgs22ConsoleCancelEventArgs6CancelMFNdbZv 00000001400161a0 f i Framework.exe.obj
 0001:00015200       _D6System6_Class22ConsoleCancelEventArgs22ConsoleCancelEventArgs10SpecialKeyMFNdZE6System5_Enum17ConsoleSpecialKey17ConsoleSpecialKey 0000000140016200 f i Framework.exe.obj
 0001:00015260       _D6System6_Class22ConsoleCancelEventArgs22ConsoleCancelEventArgs6__ctorMFE6System5_Enum17ConsoleSpecialKey17ConsoleSpecialKeyZC6System6_Class22ConsoleCancelEventArgs22ConsoleCancelEventArgs 0000000140016260 f i Framework.exe.obj
 0001:000152a0       _D6System6_Class22ConsoleCancelEventArgs15__unittestL31_3FZv 00000001400162a0 f i Framework.exe.obj
 0001:00015360       _D6System6_Class22ConsoleCancelEventArgs9__modtestFZv 0000000140016360 f i Framework.exe.obj
 0001:00015380       _D6System6_Class22ConsoleCancelEventArgs15__unittest_failFiZv 0000000140016380 f i Framework.exe.obj
 0001:000153b0       _D6System9_Delegate12EventHandler7__arrayZ 00000001400163b0 f i Framework.exe.obj
 0001:000153d0       _D6System9_Delegate12EventHandler8__assertFiZv 00000001400163d0 f i Framework.exe.obj
 0001:000153f0       _D6System9_Delegate12EventHandler15__unittest_failFiZv 00000001400163f0 f i Framework.exe.obj
 0001:00015420       _D6System9_Delegate6Action7__arrayZ 0000000140016420 f i Framework.exe.obj
 0001:00015440       _D6System9_Delegate6Action8__assertFiZv 0000000140016440 f i Framework.exe.obj
 0001:00015460       _D6System9_Delegate6Action15__unittest_failFiZv 0000000140016460 f i Framework.exe.obj
 0001:00015490       _D6System10_Interface11IComparable7__arrayZ 0000000140016490 f i Framework.exe.obj
 0001:000154b0       _D6System10_Interface11IComparable8__assertFiZv 00000001400164b0 f i Framework.exe.obj
 0001:000154d0       _D6System10_Interface11IComparable15__unittest_failFiZv 00000001400164d0 f i Framework.exe.obj
 0001:00015500       _D6System6_Class9EventArgs9EventArgs6__ctorMFZC6System6_Class9EventArgs9EventArgs 0000000140016500 f i Framework.exe.obj
 0001:00015510       _D6System6_Class9Exception13BaseException7HResultMFNdZi 0000000140016510 f i Framework.exe.obj
 0001:00015570       _D6System6_Class9Exception13BaseException6__ctorMFZC6System6_Class9Exception13BaseException 0000000140016570 f i Framework.exe.obj
 0001:00015600       _D6System6_Class9Exception13BaseException6__ctorMFAyaZC6System6_Class9Exception13BaseException 0000000140016600 f i Framework.exe.obj
 0001:00015680       _D6System6_Class9Exception13BaseException6__ctorMFAyaC9ExceptionZC6System6_Class9Exception13BaseException 0000000140016680 f i Framework.exe.obj
 0001:00015710       _D6System6_Class9Exception13BaseException6__ctorMFC6System17SerializationInfoS6System16StreamingContextZC6System6_Class9Exception13BaseException 0000000140016710 f i Framework.exe.obj
 0001:000157a0       _D6System6_Class9Exception13BaseException12SetErrorCodeMFiZv 00000001400167a0 f i Framework.exe.obj
 0001:00015800       _D6System6_Class15SystemException15SystemException6__ctorMFZC6System6_Class15SystemException15SystemException 0000000140016800 f i Framework.exe.obj
 0001:00015890       _D6System6_Class15SystemException15SystemException6__ctorMFAyaZC6System6_Class15SystemException15SystemException 0000000140016890 f i Framework.exe.obj
 0001:00015900       _D6System6_Class15SystemException15SystemException6__ctorMFAyaC9ExceptionZC6System6_Class15SystemException15SystemException 0000000140016900 f i Framework.exe.obj
 0001:00015970       _D6System6_Class15SystemException15SystemException6__ctorMFC6System17SerializationInfoS6System16StreamingContextZC6System6_Class15SystemException15SystemException 0000000140016970 f i Framework.exe.obj
 0001:000159d0       _D6System10_Interface9IProgress7__arrayZ 00000001400169d0 f i Framework.exe.obj
 0001:000159f0       _D6System10_Interface9IProgress8__assertFiZv 00000001400169f0 f i Framework.exe.obj
 0001:00015a10       _D6System10_Interface9IProgress15__unittest_failFiZv 0000000140016a10 f i Framework.exe.obj
 0001:00015a40       _D6System7_Struct21RuntimeArgumentHandle21RuntimeArgumentHandle5ValueMFNdZS6System6IntPtr 0000000140016a40 f i Framework.exe.obj
 0001:00015aa0       _D6System10_Interface9IObserver7__arrayZ 0000000140016aa0 f i Framework.exe.obj
 0001:00015ac0       _D6System10_Interface9IObserver8__assertFiZv 0000000140016ac0 f i Framework.exe.obj
 0001:00015ae0       _D6System10_Interface9IObserver15__unittest_failFiZv 0000000140016ae0 f i Framework.exe.obj
 0001:00015b10       _D6System6_Class24AccessViolationException24AccessViolationException6__ctorMFZC6System6_Class24AccessViolationException24AccessViolationException 0000000140016b10 f i Framework.exe.obj
 0001:00015ba0       _D6System6_Class24AccessViolationException24AccessViolationException6__ctorMFAyaZC6System6_Class24AccessViolationException24AccessViolationException 0000000140016ba0 f i Framework.exe.obj
 0001:00015c10       _D6System6_Class24AccessViolationException24AccessViolationException6__ctorMFAyaC9ExceptionZC6System6_Class24AccessViolationException24AccessViolationException 0000000140016c10 f i Framework.exe.obj
 0001:00015c80       _D6System6_Class24AccessViolationException24AccessViolationException6__ctorMFC6System17SerializationInfoS6System16StreamingContextZC6System6_Class24AccessViolationException24AccessViolationException 0000000140016c80 f i Framework.exe.obj
 0001:00015ce0       _D6System27UnhandledExceptionEventArgs6__ctorMFZC6System27UnhandledExceptionEventArgs 0000000140016ce0 f i Framework.exe.obj
 0001:00015d10       _D6System21AssemblyLoadEventArgs6__ctorMFZC6System21AssemblyLoadEventArgs 0000000140016d10 f i Framework.exe.obj
 0001:00015d40       _D6System17RuntimeTypeHandle14GetRuntimeTypeMFZC6System11RuntimeType 0000000140016d40 f i Framework.exe.obj
 0001:00015da0       _D6System17RuntimeTypeHandle6__ctorMFZC6System17RuntimeTypeHandle 0000000140016da0 f i Framework.exe.obj
 0001:00015db0       _D6System17RuntimeTypeHandle6__ctorMFC6System11RuntimeTypeZC6System17RuntimeTypeHandle 0000000140016db0 f i Framework.exe.obj
 0001:00015dc0       _D6System21ArgumentNullException6__ctorMFZC6System21ArgumentNullException 0000000140016dc0 f i Framework.exe.obj
 0001:00015e50       _D6System17ArgumentException6__ctorMFAyaZC6System17ArgumentException 0000000140016e50 f i Framework.exe.obj
 0001:00015ed0       _D6System17ArgumentException6__ctorMFZC6System17ArgumentException 0000000140016ed0 f i Framework.exe.obj
 0001:00015f60       _D6System21NotSupportedException6__ctorMFZC6System21NotSupportedException 0000000140016f60 f i Framework.exe.obj
 0001:00015ff0       _D6System21NotSupportedException6__ctorMFAyaZC6System21NotSupportedException 0000000140016ff0 f i Framework.exe.obj
 0001:00016070       _D6System9ValueType16GetHashCodeOfPtrFS6System6IntPtrZi 0000000140017070 f i Framework.exe.obj
 0001:00016080       _D6System11Environment17GetResourceStringFAyaZAya 0000000140017080 f i Framework.exe.obj
 0001:00016090       _D6System10_Interface10IEquatable7__arrayZ 0000000140017090 f i Framework.exe.obj
 0001:000160b0       _D6System10_Interface10IEquatable8__assertFiZv 00000001400170b0 f i Framework.exe.obj
 0001:000160d0       _D6System10_Interface10IEquatable15__unittest_failFiZv 00000001400170d0 f i Framework.exe.obj
 0001:00016100       _D6System10_Interface11IObservable7__arrayZ 0000000140017100 f i Framework.exe.obj
 0001:00016120       _D6System10_Interface11IObservable8__assertFiZv 0000000140017120 f i Framework.exe.obj
 0001:00016140       _D6System10_Interface11IObservable15__unittest_failFiZv 0000000140017140 f i Framework.exe.obj
 0001:00016170       _D6object9Exception6__ctorMFNaNbNfAyaAyamC6object9ThrowableZC9Exception 0000000140017170 f i druntime64:object__1f_3af.obj
 0001:000161c0       _D6object9Exception6__ctorMFNaNbNfAyaC6object9ThrowableAyamZC9Exception 00000001400171c0 f i druntime64:object__1f_3af.obj
 0001:00016210       _d_arraysetcapacity        0000000140017210 f i druntime64:lifetime_4a7_7db.obj
 0001:00016950       _D4core6memory2GC6enableFNbZv 0000000140017950 f i druntime64:memory_e1_8a.obj
 0001:00016970       _D4core6memory2GC7disableFNbZv 0000000140017970 f i druntime64:memory_e1_8a.obj
 0001:00016990       _D4core6memory2GC7collectFNbZv 0000000140017990 f i druntime64:memory_e1_8a.obj
 0001:000169b0       _D4core6memory2GC8minimizeFNbZv 00000001400179b0 f i druntime64:memory_e1_8a.obj
 0001:000169d0       _D4core6memory2GC7getAttrFNbxPvZk 00000001400179d0 f i druntime64:memory_e1_8a.obj
 0001:000169e0       _D4core6memory2GC7getAttrFNaNbPvZk 00000001400179e0 f i druntime64:memory_e1_8a.obj
 0001:00016a00       _D4core6memory2GC7setAttrFNbxPvkZk 0000000140017a00 f i druntime64:memory_e1_8a.obj
 0001:00016a10       _D4core6memory2GC7setAttrFNaNbPvkZk 0000000140017a10 f i druntime64:memory_e1_8a.obj
 0001:00016a30       _D4core6memory2GC7clrAttrFNbxPvkZk 0000000140017a30 f i druntime64:memory_e1_8a.obj
 0001:00016a40       _D4core6memory2GC7clrAttrFNaNbPvkZk 0000000140017a40 f i druntime64:memory_e1_8a.obj
 0001:00016a60       _D4core6memory2GC6mallocFNaNbmkZPv 0000000140017a60 f i druntime64:memory_e1_8a.obj
 0001:00016a80       _D4core6memory2GC6qallocFNaNbmkZS4core6memory8BlkInfo_ 0000000140017a80 f i druntime64:memory_e1_8a.obj
 0001:00016ad0       _D4core6memory2GC6callocFNaNbmkZPv 0000000140017ad0 f i druntime64:memory_e1_8a.obj
 0001:00016af0       _D4core6memory2GC7reallocFNaNbPvmkZPv 0000000140017af0 f i druntime64:memory_e1_8a.obj
 0001:00016b10       _D4core6memory2GC6extendFNaNbPvmmZm 0000000140017b10 f i druntime64:memory_e1_8a.obj
 0001:00016b30       _D4core6memory2GC7reserveFNbmZm 0000000140017b30 f i druntime64:memory_e1_8a.obj
 0001:00016b50       _D4core6memory2GC4freeFNaNbPvZv 0000000140017b50 f i druntime64:memory_e1_8a.obj
 0001:00016b70       _D4core6memory2GC6addrOfFNbPNgvZPNgv 0000000140017b70 f i druntime64:memory_e1_8a.obj
 0001:00016b90       _D4core6memory2GC6addrOfFNaNbPvZPv 0000000140017b90 f i druntime64:memory_e1_8a.obj
 0001:00016bb0       _D4core6memory2GC6sizeOfFNbxPvZm 0000000140017bb0 f i druntime64:memory_e1_8a.obj
 0001:00016bd0       _D4core6memory2GC6sizeOfFNaNbPvZm 0000000140017bd0 f i druntime64:memory_e1_8a.obj
 0001:00016bf0       _D4core6memory2GC5queryFNbxPvZS4core6memory8BlkInfo_ 0000000140017bf0 f i druntime64:memory_e1_8a.obj
 0001:00016c30       _D4core6memory2GC5queryFNaNbPvZS4core6memory8BlkInfo_ 0000000140017c30 f i druntime64:memory_e1_8a.obj
 0001:00016c70       _D4core6memory2GC7addRootFNbxPvZv 0000000140017c70 f i druntime64:memory_e1_8a.obj
 0001:00016c90       _D4core6memory2GC10removeRootFNbxPvZv 0000000140017c90 f i druntime64:memory_e1_8a.obj
 0001:00016cb0       _D4core6memory2GC8addRangeFNbxPvmZv 0000000140017cb0 f i druntime64:memory_e1_8a.obj
 0001:00016cd0       _D4core6memory2GC11removeRangeFNbxPvZv 0000000140017cd0 f i druntime64:memory_e1_8a.obj
 0001:00016cf0       _D2rt8typeinfo7ti_uint10TypeInfo_k8toStringMxFNaNbNeZAya 0000000140017cf0 f i druntime64:ti_uint_5cb_3f8.obj
 0001:00016d10       _D2rt8typeinfo7ti_uint10TypeInfo_k7getHashMxFNaNbNexPvZm 0000000140017d10 f i druntime64:ti_uint_5cb_3f8.obj
 0001:00016d20       _D2rt8typeinfo7ti_uint10TypeInfo_k6equalsMxFNaNbNexPvxPvZb 0000000140017d20 f i druntime64:ti_uint_5cb_3f8.obj
 0001:00016d40       _D2rt8typeinfo7ti_uint10TypeInfo_k7compareMxFNaNbNexPvxPvZi 0000000140017d40 f i druntime64:ti_uint_5cb_3f8.obj
 0001:00016d70       _D2rt8typeinfo7ti_uint10TypeInfo_k5tsizeMxFNaNbNdNeZm 0000000140017d70 f i druntime64:ti_uint_5cb_3f8.obj
 0001:00016d80       _D2rt8typeinfo7ti_uint10TypeInfo_k4swapMxFNaNbNePvPvZv 0000000140017d80 f i druntime64:ti_uint_5cb_3f8.obj
 0001:00016d90       _D6object8opEqualsFxC6ObjectxC6ObjectZb 0000000140017d90 f i druntime64:object__2_34a.obj
 0001:00016db0       _d_unittest_msg            0000000140017db0 f i druntime64:exception_d1_648.obj
 0001:00016e10       _D4core9exception11AssertError6__ctorMFNaNbNfAyamZC4core9exception11AssertError 0000000140017e10 f i druntime64:exception_b9_47c.obj
 0001:00016e80       _D4core9exception11AssertError6__ctorMFNaNbNfC6object9ThrowableAyamZC4core9exception11AssertError 0000000140017e80 f i druntime64:exception_b9_47c.obj
 0001:00016ef0       _D4core9exception11AssertError6__ctorMFNaNbNfAyaAyamC6object9ThrowableZC4core9exception11AssertError 0000000140017ef0 f i druntime64:exception_b9_47c.obj
 0001:00016f40       _D6object6Object8ToStringMFZAya 0000000140017f40 f i druntime64:object__1_257.obj
 0001:00016f60       _D6object6Object11GetHashCodeMFZi 0000000140017f60 f i druntime64:object__1_257.obj
 0001:00016f80       _D6object6Object8FinalizeMFZv 0000000140017f80 f i druntime64:object__1_257.obj
 0001:00016f90       _D6object6Object15MemberwiseCloneMFZC6Object 0000000140017f90 f i druntime64:object__1_257.obj
 0001:00017060       _D6object6Object6EqualsMFC6ObjectZb 0000000140018060 f i druntime64:object__1_257.obj
 0001:00017070       _D6object6Object15ReferenceEqualsFC6ObjectC6ObjectZb 0000000140018070 f i druntime64:object__1_257.obj
 0001:00017080       _D6object6Object6EqualsFC6ObjectC6ObjectZb 0000000140018080 f i druntime64:object__1_257.obj
 0001:000170d0       _D6object6Object8toStringMFZAya 00000001400180d0 f i druntime64:object__1_257.obj
 0001:000170f0       _D6object6Object6toHashMFNbNeZm 00000001400180f0 f i druntime64:object__1_257.obj
 0001:00017100       _D6object6Object5opCmpMFC6ObjectZi 0000000140018100 f i druntime64:object__1_257.obj
 0001:000171b0       _D6object6Object8opEqualsMFC6ObjectZb 00000001400181b0 f i druntime64:object__1_257.obj
 0001:000171c0       _D6object6Object7factoryFAyaZC6Object 00000001400181c0 f i druntime64:object__1_257.obj
 0001:00017220       _d_newitemT                0000000140018220 f i druntime64:lifetime_4ac_46f.obj
 0001:000172f0       _d_assertm                 00000001400182f0 f i druntime64:exception_cd_421.obj
 0001:00017340       _adDupT                    0000000140018340 f i druntime64:lifetime_4c5_2a1.obj
 0001:000174f0       _D6object9Throwable6__ctorMFNaNbNfAyaC6object9ThrowableZC6object9Throwable 00000001400184f0 f i druntime64:object__1b_3a8.obj
 0001:00017520       _D6object9Throwable6__ctorMFNaNbNfAyaAyamC6object9ThrowableZC6object9Throwable 0000000140018520 f i druntime64:object__1b_3a8.obj
 0001:00017560       _D6object9Throwable8toStringMFZAya 0000000140018560 f i druntime64:object__1b_3a8.obj
 0001:000175c0       _D6object9Throwable8toStringMFZAya18__T9__lambda1TxAaZ9__lambda1MFNbNfxAaZv 00000001400185c0 f i druntime64:object__1b_3a8.obj
 0001:000175f0       _D6object9Throwable8toStringMxFMDFxAaZvZv 00000001400185f0 f i druntime64:object__1b_3a8.obj
 0001:00017870       _D6object9Throwable8toStringMxFMDFxAaZvZv14__foreachbody2MFKxAaZi 0000000140018870 f i druntime64:object__1b_3a8.obj
 0001:00017900       _d_arraycopy               0000000140018900 f i druntime64:arraycat_3ca_4fc.obj
 0001:000179e0       _D2rt8typeinfo5ti_Ag12TypeInfo_Aya8toStringMxFZAya 00000001400189e0 f i druntime64:ti_Ag_584_4a8.obj
 0001:00017a00       _D2rt8typeinfo5ti_Ag12TypeInfo_Aya4nextMNgFNaNbNdZNgC8TypeInfo 0000000140018a00 f i druntime64:ti_Ag_584_4a8.obj
 0001:00017a10       _D4core9exception10RangeError6__ctorMFNaNbNfAyamC6object9ThrowableZC4core9exception10RangeError 0000000140018a10 f i druntime64:exception_b8_3f7.obj
 0001:00017a60       _D6object18TypeInfo_Interface8toStringMxFZAya 0000000140018a60 f i druntime64:object__11_71e.obj
 0001:00017a80       _D6object18TypeInfo_Interface8opEqualsMFC6ObjectZb 0000000140018a80 f i druntime64:object__11_71e.obj
 0001:00017b10       _D6object18TypeInfo_Interface7getHashMxFNbNexPvZm 0000000140018b10 f i druntime64:object__11_71e.obj
 0001:00017b40       _D6object18TypeInfo_Interface6equalsMxFxPvxPvZb 0000000140018b40 f i druntime64:object__11_71e.obj
 0001:00017bc0       _D6object18TypeInfo_Interface7compareMxFxPvxPvZi 0000000140018bc0 f i druntime64:object__11_71e.obj
 0001:00017c40       _D6object18TypeInfo_Interface5tsizeMxFNaNbNdNfZm 0000000140018c40 f i druntime64:object__11_71e.obj
 0001:00017c50       _D6object18TypeInfo_Interface5flagsMxFNaNbNdNfZk 0000000140018c50 f i druntime64:object__11_71e.obj
 0001:00017c60       _D2rt8typeinfo7ti_void10TypeInfo_v8toStringMxFNaNbNeZAya 0000000140018c60 f i druntime64:ti_void_5d1_403.obj
 0001:00017c80       _D2rt8typeinfo7ti_void10TypeInfo_v7getHashMxFNaNbNexPvZm 0000000140018c80 f i druntime64:ti_void_5d1_403.obj
 0001:00017c90       _D2rt8typeinfo7ti_void10TypeInfo_v6equalsMxFNaNbNexPvxPvZb 0000000140018c90 f i druntime64:ti_void_5d1_403.obj
 0001:00017cb0       _D2rt8typeinfo7ti_void10TypeInfo_v7compareMxFNaNbNexPvxPvZi 0000000140018cb0 f i druntime64:ti_void_5d1_403.obj
 0001:00017cd0       _D2rt8typeinfo7ti_void10TypeInfo_v5tsizeMxFNaNbNdNeZm 0000000140018cd0 f i druntime64:ti_void_5d1_403.obj
 0001:00017ce0       _D2rt8typeinfo7ti_void10TypeInfo_v4swapMxFNaNbNePvPvZv 0000000140018ce0 f i druntime64:ti_void_5d1_403.obj
 0001:00017cf0       _D2rt8typeinfo7ti_void10TypeInfo_v5flagsMxFNaNbNdNeZk 0000000140018cf0 f i druntime64:ti_void_5d1_403.obj
 0001:00017d00       _D2rt8typeinfo5ti_Ag11TypeInfo_Aa8toStringMxFZAya 0000000140018d00 f i druntime64:ti_Ag_583_42f.obj
 0001:00017d20       _D2rt8typeinfo5ti_Ag11TypeInfo_Aa7getHashMxFNbNexPvZm 0000000140018d20 f i druntime64:ti_Ag_583_42f.obj
 0001:00017d70       _D2rt8typeinfo5ti_Ag11TypeInfo_Aa4nextMNgFNaNbNdZNgC8TypeInfo 0000000140018d70 f i druntime64:ti_Ag_583_42f.obj
 0001:00017d80       _D6object15TypeInfo_Struct8toStringMxFZAya 0000000140018d80 f i druntime64:object__12_612.obj
 0001:00017d90       _D6object15TypeInfo_Struct8opEqualsMFC6ObjectZb 0000000140018d90 f i druntime64:object__12_612.obj
 0001:00017e60       _D6object15TypeInfo_Struct7getHashMxFNaNbNfxPvZm 0000000140018e60 f i druntime64:object__12_612.obj
 0001:00017ec0       _D6object15TypeInfo_Struct6equalsMxFNaNbNexPvxPvZb 0000000140018ec0 f i druntime64:object__12_612.obj
 0001:00017f60       _D6object15TypeInfo_Struct7compareMxFNaNbNexPvxPvZi 0000000140018f60 f i druntime64:object__12_612.obj
 0001:00017ff0       _D6object15TypeInfo_Struct5tsizeMxFNaNbNdNfZm 0000000140018ff0 f i druntime64:object__12_612.obj
 0001:00018010       _D6object15TypeInfo_Struct4initMxFNaNbNfZAxv 0000000140019010 f i druntime64:object__12_612.obj
 0001:00018020       _D6object15TypeInfo_Struct5flagsMxFNaNbNdNfZk 0000000140019020 f i druntime64:object__12_612.obj
 0001:00018030       _D6object15TypeInfo_Struct6talignMxFNaNbNdNfZm 0000000140019030 f i druntime64:object__12_612.obj
 0001:00018040       _D6object15TypeInfo_Struct7destroyMxFPvZv 0000000140019040 f i druntime64:object__12_612.obj
 0001:00018060       _D6object15TypeInfo_Struct8postblitMxFPvZv 0000000140019060 f i druntime64:object__12_612.obj
 0001:00018080       _D6object15TypeInfo_Struct6rtInfoMxFNaNbNdNfZPyv 0000000140019080 f i druntime64:object__12_612.obj
 0001:00018090       _D6object15TypeInfo_Struct8argTypesMFNbNfJC8TypeInfoJC8TypeInfoZi 0000000140019090 f i druntime64:object__12_612.obj
 0001:000180c0       _d_arraycatnT              00000001400190c0 f i druntime64:lifetime_4c1_53b.obj
 0001:000182f0       _D2rt8typeinfo6ti_int10TypeInfo_i8toStringMxFNaNbNeZAya 00000001400192f0 f i druntime64:ti_int_5bb_3f6.obj
 0001:00018310       _D2rt8typeinfo6ti_int10TypeInfo_i7getHashMxFNaNbNexPvZm 0000000140019310 f i druntime64:ti_int_5bb_3f6.obj
 0001:00018320       _D2rt8typeinfo6ti_int10TypeInfo_i6equalsMxFNaNbNexPvxPvZb 0000000140019320 f i druntime64:ti_int_5bb_3f6.obj
 0001:00018340       _D2rt8typeinfo6ti_int10TypeInfo_i7compareMxFNaNbNexPvxPvZi 0000000140019340 f i druntime64:ti_int_5bb_3f6.obj
 0001:00018370       _D2rt8typeinfo6ti_int10TypeInfo_i5tsizeMxFNaNbNdNeZm 0000000140019370 f i druntime64:ti_int_5bb_3f6.obj
 0001:00018380       _D2rt8typeinfo6ti_int10TypeInfo_i4swapMxFNaNbNePvPvZv 0000000140019380 f i druntime64:ti_int_5bb_3f6.obj
 0001:00018390       _d_dynamic_cast            0000000140019390 f i druntime64:cast__44d_611.obj
 0001:000183e0       _D6object14TypeInfo_Class8toStringMxFZAya 00000001400193e0 f i druntime64:object__10_583.obj
 0001:00018400       _D6object14TypeInfo_Class8opEqualsMFC6ObjectZb 0000000140019400 f i druntime64:object__10_583.obj
 0001:000184d0       _D6object14TypeInfo_Class7getHashMxFNbNexPvZm 00000001400194d0 f i druntime64:object__10_583.obj
 0001:00018500       _D6object14TypeInfo_Class6equalsMxFxPvxPvZb 0000000140019500 f i druntime64:object__10_583.obj
 0001:00018540       _D6object14TypeInfo_Class7compareMxFxPvxPvZi 0000000140019540 f i druntime64:object__10_583.obj
 0001:000185a0       _D6object14TypeInfo_Class5tsizeMxFNaNbNdNfZm 00000001400195a0 f i druntime64:object__10_583.obj
 0001:000185b0       _D6object14TypeInfo_Class5flagsMxFNaNbNdNfZk 00000001400195b0 f i druntime64:object__10_583.obj
 0001:000185c0       _D6object14TypeInfo_Class5offTiMxFNaNbNdZAxS6object14OffsetTypeInfo 00000001400195c0 f i druntime64:object__10_583.obj
 0001:000185e0       _D6object14TypeInfo_Class4infoMxFNaNbNdNfZxC14TypeInfo_Class 00000001400195e0 f i druntime64:object__10_583.obj
 0001:000185f0       _D6object14TypeInfo_Class8typeinfoMxFNaNbNdNfZxC14TypeInfo_Class 00000001400195f0 f i druntime64:object__10_583.obj
 0001:00018600       _D6object14TypeInfo_Class6rtInfoMxFNaNbNdNfZPyv 0000000140019600 f i druntime64:object__10_583.obj
 0001:00018610       _D6object14TypeInfo_Class4findFxAaZxC14TypeInfo_Class 0000000140019610 f i druntime64:object__10_583.obj
 0001:00018660       _D6object14TypeInfo_Class4findFxAaZxC14TypeInfo_Class14__foreachbody2MFKPS6object10ModuleInfoZi 0000000140019660 f i druntime64:object__10_583.obj
 0001:00018700       _D6object14TypeInfo_Class6createMxFZC6Object 0000000140019700 f i druntime64:object__10_583.obj
 0001:00018780       _D2rt8typeinfo7ti_byte10TypeInfo_g8toStringMxFNaNbNeZAya 0000000140019780 f i druntime64:ti_byte_5a3_3f4.obj
 0001:000187a0       _D2rt8typeinfo7ti_byte10TypeInfo_g7getHashMxFNaNbNexPvZm 00000001400197a0 f i druntime64:ti_byte_5a3_3f4.obj
 0001:000187b0       _D2rt8typeinfo7ti_byte10TypeInfo_g6equalsMxFNaNbNexPvxPvZb 00000001400197b0 f i druntime64:ti_byte_5a3_3f4.obj
 0001:000187d0       _D2rt8typeinfo7ti_byte10TypeInfo_g7compareMxFNaNbNexPvxPvZi 00000001400197d0 f i druntime64:ti_byte_5a3_3f4.obj
 0001:000187f0       _D2rt8typeinfo7ti_byte10TypeInfo_g5tsizeMxFNaNbNdNeZm 00000001400197f0 f i druntime64:ti_byte_5a3_3f4.obj
 0001:00018800       _D2rt8typeinfo7ti_byte10TypeInfo_g4swapMxFNaNbNePvPvZv 0000000140019800 f i druntime64:ti_byte_5a3_3f4.obj
 0001:00018810       _D9invariant12_d_invariantFC6ObjectZv 0000000140019810 f i druntime64:invariant_497_4ee.obj
 0001:00018860       _d_array_bounds            0000000140019860 f i druntime64:exception_d3_62b.obj
 0001:000188b0       _d_unittestm               00000001400198b0 f i druntime64:exception_d0_50f.obj
 0001:00018920       _d_assert_msg              0000000140019920 f i druntime64:exception_ce_55a.obj
 0001:00018980       _d_run_main                0000000140019980 f i druntime64:dmain2_491_47b.obj
 0001:00018df0       _D2rt6dmain211_d_run_mainUiPPaPUAAaZiZi7tryExecMFMDFZvZv 0000000140019df0 f i druntime64:dmain2_491_47b.obj
 0001:00018e70       _D2rt6dmain211_d_run_mainUiPPaPUAAaZiZi6runAllMFZv 0000000140019e70 f i druntime64:dmain2_491_47b.obj
 0001:00018f00       _D2rt6dmain211_d_run_mainUiPPaPUAAaZiZi6runAllMFZv9__lambda1MFZv 0000000140019f00 f i druntime64:dmain2_491_47b.obj
 0001:00018f40       _d_newclass                0000000140019f40 f i druntime64:lifetime_49a_482.obj
 0001:00018ff0       _d_throwc                  0000000140019ff0 f i druntime64:deh_win64_posix_47a_3b9.obj
 0001:000195b0       _d_arrayappendT            000000014001a5b0 f i druntime64:lifetime_4ba_60d.obj
 0001:00019690       _D2rt8typeinfo5ti_Ag12TypeInfo_Axa8toStringMxFZAya 000000014001a690 f i druntime64:ti_Ag_585_4a7.obj
 0001:000196b0       _D2rt8typeinfo5ti_Ag12TypeInfo_Axa4nextMNgFNaNbNdZNgC8TypeInfo 000000014001a6b0 f i druntime64:ti_Ag_585_4a7.obj
 0001:000196c0       _d_arraycatT               000000014001a6c0 f i druntime64:lifetime_4c0_4cd.obj
 0001:000198b0       _D6object16TypeInfo_Pointer8toStringMxFZAya 000000014001a8b0 f i druntime64:object__9_66e.obj
 0001:00019900       _D6object16TypeInfo_Pointer8opEqualsMFC6ObjectZb 000000014001a900 f i druntime64:object__9_66e.obj
 0001:00019980       _D6object16TypeInfo_Pointer7getHashMxFNbNexPvZm 000000014001a980 f i druntime64:object__9_66e.obj
 0001:00019990       _D6object16TypeInfo_Pointer6equalsMxFxPvxPvZb 000000014001a990 f i druntime64:object__9_66e.obj
 0001:000199b0       _D6object16TypeInfo_Pointer7compareMxFxPvxPvZi 000000014001a9b0 f i druntime64:object__9_66e.obj
 0001:000199e0       _D6object16TypeInfo_Pointer5tsizeMxFNaNbNdNfZm 000000014001a9e0 f i druntime64:object__9_66e.obj
 0001:000199f0       _D6object16TypeInfo_Pointer4swapMxFPvPvZv 000000014001a9f0 f i druntime64:object__9_66e.obj
 0001:00019a10       _D6object16TypeInfo_Pointer4nextMNgFNaNbNdZNgC8TypeInfo 000000014001aa10 f i druntime64:object__9_66e.obj
 0001:00019a20       _D6object16TypeInfo_Pointer5flagsMxFNaNbNdNfZk 000000014001aa20 f i druntime64:object__9_66e.obj
 0001:00019a30       _D6object16TypeInfo_Typedef8toStringMxFZAya 000000014001aa30 f i druntime64:object__7_65e.obj
 0001:00019a40       _D6object16TypeInfo_Typedef8opEqualsMFC6ObjectZb 000000014001aa40 f i druntime64:object__7_65e.obj
 0001:00019b00       _D6object16TypeInfo_Typedef7getHashMxFNbNfxPvZm 000000014001ab00 f i druntime64:object__7_65e.obj
 0001:00019b20       _D6object16TypeInfo_Typedef6equalsMxFxPvxPvZb 000000014001ab20 f i druntime64:object__7_65e.obj
 0001:00019b40       _D6object16TypeInfo_Typedef7compareMxFxPvxPvZi 000000014001ab40 f i druntime64:object__7_65e.obj
 0001:00019b60       _D6object16TypeInfo_Typedef5tsizeMxFNaNbNdNfZm 000000014001ab60 f i druntime64:object__7_65e.obj
 0001:00019b80       _D6object16TypeInfo_Typedef4swapMxFPvPvZv 000000014001ab80 f i druntime64:object__7_65e.obj
 0001:00019ba0       _D6object16TypeInfo_Typedef4nextMNgFNaNbNdZNgC8TypeInfo 000000014001aba0 f i druntime64:object__7_65e.obj
 0001:00019bc0       _D6object16TypeInfo_Typedef5flagsMxFNaNbNdNfZk 000000014001abc0 f i druntime64:object__7_65e.obj
 0001:00019be0       _D6object16TypeInfo_Typedef4initMxFNaNbNfZAxv 000000014001abe0 f i druntime64:object__7_65e.obj
 0001:00019c20       _D6object16TypeInfo_Typedef6talignMxFNaNbNdNfZm 000000014001ac20 f i druntime64:object__7_65e.obj
 0001:00019c40       _D6object16TypeInfo_Typedef8argTypesMFNbNfJC8TypeInfoJC8TypeInfoZi 000000014001ac40 f i druntime64:object__7_65e.obj
 0001:00019c70       _D6object16TypeInfo_Typedef6rtInfoMxFNaNbNdNfZPyv 000000014001ac70 f i druntime64:object__7_65e.obj
 0001:00019c90       _D6object8TypeInfo8toStringMxFZAya 000000014001ac90 f i druntime64:object__6_32e.obj
 0001:00019cb0       _D6object8TypeInfo6toHashMxFNbNeZm 000000014001acb0 f i druntime64:object__6_32e.obj
 0001:00019d20       _D6object8TypeInfo5opCmpMFC6ObjectZi 000000014001ad20 f i druntime64:object__6_32e.obj
 0001:00019dd0       _D6object8TypeInfo8opEqualsMFC6ObjectZb 000000014001add0 f i druntime64:object__6_32e.obj
 0001:00019e90       _D6object8TypeInfo7getHashMxFNbNexPvZm 000000014001ae90 f i druntime64:object__6_32e.obj
 0001:00019ea0       _D6object8TypeInfo6equalsMxFxPvxPvZb 000000014001aea0 f i druntime64:object__6_32e.obj
 0001:00019eb0       _D6object8TypeInfo7compareMxFxPvxPvZi 000000014001aeb0 f i druntime64:object__6_32e.obj
 0001:00019ec0       _D6object8TypeInfo5tsizeMxFNaNbNdNfZm 000000014001aec0 f i druntime64:object__6_32e.obj
 0001:00019ed0       _D6object8TypeInfo4swapMxFPvPvZv 000000014001aed0 f i druntime64:object__6_32e.obj
 0001:00019f20       _D6object8TypeInfo4nextMNgFNaNbNdZNgC8TypeInfo 000000014001af20 f i druntime64:object__6_32e.obj
 0001:00019f30       _D6object8TypeInfo4initMxFNaNbNfZAxv 000000014001af30 f i druntime64:object__6_32e.obj
 0001:00019f40       _D6object8TypeInfo5flagsMxFNaNbNdNfZk 000000014001af40 f i druntime64:object__6_32e.obj
 0001:00019f50       _D6object8TypeInfo5offTiMxFZAxS6object14OffsetTypeInfo 000000014001af50 f i druntime64:object__6_32e.obj
 0001:00019f60       _D6object8TypeInfo7destroyMxFPvZv 000000014001af60 f i druntime64:object__6_32e.obj
 0001:00019f70       _D6object8TypeInfo8postblitMxFPvZv 000000014001af70 f i druntime64:object__6_32e.obj
 0001:00019f80       _D6object8TypeInfo6talignMxFNaNbNdNfZm 000000014001af80 f i druntime64:object__6_32e.obj
 0001:00019fa0       _D6object8TypeInfo8argTypesMFNbNfJC8TypeInfoJC8TypeInfoZi 000000014001afa0 f i druntime64:object__6_32e.obj
 0001:00019fc0       _D6object8TypeInfo6rtInfoMxFNaNbNdNfZPyv 000000014001afc0 f i druntime64:object__6_32e.obj
 0001:00019fd0       _D2rt8lifetime13_staticDtor17FZv 000000014001afd0 f i druntime64:lifetime.obj
 0001:0001a030       _D2rt8lifetime9__moddtorFZv 000000014001b030 f i druntime64:lifetime.obj
 0001:0001a050       _D2rt8lifetime7__arrayZ    000000014001b050 f i druntime64:lifetime.obj
 0001:0001a070       _D2rt8lifetime8__assertFiZv 000000014001b070 f i druntime64:lifetime.obj
 0001:0001a090       _D2rt8lifetime15__unittest_failFiZv 000000014001b090 f i druntime64:lifetime.obj
 0001:0001a0b0       gc_query                   000000014001b0b0 f i druntime64:proxy_353_35f.obj
 0001:0001a140       _D2rt8lifetime21__setArrayAllocLengthFKS2rt8lifetime7BlkInfombmZb 000000014001b140 f i druntime64:lifetime_49e_856.obj
 0001:0001a3b0       _D2rt8lifetime12__doPostblitFPvmxC8TypeInfoZv 000000014001b3b0 f i druntime64:lifetime_4a6_4e2.obj
 0001:0001a4b0       _D2rt8lifetime12__getBlkInfoFNbPvZPS2rt8lifetime7BlkInfo 000000014001b4b0 f i druntime64:lifetime_4a3_4a3.obj
 0001:0001a5f0       gc_extend                  000000014001b5f0 f i druntime64:proxy_34e_3b1.obj
 0001:0001a650       _D6object15TypeInfo_Shared8toStringMxFZAya 000000014001b650 f i druntime64:object__16_5e4.obj
 0001:0001a6b0       gc_qalloc                  000000014001b6b0 f i druntime64:proxy_34b_3a5.obj
 0001:0001a760       onOutOfMemoryError         000000014001b760 f i druntime64:exception_c9_74d.obj
 0001:0001a780       gc_getAttr                 000000014001b780 f i druntime64:proxy_347_404.obj
 0001:0001a7d0       gc_sizeOf                  000000014001b7d0 f i druntime64:proxy_352_399.obj
 0001:0001a820       gc_removeRoot              000000014001b820 f i druntime64:proxy_357_55b.obj
 0001:0001a870       gc_realloc                 000000014001b870 f i druntime64:proxy_34d_40b.obj
 0001:0001a8d0       gc_free                    000000014001b8d0 f i druntime64:proxy_350_2cb.obj
 0001:0001a920       gc_reserve                 000000014001b920 f i druntime64:proxy_34f_425.obj
 0001:0001a970       gc_malloc                  000000014001b970 f i druntime64:proxy_34a_3a1.obj
 0001:0001a9d0       gc_enable                  000000014001b9d0 f i druntime64:proxy_343_390.obj
 0001:0001aa10       gc_removeRange             000000014001ba10 f i druntime64:proxy_358_5a4.obj
 0001:0001aa60       gc_disable                 000000014001ba60 f i druntime64:proxy_344_3fd.obj
 0001:0001aaa0       gc_collect                 000000014001baa0 f i druntime64:proxy_345_40f.obj
 0001:0001aae0       gc_addrOf                  000000014001bae0 f i druntime64:proxy_351_379.obj
 0001:0001ab30       gc_addRange                000000014001bb30 f i druntime64:proxy_356_43f.obj
 0001:0001ab80       gc_minimize                000000014001bb80 f i druntime64:proxy_346_48b.obj
 0001:0001abc0       gc_setAttr                 000000014001bbc0 f i druntime64:proxy_348_410.obj
 0001:0001ac10       gc_addRoot                 000000014001bc10 f i druntime64:proxy_355_3f6.obj
 0001:0001ac60       gc_clrAttr                 000000014001bc60 f i druntime64:proxy_349_405.obj
 0001:0001acb0       gc_calloc                  000000014001bcb0 f i druntime64:proxy_34c_397.obj
 0001:0001ad10       _D6object8opEqualsFC6ObjectC6ObjectZb 000000014001bd10 f i druntime64:object__3_34a.obj
 0001:0001ade0       onAssertErrorMsg           000000014001bde0 f i druntime64:exception_c4_680.obj
 0001:0001aec0       _D6object5Error6__ctorMFNaNbNfAyaC6object9ThrowableZC6object5Error 000000014001bec0 f i druntime64:object__20_20a.obj
 0001:0001af00       _D6object5Error6__ctorMFNaNbNfAyaAyamC6object9ThrowableZC6object5Error 000000014001bf00 f i druntime64:object__20_20a.obj
 0001:0001af50       onAssertError              000000014001bf50 f i druntime64:exception_c3_559.obj
 0001:0001b000       _D6object10ModuleInfo6addrOfMFNaNbiZPv 000000014001c000 f i druntime64:object__21_3f2.obj
 0001:0001b120       _D6object10ModuleInfo5indexMFNaNbNdZk 000000014001c120 f i druntime64:object__21_3f2.obj
 0001:0001b130       _D6object10ModuleInfo5indexMFNaNbNdkZv 000000014001c130 f i druntime64:object__21_3f2.obj
 0001:0001b140       _D6object10ModuleInfo5flagsMFNaNbNdZk 000000014001c140 f i druntime64:object__21_3f2.obj
 0001:0001b150       _D6object10ModuleInfo5flagsMFNaNbNdkZv 000000014001c150 f i druntime64:object__21_3f2.obj
 0001:0001b160       _D6object10ModuleInfo7tlsctorMFNaNbNdZPFZv 000000014001c160 f i druntime64:object__21_3f2.obj
 0001:0001b190       _D6object10ModuleInfo7tlsdtorMFNaNbNdZPFZv 000000014001c190 f i druntime64:object__21_3f2.obj
 0001:0001b1c0       _D6object10ModuleInfo11xgetMembersMFNaNbNdZPv 000000014001c1c0 f i druntime64:object__21_3f2.obj
 0001:0001b1f0       _D6object10ModuleInfo4ctorMFNaNbNdZPFZv 000000014001c1f0 f i druntime64:object__21_3f2.obj
 0001:0001b220       _D6object10ModuleInfo4dtorMFNaNbNdZPFZv 000000014001c220 f i druntime64:object__21_3f2.obj
 0001:0001b250       _D6object10ModuleInfo5ictorMFNaNbNdZPFZv 000000014001c250 f i druntime64:object__21_3f2.obj
 0001:0001b280       _D6object10ModuleInfo8unitTestMFNaNbNdZPFZv 000000014001c280 f i druntime64:object__21_3f2.obj
 0001:0001b2b0       _D6object10ModuleInfo15importedModulesMFNaNbNdZAPS6object10ModuleInfo 000000014001c2b0 f i druntime64:object__21_3f2.obj
 0001:0001b300       _D6object10ModuleInfo12localClassesMFNaNbNdZAC14TypeInfo_Class 000000014001c300 f i druntime64:object__21_3f2.obj
 0001:0001b350       _D6object10ModuleInfo4nameMFNaNbNdZAya 000000014001c350 f i druntime64:object__21_3f2.obj
 0001:0001b390       _D6object10ModuleInfo7opApplyFMDFKPS6object10ModuleInfoZiZi 000000014001c390 f i druntime64:object__21_3f2.obj
 0001:0001b3c0       _D2rt4util6string33__T21_unsignedToTempStringTmVm20Z21_unsignedToTempStringFNaNbNexmKG20aZAa 000000014001c3c0 f i druntime64:string_54f_c72.obj
 0001:0001b440       _D2rt4util5array17_enforceNoOverlapFNbNfxAaxPvxPvxmZv 000000014001c440 f i druntime64:array_544_6d7.obj
 0001:0001b5b0       _D2rt4util5array18_enforceSameLengthFNbNfxAaxmxmZv 000000014001c5b0 f i druntime64:array_543_729.obj
 0001:0001b700       _D2rt8typeinfo5ti_Ag11TypeInfo_Ag8opEqualsMFC6ObjectZb 000000014001c700 f i druntime64:ti_Ag_57f_435.obj
 0001:0001b720       _D2rt8typeinfo5ti_Ag11TypeInfo_Ag8toStringMxFZAya 000000014001c720 f i druntime64:ti_Ag_57f_435.obj
 0001:0001b740       _D2rt8typeinfo5ti_Ag11TypeInfo_Ag7getHashMxFNbNexPvZm 000000014001c740 f i druntime64:ti_Ag_57f_435.obj
 0001:0001b780       _D2rt8typeinfo5ti_Ag11TypeInfo_Ag6equalsMxFxPvxPvZb 000000014001c780 f i druntime64:ti_Ag_57f_435.obj
 0001:0001b7f0       _D2rt8typeinfo5ti_Ag11TypeInfo_Ag7compareMxFxPvxPvZi 000000014001c7f0 f i druntime64:ti_Ag_57f_435.obj
 0001:0001b890       _D2rt8typeinfo5ti_Ag11TypeInfo_Ag4nextMNgFNaNbNdZNgC8TypeInfo 000000014001c890 f i druntime64:ti_Ag_57f_435.obj
 0001:0001b8a0       _D6object14TypeInfo_Array8toStringMxFZAya 000000014001c8a0 f i druntime64:object__a_58c.obj
 0001:0001b8f0       _D6object14TypeInfo_Array8opEqualsMFC6ObjectZb 000000014001c8f0 f i druntime64:object__a_58c.obj
 0001:0001b970       _D6object14TypeInfo_Array7getHashMxFNbNexPvZm 000000014001c970 f i druntime64:object__a_58c.obj
 0001:0001b9d0       _D6object14TypeInfo_Array6equalsMxFxPvxPvZb 000000014001c9d0 f i druntime64:object__a_58c.obj
 0001:0001ba90       _D6object14TypeInfo_Array7compareMxFxPvxPvZi 000000014001ca90 f i druntime64:object__a_58c.obj
 0001:0001bb50       _D6object14TypeInfo_Array5tsizeMxFNaNbNdNfZm 000000014001cb50 f i druntime64:object__a_58c.obj
 0001:0001bb60       _D6object14TypeInfo_Array4swapMxFPvPvZv 000000014001cb60 f i druntime64:object__a_58c.obj
 0001:0001bb90       _D6object14TypeInfo_Array4nextMNgFNaNbNdZNgC8TypeInfo 000000014001cb90 f i druntime64:object__a_58c.obj
 0001:0001bba0       _D6object14TypeInfo_Array5flagsMxFNaNbNdNfZk 000000014001cba0 f i druntime64:object__a_58c.obj
 0001:0001bbb0       _D6object14TypeInfo_Array6talignMxFNaNbNdNfZm 000000014001cbb0 f i druntime64:object__a_58c.obj
 0001:0001bbc0       _D6object14TypeInfo_Array8argTypesMFNbNfJC8TypeInfoJC8TypeInfoZi 000000014001cbc0 f i druntime64:object__a_58c.obj
 0001:0001bbf0       _D2rt8typeinfo5ti_Ag11TypeInfo_Ah8toStringMxFZAya 000000014001cbf0 f i druntime64:ti_Ag_580_436.obj
 0001:0001bc10       _D2rt8typeinfo5ti_Ag11TypeInfo_Ah7compareMxFxPvxPvZi 000000014001cc10 f i druntime64:ti_Ag_580_436.obj
 0001:0001bc70       _D2rt8typeinfo5ti_Ag11TypeInfo_Ah4nextMNgFNaNbNdZNgC8TypeInfo 000000014001cc70 f i druntime64:ti_Ag_580_436.obj
 0001:0001bc80       _D2rt8typeinfo7ti_char10TypeInfo_a8toStringMxFNaNbNeZAya 000000014001cc80 f i druntime64:ti_char_5ab_3ee.obj
 0001:0001bca0       _D2rt8typeinfo7ti_char10TypeInfo_a7getHashMxFNaNbNexPvZm 000000014001cca0 f i druntime64:ti_char_5ab_3ee.obj
 0001:0001bcb0       _D2rt8typeinfo7ti_char10TypeInfo_a6equalsMxFNaNbNexPvxPvZb 000000014001ccb0 f i druntime64:ti_char_5ab_3ee.obj
 0001:0001bcd0       _D2rt8typeinfo7ti_char10TypeInfo_a7compareMxFNaNbNexPvxPvZi 000000014001ccd0 f i druntime64:ti_char_5ab_3ee.obj
 0001:0001bcf0       _D2rt8typeinfo7ti_char10TypeInfo_a5tsizeMxFNaNbNdNeZm 000000014001ccf0 f i druntime64:ti_char_5ab_3ee.obj
 0001:0001bd00       _D2rt8typeinfo7ti_char10TypeInfo_a4swapMxFNaNbNePvPvZv 000000014001cd00 f i druntime64:ti_char_5ab_3ee.obj
 0001:0001bd10       _D2rt8typeinfo7ti_char10TypeInfo_a4initMxFNaNbNeZAxv 000000014001cd10 f i druntime64:ti_char_5ab_3ee.obj
 0001:0001bd30       _D2rt4util4hash6hashOfFNaNbNePxvmmZm 000000014001cd30 f i druntime64:hash_54c_259.obj
 0001:0001bed0       _D2rt4util4hash6hashOfFNaNbNePxvmmZm9get16bitsFNaNbPxhZk 000000014001ced0 f i druntime64:hash_54c_259.obj
 0001:0001bee0       _d_isbaseof2               000000014001cee0 f i druntime64:cast__44e_4a0.obj
 0001:0001c010       _D2rt5minfo17moduleinfos_applyFMDFKPS6object10ModuleInfoZiZi 000000014001d010 f i druntime64:minfo_4e5_72a.obj
 0001:0001c060       _D2rt5minfo17moduleinfos_applyFMDFKPS6object10ModuleInfoZiZi14__foreachbody2MFKS2rt14sections_win6412SectionGroupZi 000000014001d060 f i druntime64:minfo_4e5_72a.obj
 0001:0001c100       onRangeError               000000014001d100 f i druntime64:exception_c6_4d4.obj
 0001:0001c170       __alloca                   000000014001d170 f i druntime64:alloca_3a9_32a.obj
 0001:0001c1e0       rt_term                    000000014001d1e0 f i druntime64:dmain2_48e_2fd.obj
 0001:0001c300       _D2rt6dmain27__arrayZ      000000014001d300 f i druntime64:dmain2.obj
 0001:0001c320       _D2rt6dmain28__assertFiZv  000000014001d320 f i druntime64:dmain2.obj
 0001:0001c340       _D2rt6dmain215__unittest_failFiZv 000000014001d340 f i druntime64:dmain2.obj
 0001:0001c360       _D4core4stdc5stdio7__arrayZ 000000014001d360 f i druntime64:stdio.obj
 0001:0001c380       _D4core4stdc5stdio8__assertFiZv 000000014001d380 f i druntime64:stdio.obj
 0001:0001c3a0       _D4core4stdc5stdio15__unittest_failFiZv 000000014001d3a0 f i druntime64:stdio.obj
 0001:0001c3c0       _D2rt6dmain214printThrowableFC6object9ThrowableZv 000000014001d3c0 f i druntime64:dmain2_493_5d5.obj
 0001:0001c550       _D2rt6dmain214printThrowableFC6object9ThrowableZv5WSink4sinkMFNbxAaZv 000000014001d550 f i druntime64:dmain2_493_5d5.obj
 0001:0001c600       _D2rt6dmain214printThrowableFC6object9ThrowableZv5WSink3getMFZPu 000000014001d600 f i druntime64:dmain2_493_5d5.obj
 0001:0001c620       _D2rt6dmain214printThrowableFC6object9ThrowableZv5WSink4freeMFZv 000000014001d620 f i druntime64:dmain2_493_5d5.obj
 0001:0001c640       _D2rt6dmain214printThrowableFC6object9ThrowableZv4sinkMFNbxAaZv 000000014001d640 f i druntime64:dmain2_493_5d5.obj
 0001:0001c670       runModuleUnitTests         000000014001d670 f i druntime64:runtime_e9_76e.obj
 0001:0001c6e0       _D4core7runtime18runModuleUnitTestsUZb8printErrMFxAaZv 000000014001d6e0 f i druntime64:runtime_e9_76e.obj
 0001:0001c710       _D4core7runtime18runModuleUnitTestsUZb14__foreachbody2MFKPS6object10ModuleInfoZi 000000014001d710 f i druntime64:runtime_e9_76e.obj
 0001:0001c7d0       rt_init                    000000014001d7d0 f i druntime64:dmain2_48d_2f9.obj
 0001:0001c940       _d_isbaseof                000000014001d940 f i druntime64:cast__44f_46e.obj
 0001:0001c9f0       _D2rt15deh_win64_posix7__arrayZ 000000014001d9f0 f i druntime64:deh_win64_posix.obj
 0001:0001ca10       _D2rt15deh_win64_posix8__assertFiZv 000000014001da10 f i druntime64:deh_win64_posix.obj
 0001:0001ca30       _D2rt15deh_win64_posix15__unittest_failFiZv 000000014001da30 f i druntime64:deh_win64_posix.obj
 0001:0001ca50       _D2rt15deh_win64_posix9terminateFZv 000000014001da50 f i druntime64:deh_win64_posix_476_3c9.obj
 0001:0001ca60       _D2rt15deh_win64_posix13__eh_finddataFPvZPyS2rt15deh_win64_posix9FuncTable 000000014001da60 f i druntime64:deh_win64_posix_477_525.obj
 0001:0001cab0       _D2rt15deh_win64_posix13__eh_finddataFPvZPyS2rt15deh_win64_posix9FuncTable14__foreachbody2MFKS2rt14sections_win6412SectionGroupZi 000000014001dab0 f i druntime64:deh_win64_posix_477_525.obj
 0001:0001cb50       _d_createTrace             000000014001db50 f i druntime64:deh_46f_585.obj
 0001:0001cbb0       _d_arrayappendcTX          000000014001dbb0 f i druntime64:lifetime_4bd_6c8.obj
 0001:0001d800       _D2rt4util6string7dstrcmpFNaNbNexAaxAaZi 000000014001e800 f i druntime64:string_54d_2fd.obj
 0001:0001d890       _D2rt5tlsgc7__arrayZ       000000014001e890 f i druntime64:tlsgc.obj
 0001:0001d8b0       _D2rt5tlsgc8__assertFiZv   000000014001e8b0 f i druntime64:tlsgc.obj
 0001:0001d8d0       _D2rt5tlsgc15__unittest_failFiZv 000000014001e8d0 f i druntime64:tlsgc.obj
 0001:0001d8f0       _D6object7__arrayZ         000000014001e8f0 f i druntime64:object_.obj
 0001:0001d910       _D6object8__assertFiZv     000000014001e910 f i druntime64:object_.obj
 0001:0001d930       _D6object15__unittest_failFiZv 000000014001e930 f i druntime64:object_.obj
 0001:0001d950       _D2gc5proxy7__arrayZ       000000014001e950 f i druntime64:proxy.obj
 0001:0001d970       _D2gc5proxy8__assertFiZv   000000014001e970 f i druntime64:proxy.obj
 0001:0001d990       _D2gc5proxy15__unittest_failFiZv 000000014001e990 f i druntime64:proxy.obj
 0001:0001d9b0       _d_monitorenter            000000014001e9b0 f i druntime64:object__27_648.obj
 0001:0001da30       _d_monitorexit             000000014001ea30 f i druntime64:object__28_5e4.obj
 0001:0001da80       _D6object14TypeInfo_Const8toStringMxFZAya 000000014001ea80 f i druntime64:object__14_594.obj
 0001:0001dae0       _D6object14TypeInfo_Const8opEqualsMFC6ObjectZb 000000014001eae0 f i druntime64:object__14_594.obj
 0001:0001db60       _D6object14TypeInfo_Const7getHashMxFNbNfxPvZm 000000014001eb60 f i druntime64:object__14_594.obj
 0001:0001db80       _D6object14TypeInfo_Const6equalsMxFxPvxPvZb 000000014001eb80 f i druntime64:object__14_594.obj
 0001:0001dba0       _D6object14TypeInfo_Const7compareMxFxPvxPvZi 000000014001eba0 f i druntime64:object__14_594.obj
 0001:0001dbc0       _D6object14TypeInfo_Const5tsizeMxFNaNbNdNfZm 000000014001ebc0 f i druntime64:object__14_594.obj
 0001:0001dbe0       _D6object14TypeInfo_Const4swapMxFPvPvZv 000000014001ebe0 f i druntime64:object__14_594.obj
 0001:0001dc00       _D6object14TypeInfo_Const4nextMNgFNaNbNdZNgC8TypeInfo 000000014001ec00 f i druntime64:object__14_594.obj
 0001:0001dc20       _D6object14TypeInfo_Const5flagsMxFNaNbNdNfZk 000000014001ec20 f i druntime64:object__14_594.obj
 0001:0001dc40       _D6object14TypeInfo_Const4initMxFNaNbNfZAxv 000000014001ec40 f i druntime64:object__14_594.obj
 0001:0001dc60       _D6object14TypeInfo_Const6talignMxFNaNbNdNfZm 000000014001ec60 f i druntime64:object__14_594.obj
 0001:0001dc80       _D6object14TypeInfo_Const8argTypesMFNbNfJC8TypeInfoJC8TypeInfoZi 000000014001ec80 f i druntime64:object__14_594.obj
 0001:0001dcb0       _D4core9exception16OutOfMemoryError6__ctorMFNaNbNfAyamC6object9ThrowableZC4core9exception16OutOfMemoryError 000000014001ecb0 f i druntime64:exception_bc_670.obj
 0001:0001dd00       _D4core9exception16OutOfMemoryError8toStringMxFNeZAya 000000014001ed00 f i druntime64:exception_bc_670.obj
 0001:0001dd40       _D4core9exception7__arrayZ 000000014001ed40 f i druntime64:exception.obj
 0001:0001dd60       _D4core9exception8__assertFiZv 000000014001ed60 f i druntime64:exception.obj
 0001:0001dd80       _D4core9exception15__unittest_failFiZv 000000014001ed80 f i druntime64:exception.obj
 0001:0001dda0       _D2rt8typeinfo8ti_ulong10TypeInfo_m8toStringMxFNaNbNeZAya 000000014001eda0 f i druntime64:ti_ulong_5cd_3fa.obj
 0001:0001ddc0       _D2rt8typeinfo8ti_ulong10TypeInfo_m7getHashMxFNaNbNexPvZm 000000014001edc0 f i druntime64:ti_ulong_5cd_3fa.obj
 0001:0001ddf0       _D2rt8typeinfo8ti_ulong10TypeInfo_m6equalsMxFNaNbNexPvxPvZb 000000014001edf0 f i druntime64:ti_ulong_5cd_3fa.obj
 0001:0001de10       _D2rt8typeinfo8ti_ulong10TypeInfo_m7compareMxFNaNbNexPvxPvZi 000000014001ee10 f i druntime64:ti_ulong_5cd_3fa.obj
 0001:0001de40       _D2rt8typeinfo8ti_ulong10TypeInfo_m5tsizeMxFNaNbNdNeZm 000000014001ee40 f i druntime64:ti_ulong_5cd_3fa.obj
 0001:0001de50       _D2rt8typeinfo8ti_ulong10TypeInfo_m4swapMxFNaNbNePvPvZv 000000014001ee50 f i druntime64:ti_ulong_5cd_3fa.obj
 0001:0001de70       _D2rt8typeinfo8ti_ulong10TypeInfo_m6talignMxFNaNbNdNeZm 000000014001ee70 f i druntime64:ti_ulong_5cd_3fa.obj
 0001:0001de80       _D2rt8typeinfo8ti_ubyte10TypeInfo_h8toStringMxFNaNbNeZAya 000000014001ee80 f i druntime64:ti_ubyte_5c7_3f5.obj
 0001:0001dea0       _D2rt8typeinfo8ti_ubyte10TypeInfo_h7getHashMxFNaNbNexPvZm 000000014001eea0 f i druntime64:ti_ubyte_5c7_3f5.obj
 0001:0001deb0       _D2rt8typeinfo8ti_ubyte10TypeInfo_h6equalsMxFNaNbNexPvxPvZb 000000014001eeb0 f i druntime64:ti_ubyte_5c7_3f5.obj
 0001:0001ded0       _D2rt8typeinfo8ti_ubyte10TypeInfo_h7compareMxFNaNbNexPvxPvZi 000000014001eed0 f i druntime64:ti_ubyte_5c7_3f5.obj
 0001:0001def0       _D2rt8typeinfo8ti_ubyte10TypeInfo_h5tsizeMxFNaNbNdNeZm 000000014001eef0 f i druntime64:ti_ubyte_5c7_3f5.obj
 0001:0001df00       _D2rt8typeinfo8ti_ubyte10TypeInfo_h4swapMxFNaNbNePvPvZv 000000014001ef00 f i druntime64:ti_ubyte_5c7_3f5.obj
 0001:0001df10       _D6object18TypeInfo_Invariant8toStringMxFZAya 000000014001ef10 f i druntime64:object__15_739.obj
 0001:0001df70       _D2rt14sections_win647__arrayZ 000000014001ef70 f i druntime64:sections_win64.obj
 0001:0001df90       _D2rt14sections_win648__assertFiZv 000000014001ef90 f i druntime64:sections_win64.obj
 0001:0001dfb0       _D2rt14sections_win6415__unittest_failFiZv 000000014001efb0 f i druntime64:sections_win64.obj
 0001:0001dfd0       _D2rt14sections_win6412SectionGroup7opApplyFMDFKS2rt14sections_win6412SectionGroupZiZi 000000014001efd0 f i druntime64:sections_win64_50c_4e2.obj
 0001:0001e000       _D2rt14sections_win6412SectionGroup14opApplyReverseFMDFKS2rt14sections_win6412SectionGroupZiZi 000000014001f000 f i druntime64:sections_win64_50c_4e2.obj
 0001:0001e030       _D2rt14sections_win6412SectionGroup7modulesMNgFNdZANgPS6object10ModuleInfo 000000014001f030 f i druntime64:sections_win64_50c_4e2.obj
 0001:0001e040       _D2rt14sections_win6412SectionGroup11moduleGroupMNgFNcNdZNgS2rt5minfo11ModuleGroup 000000014001f040 f i druntime64:sections_win64_50c_4e2.obj
 0001:0001e050       _D2rt14sections_win6412SectionGroup8ehTablesMxFNdZAyS2rt15deh_win64_posix9FuncTable 000000014001f050 f i druntime64:sections_win64_50c_4e2.obj
 0001:0001e090       _D2rt14sections_win6412SectionGroup8gcRangesMNgFNdZANgAv 000000014001f090 f i druntime64:sections_win64_50c_4e2.obj
 0001:0001e0b0       _D2rt14sections_win6412SectionGroup11__xopEqualsFKxS2rt14sections_win6412SectionGroupKxS2rt14sections_win6412SectionGroupZb 000000014001f0b0 f i druntime64:sections_win64_50c_4e2.obj
 0001:0001e190       _STD_monitor_staticdtor    000000014001f190 f i druntime64:monitor__4ff_951.obj
 0001:0001e1c0       _STD_critical_term         000000014001f1c0 f i druntime64:critical__46c_70b.obj
 0001:0001e220       gc_term                    000000014001f220 f i druntime64:proxy_342_2e1.obj
 0001:0001e290       rt_moduleDtor              000000014001f290 f i druntime64:minfo_4e9_564.obj
 0001:0001e2d0       _D2rt5minfo13rt_moduleDtorUZv14__foreachbody1MFKS2rt14sections_win6412SectionGroupZi 000000014001f2d0 f i druntime64:minfo_4e9_564.obj
 0001:0001e320       thread_joinAll             000000014001f320 f i druntime64:thread_136_5a0.obj
 0001:0001e3c0       _D4core6thread14thread_joinAllUZv14__foreachbody1MFKC4core6thread6ThreadZi 000000014001f3c0 f i druntime64:thread_136_5a0.obj
 0001:0001e430       rt_moduleTlsDtor           000000014001f430 f i druntime64:minfo_4e8_697.obj
 0001:0001e470       _D2rt5minfo16rt_moduleTlsDtorUZv14__foreachbody1MFKS2rt14sections_win6412SectionGroupZi 000000014001f470 f i druntime64:minfo_4e8_697.obj
 0001:0001e4a0       _D2rt6dmain215formatThrowableFC6object9ThrowableDFNbxAaZvZv 000000014001f4a0 f i druntime64:dmain2_492_631.obj
 0001:0001e610       _D4core7runtime7Runtime10initializeFZb 000000014001f610 f i druntime64:runtime_e8_2e4.obj
 0001:0001e630       _D4core7runtime7Runtime10initializeFDFC6object9ThrowableZvZb 000000014001f630 f i druntime64:runtime_e8_2e4.obj
 0001:0001e650       _D4core7runtime7Runtime9terminateFZb 000000014001f650 f i druntime64:runtime_e8_2e4.obj
 0001:0001e670       _D4core7runtime7Runtime9terminateFDFC6object9ThrowableZvZb 000000014001f670 f i druntime64:runtime_e8_2e4.obj
 0001:0001e690       _D4core7runtime7Runtime4argsFNdZAAya 000000014001f690 f i druntime64:runtime_e8_2e4.obj
 0001:0001e6b0       _D4core7runtime7Runtime5cArgsFNdZS4core7runtime5CArgs 000000014001f6b0 f i druntime64:runtime_e8_2e4.obj
 0001:0001e6f0       _D4core7runtime7Runtime12traceHandlerFNdPFPvZC6object9Throwable9TraceInfoZv 000000014001f6f0 f i druntime64:runtime_e8_2e4.obj
 0001:0001e710       _D4core7runtime7Runtime12traceHandlerFNdZPFPvZC6object9Throwable9TraceInfo 000000014001f710 f i druntime64:runtime_e8_2e4.obj
 0001:0001e730       _D4core7runtime7Runtime14collectHandlerFNdPFC6ObjectZbZv 000000014001f730 f i druntime64:runtime_e8_2e4.obj
 0001:0001e750       _D4core7runtime7Runtime14collectHandlerFNdZPFC6ObjectZb 000000014001f750 f i druntime64:runtime_e8_2e4.obj
 0001:0001e770       _D4core7runtime7Runtime16moduleUnitTesterFNdPFZbZv 000000014001f770 f i druntime64:runtime_e8_2e4.obj
 0001:0001e780       _D4core7runtime7Runtime16moduleUnitTesterFNdZPFZb 000000014001f780 f i druntime64:runtime_e8_2e4.obj
 0001:0001e790       _D4core7runtime12_staticCtor2FZv 000000014001f790 f i druntime64:runtime.obj
 0001:0001e7b0       _D4core7runtime9__modctorFZv 000000014001f7b0 f i druntime64:runtime.obj
 0001:0001e7d0       _D4core7runtime7__arrayZ   000000014001f7d0 f i druntime64:runtime.obj
 0001:0001e7f0       _D4core7runtime8__assertFiZv 000000014001f7f0 f i druntime64:runtime.obj
 0001:0001e810       _D4core7runtime15__unittest_failFiZv 000000014001f810 f i druntime64:runtime.obj
 0001:0001e830       _D2rt6memory16initStaticDataGCFZv 000000014001f830 f i druntime64:memory_4d9_620.obj
 0001:0001e870       _D2rt6memory16initStaticDataGCFZv14__foreachbody1MFKS2rt14sections_win6412SectionGroupZi 000000014001f870 f i druntime64:memory_4d9_620.obj
 0001:0001e8e0       rt_moduleTlsCtor           000000014001f8e0 f i druntime64:minfo_4e7_696.obj
 0001:0001e920       _D2rt5minfo16rt_moduleTlsCtorUZv14__foreachbody1MFKS2rt14sections_win6412SectionGroupZi 000000014001f920 f i druntime64:minfo_4e7_696.obj
 0001:0001e950       gc_init                    000000014001f950 f i druntime64:proxy_341_2dd.obj
 0001:0001eaf0       rt_moduleCtor              000000014001faf0 f i druntime64:minfo_4e6_563.obj
 0001:0001eb30       _D2rt5minfo13rt_moduleCtorUZv14__foreachbody1MFKS2rt14sections_win6412SectionGroupZi 000000014001fb30 f i druntime64:minfo_4e6_563.obj
 0001:0001eb80       _D2rt14sections_win6414getModuleInfosFZAPS6object10ModuleInfo 000000014001fb80 f i druntime64:sections_win64_512_5a5.obj
 0001:0001ec50       _STI_monitor_staticctor    000000014001fc50 f i druntime64:monitor__4fe_955.obj
 0001:0001ec80       _STI_critical_init         000000014001fc80 f i druntime64:critical__46b_70c.obj
 0001:0001ecc0       _D2rt15deh_win64_posix13__eh_finddataFPvPyS2rt15deh_win64_posix9FuncTablePyS2rt15deh_win64_posix9FuncTableZPyS2rt15deh_win64_posix9FuncTable 000000014001fcc0 f i druntime64:deh_win64_posix_478_525.obj
 0001:0001ed20       _d_traceContext            000000014001fd20 f i druntime64:object__1e_616.obj
 0001:0001ed50       _D6object17TypeInfo_Delegate8toStringMxFZAya 000000014001fd50 f i druntime64:object__f_6a8.obj
 0001:0001eda0       _D6object17TypeInfo_Delegate8opEqualsMFC6ObjectZb 000000014001fda0 f i druntime64:object__f_6a8.obj
 0001:0001ee30       _D6object17TypeInfo_Delegate5tsizeMxFNaNbNdNfZm 000000014001fe30 f i druntime64:object__f_6a8.obj
 0001:0001ee40       _D6object17TypeInfo_Delegate5flagsMxFNaNbNdNfZk 000000014001fe40 f i druntime64:object__f_6a8.obj
 0001:0001ee50       _D6object17TypeInfo_Delegate6talignMxFNaNbNdNfZm 000000014001fe50 f i druntime64:object__f_6a8.obj
 0001:0001ee60       _D6object17TypeInfo_Delegate8argTypesMFNbNfJC8TypeInfoJC8TypeInfoZi 000000014001fe60 f i druntime64:object__f_6a8.obj
 0001:0001ee80       _D6object19MemberInfo_function6__ctorMFAyaC8TypeInfoPvkZC6object19MemberInfo_function 000000014001fe80 f i druntime64:object__1a_7a9.obj
 0001:0001eec0       _D6object19MemberInfo_function4nameMFNaNbNdZAya 000000014001fec0 f i druntime64:object__1a_7a9.obj
 0001:0001eed0       _D6object19MemberInfo_function8typeInfoMFNaNbNdZC8TypeInfo 000000014001fed0 f i druntime64:object__1a_7a9.obj
 0001:0001eee0       _D6object19MemberInfo_function2fpMFNaNbNdZPv 000000014001fee0 f i druntime64:object__1a_7a9.obj
 0001:0001eef0       _D6object19MemberInfo_function5flagsMFNaNbNdZk 000000014001fef0 f i druntime64:object__1a_7a9.obj
 0001:0001ef00       _D6object16MemberInfo_field6__ctorMFAyaC8TypeInfomZC6object16MemberInfo_field 000000014001ff00 f i druntime64:object__19_647.obj
 0001:0001ef30       _D6object16MemberInfo_field4nameMFNaNbNdZAya 000000014001ff30 f i druntime64:object__19_647.obj
 0001:0001ef40       _D6object16MemberInfo_field8typeInfoMFNaNbNdZC8TypeInfo 000000014001ff40 f i druntime64:object__19_647.obj
 0001:0001ef50       _D6object16MemberInfo_field6offsetMFNaNbNdZm 000000014001ff50 f i druntime64:object__19_647.obj
 0001:0001ef60       _D6object17TypeInfo_Function8toStringMxFZAya 000000014001ff60 f i druntime64:object__e_6d3.obj
 0001:0001efb0       _D6object17TypeInfo_Function8opEqualsMFC6ObjectZb 000000014001ffb0 f i druntime64:object__e_6d3.obj
 0001:0001f040       _D6object17TypeInfo_Function5tsizeMxFNaNbNdNfZm 0000000140020040 f i druntime64:object__e_6d3.obj
 0001:0001f050       _D6object15TypeInfo_Vector8toStringMxFZAya 0000000140020050 f i druntime64:object__d_600.obj
 0001:0001f0b0       _D6object15TypeInfo_Vector8opEqualsMFC6ObjectZb 00000001400200b0 f i druntime64:object__d_600.obj
 0001:0001f130       _D6object15TypeInfo_Vector7getHashMxFNbNfxPvZm 0000000140020130 f i druntime64:object__d_600.obj
 0001:0001f150       _D6object15TypeInfo_Vector6equalsMxFxPvxPvZb 0000000140020150 f i druntime64:object__d_600.obj
 0001:0001f170       _D6object15TypeInfo_Vector7compareMxFxPvxPvZi 0000000140020170 f i druntime64:object__d_600.obj
 0001:0001f190       _D6object15TypeInfo_Vector5tsizeMxFNaNbNdNfZm 0000000140020190 f i druntime64:object__d_600.obj
 0001:0001f1b0       _D6object15TypeInfo_Vector4swapMxFPvPvZv 00000001400201b0 f i druntime64:object__d_600.obj
 0001:0001f1d0       _D6object15TypeInfo_Vector4nextMNgFNaNbNdZNgC8TypeInfo 00000001400201d0 f i druntime64:object__d_600.obj
 0001:0001f1f0       _D6object15TypeInfo_Vector5flagsMxFNaNbNdNfZk 00000001400201f0 f i druntime64:object__d_600.obj
 0001:0001f210       _D6object15TypeInfo_Vector4initMxFNaNbNfZAxv 0000000140020210 f i druntime64:object__d_600.obj
 0001:0001f230       _D6object15TypeInfo_Vector6talignMxFNaNbNdNfZm 0000000140020230 f i druntime64:object__d_600.obj
 0001:0001f240       _D6object15TypeInfo_Vector8argTypesMFNbNfJC8TypeInfoJC8TypeInfoZi 0000000140020240 f i druntime64:object__d_600.obj
 0001:0001f270       _D6object25TypeInfo_AssociativeArray8toStringMxFZAya 0000000140020270 f i druntime64:object__c_a07.obj
 0001:0001f310       _D6object25TypeInfo_AssociativeArray8opEqualsMFC6ObjectZb 0000000140020310 f i druntime64:object__c_a07.obj
 0001:0001f3d0       _D6object25TypeInfo_AssociativeArray6equalsMxFNexPvxPvZb 00000001400203d0 f i druntime64:object__c_a07.obj
 0001:0001f400       _D6object25TypeInfo_AssociativeArray7getHashMxFNbNexPvZm 0000000140020400 f i druntime64:object__c_a07.obj
 0001:0001f420       _D6object25TypeInfo_AssociativeArray5tsizeMxFNaNbNdNfZm 0000000140020420 f i druntime64:object__c_a07.obj
 0001:0001f430       _D6object25TypeInfo_AssociativeArray4nextMNgFNaNbNdZNgC8TypeInfo 0000000140020430 f i druntime64:object__c_a07.obj
 0001:0001f440       _D6object25TypeInfo_AssociativeArray5flagsMxFNaNbNdNfZk 0000000140020440 f i druntime64:object__c_a07.obj
 0001:0001f450       _D6object25TypeInfo_AssociativeArray6talignMxFNaNbNdNfZm 0000000140020450 f i druntime64:object__c_a07.obj
 0001:0001f460       _D6object25TypeInfo_AssociativeArray8argTypesMFNbNfJC8TypeInfoJC8TypeInfoZi 0000000140020460 f i druntime64:object__c_a07.obj
 0001:0001f480       _D6object14TypeInfo_Inout8toStringMxFZAya 0000000140020480 f i druntime64:object__17_59c.obj
 0001:0001f4e0       _D6object20TypeInfo_StaticArray8toStringMxFZAya 00000001400204e0 f i druntime64:object__b_7f4.obj
 0001:0001f5a0       _D6object20TypeInfo_StaticArray8opEqualsMFC6ObjectZb 00000001400205a0 f i druntime64:object__b_7f4.obj
 0001:0001f630       _D6object20TypeInfo_StaticArray7getHashMxFNbNexPvZm 0000000140020630 f i druntime64:object__b_7f4.obj
 0001:0001f6a0       _D6object20TypeInfo_StaticArray6equalsMxFxPvxPvZb 00000001400206a0 f i druntime64:object__b_7f4.obj
 0001:0001f730       _D6object20TypeInfo_StaticArray7compareMxFxPvxPvZi 0000000140020730 f i druntime64:object__b_7f4.obj
 0001:0001f7c0       _D6object20TypeInfo_StaticArray5tsizeMxFNaNbNdNfZm 00000001400207c0 f i druntime64:object__b_7f4.obj
 0001:0001f800       _D6object20TypeInfo_StaticArray4swapMxFPvPvZv 0000000140020800 f i druntime64:object__b_7f4.obj
 0001:0001f900       _D6object20TypeInfo_StaticArray4initMxFNaNbNfZAxv 0000000140020900 f i druntime64:object__b_7f4.obj
 0001:0001f920       _D6object20TypeInfo_StaticArray4nextMNgFNaNbNdZNgC8TypeInfo 0000000140020920 f i druntime64:object__b_7f4.obj
 0001:0001f930       _D6object20TypeInfo_StaticArray5flagsMxFNaNbNdNfZk 0000000140020930 f i druntime64:object__b_7f4.obj
 0001:0001f950       _D6object20TypeInfo_StaticArray7destroyMxFPvZv 0000000140020950 f i druntime64:object__b_7f4.obj
 0001:0001f9e0       _D6object20TypeInfo_StaticArray8postblitMxFPvZv 00000001400209e0 f i druntime64:object__b_7f4.obj
 0001:0001fa50       _D6object20TypeInfo_StaticArray6talignMxFNaNbNdNfZm 0000000140020a50 f i druntime64:object__b_7f4.obj
 0001:0001fa70       _D6object20TypeInfo_StaticArray8argTypesMFNbNfJC8TypeInfoJC8TypeInfoZi 0000000140020a70 f i druntime64:object__b_7f4.obj
 0001:0001fa90       _D6object14TypeInfo_Tuple8toStringMxFZAya 0000000140020a90 f i druntime64:object__13_597.obj
 0001:0001fb90       _D6object14TypeInfo_Tuple8opEqualsMFC6ObjectZb 0000000140020b90 f i druntime64:object__13_597.obj
 0001:0001fc40       _D6object14TypeInfo_Tuple7getHashMxFNbNfxPvZm 0000000140020c40 f i druntime64:object__13_597.obj
 0001:0001fc50       _D6object14TypeInfo_Tuple6equalsMxFxPvxPvZb 0000000140020c50 f i druntime64:object__13_597.obj
 0001:0001fc60       _D6object14TypeInfo_Tuple7compareMxFxPvxPvZi 0000000140020c60 f i druntime64:object__13_597.obj
 0001:0001fc70       _D6object14TypeInfo_Tuple5tsizeMxFNaNbNdNfZm 0000000140020c70 f i druntime64:object__13_597.obj
 0001:0001fc80       _D6object14TypeInfo_Tuple4swapMxFPvPvZv 0000000140020c80 f i druntime64:object__13_597.obj
 0001:0001fc90       _D6object14TypeInfo_Tuple7destroyMxFPvZv 0000000140020c90 f i druntime64:object__13_597.obj
 0001:0001fca0       _D6object14TypeInfo_Tuple8postblitMxFPvZv 0000000140020ca0 f i druntime64:object__13_597.obj
 0001:0001fcb0       _D6object14TypeInfo_Tuple6talignMxFNaNbNdNfZm 0000000140020cb0 f i druntime64:object__13_597.obj
 0001:0001fcc0       _D6object14TypeInfo_Tuple8argTypesMFNbNfJC8TypeInfoJC8TypeInfoZi 0000000140020cc0 f i druntime64:object__13_597.obj
 0001:0001fcd0       _d_monitor_create          0000000140020cd0 f i druntime64:monitor__500_6fd.obj
 0001:0001fd60       _d_monitor_lock            0000000140020d60 f i druntime64:monitor__502_632.obj
 0001:0001fd80       _d_monitor_unlock          0000000140020d80 f i druntime64:monitor__503_715.obj
 0001:0001fda0       _D4core9exception15HiddenFuncError6__ctorMFNaNbNfC14TypeInfo_ClassZC4core9exception15HiddenFuncError 0000000140020da0 f i druntime64:exception_bb_5e2.obj
 0001:0001fdf0       _D4core9exception27InvalidMemoryOperationError6__ctorMFNaNbNfAyamC6object9ThrowableZC4core9exception27InvalidMemoryOperationError 0000000140020df0 f i druntime64:exception_bd_afb.obj
 0001:0001fe40       _D4core9exception27InvalidMemoryOperationError8toStringMxFNeZAya 0000000140020e40 f i druntime64:exception_bd_afb.obj
 0001:0001fe80       _D4core9exception13FinalizeError6__ctorMFNaNbNfC14TypeInfo_ClassC6object9ThrowableAyamZC4core9exception13FinalizeError 0000000140020e80 f i druntime64:exception_ba_53c.obj
 0001:0001fed0       _D4core9exception13FinalizeError6__ctorMFNaNbNfC14TypeInfo_ClassAyamC6object9ThrowableZC4core9exception13FinalizeError 0000000140020ed0 f i druntime64:exception_ba_53c.obj
 0001:0001ff30       _D4core9exception13FinalizeError8toStringMxFNfZAya 0000000140020f30 f i druntime64:exception_ba_53c.obj
 0001:0001ff60       _D4core9exception16UnicodeException6__ctorMFNaNbNfAyamAyamC6object9ThrowableZC4core9exception16UnicodeException 0000000140020f60 f i druntime64:exception_bf_676.obj
 0001:0001ffb0       _D4core9exception11SwitchError6__ctorMFNaNbNfAyamC6object9ThrowableZC4core9exception11SwitchError 0000000140020fb0 f i druntime64:exception_be_47c.obj
 0001:00020000       _adEq2                     0000000140021000 f i druntime64:adi_3a5_20c.obj
 0001:00020050       _D2rt8monitor_7__arrayZ    0000000140021050 f i druntime64:monitor_.obj
 0001:00020070       _D2rt8monitor_8__assertFiZv 0000000140021070 f i druntime64:monitor_.obj
 0001:00020090       _D2rt8monitor_15__unittest_failFiZv 0000000140021090 f i druntime64:monitor_.obj
 0001:000200b0       _D2rt9critical_7__arrayZ   00000001400210b0 f i druntime64:critical_.obj
 0001:000200d0       _D2rt9critical_8__assertFiZv 00000001400210d0 f i druntime64:critical_.obj
 0001:000200f0       _D2rt9critical_15__unittest_failFiZv 00000001400210f0 f i druntime64:critical_.obj
 0001:00020110       thread_term                0000000140021110 f i druntime64:thread_12d_48f.obj
 0001:00020180       _D2rt5minfo11ModuleGroup6__ctorMFNcAPS6object10ModuleInfoZS2rt5minfo11ModuleGroup 0000000140021180 f i druntime64:minfo_4e4_473.obj
 0001:000201a0       _D2rt5minfo11ModuleGroup7modulesMNgFNdZANgPS6object10ModuleInfo 00000001400211a0 f i druntime64:minfo_4e4_473.obj
 0001:000201b0       _D2rt5minfo11ModuleGroup9sortCtorsMFZv 00000001400211b0 f i druntime64:minfo_4e4_473.obj
 0001:00020280       _D2rt5minfo11ModuleGroup9sortCtorsMFZv8StackRec3modMFNdZPS6object10ModuleInfo 0000000140021280 f i druntime64:minfo_4e4_473.obj
 0001:000202a0       _D2rt5minfo11ModuleGroup9sortCtorsMFZv8StackRec11__xopEqualsFKxS2rt5minfo11ModuleGroup9sortCtorsMFZv8StackRecKxS2rt5minfo11ModuleGroup9sortCtorsMFZv8StackRecZb 00000001400212a0 f i druntime64:minfo_4e4_473.obj
 0001:000202f0       _D2rt5minfo11ModuleGroup9sortCtorsMFZv4sortMFKAPS6object10ModuleInfokZv 00000001400212f0 f i druntime64:minfo_4e4_473.obj
 0001:00020840       _D2rt5minfo11ModuleGroup8runCtorsMFZv 0000000140021840 f i druntime64:minfo_4e4_473.obj
 0001:000208d0       _D2rt5minfo11ModuleGroup11runTlsCtorsMFZv 00000001400218d0 f i druntime64:minfo_4e4_473.obj
 0001:00020900       _D2rt5minfo11ModuleGroup11runTlsDtorsMFZv 0000000140021900 f i druntime64:minfo_4e4_473.obj
 0001:00020930       _D2rt5minfo11ModuleGroup8runDtorsMFZv 0000000140021930 f i druntime64:minfo_4e4_473.obj
 0001:000209a0       _D2rt5minfo11ModuleGroup4freeMFZv 00000001400219a0 f i druntime64:minfo_4e4_473.obj
 0001:00020a20       _D2rt5minfo11ModuleGroup11__xopEqualsFKxS2rt5minfo11ModuleGroupKxS2rt5minfo11ModuleGroupZb 0000000140021a20 f i druntime64:minfo_4e4_473.obj
 0001:00020aa0       _D4core6thread6Thread18_sharedStaticCtor3FZv 0000000140021aa0 f i druntime64:thread.obj
 0001:00020ad0       _D4core6thread18_sharedStaticDtor4FZv 0000000140021ad0 f i druntime64:thread.obj
 0001:00020b20       _D4core6thread18_sharedStaticCtor5FZv 0000000140021b20 f i druntime64:thread.obj
 0001:00020b70       _D4core6thread15__modsharedctorFZv 0000000140021b70 f i druntime64:thread.obj
 0001:00020b90       _D4core6thread15__modshareddtorFZv 0000000140021b90 f i druntime64:thread.obj
 0001:00020bb0       _D4core6thread7__arrayZ    0000000140021bb0 f i druntime64:thread.obj
 0001:00020bd0       _D4core6thread8__assertFiZv 0000000140021bd0 f i druntime64:thread.obj
 0001:00020bf0       _D4core6thread15__unittest_failFiZv 0000000140021bf0 f i druntime64:thread.obj
 0001:00020c10       _D4core6thread6Thread9isRunningMFNdZb 0000000140021c10 f i druntime64:thread_113_3bd.obj
 0001:00020c60       _D4core6thread6Thread8isDaemonMFNdZb 0000000140021c60 f i druntime64:thread_111_330.obj
 0001:00020cf0       _D4core6thread6Thread6removeFC4core6thread6ThreadZv 0000000140021cf0 f i druntime64:thread_12a_28e.obj
 0001:00020e30       _D4core6thread6Thread4joinMFbZC6object9Throwable 0000000140021e30 f i druntime64:thread_10e_1b0.obj
 0001:00020f30       _D4core6thread6Thread7opApplyFMDFKC4core6thread6ThreadZiZi 0000000140021f30 f i druntime64:thread_11a_2e5.obj
 0001:00021000       rt_getTraceHandler         0000000140022000 f i druntime64:object__1d_732.obj
 0001:00021010       rt_setCollectHandler       0000000140022010 f i druntime64:lifetime_4b4_815.obj
 0001:00021020       rt_cArgs                   0000000140022020 f i druntime64:dmain2_490_335.obj
 0001:00021040       rt_setTraceHandler         0000000140022040 f i druntime64:object__1c_73e.obj
 0001:00021050       rt_getCollectHandler       0000000140022050 f i druntime64:lifetime_4b5_809.obj
 0001:00021060       rt_args                    0000000140022060 f i druntime64:dmain2_48c_2f2.obj
 0001:00021080       _D4core3sys7windows10stacktrace19_sharedStaticCtor12FZv 0000000140022080 f i druntime64:stacktrace.obj
 0001:00021180       _D4core3sys7windows10stacktrace15__modsharedctorFZv 0000000140022180 f i druntime64:stacktrace.obj
 0001:000211a0       _D4core3sys7windows10stacktrace7__arrayZ 00000001400221a0 f i druntime64:stacktrace.obj
 0001:000211c0       _D4core3sys7windows10stacktrace8__assertFiZv 00000001400221c0 f i druntime64:stacktrace.obj
 0001:000211e0       _D4core3sys7windows10stacktrace15__unittest_failFiZv 00000001400221e0 f i druntime64:stacktrace.obj
 0001:00021200       _D4core7runtime19defaultTraceHandlerFPvZC6object9Throwable9TraceInfo 0000000140022200 f i druntime64:runtime_ea_792.obj
 0001:00021260       thread_init                0000000140022260 f i druntime64:thread_12c_48b.obj
 0001:00021320       _D2gc2gc2GC10initializeMFZv 0000000140022320 f i druntime64:gc_321_8a.obj
 0001:00021400       _D2gc2gc2GC4DtorMFZv       0000000140022400 f i druntime64:gc_321_8a.obj
 0001:00021450       _D2gc2gc2GC6enableMFZv     0000000140022450 f i druntime64:gc_321_8a.obj
 0001:000214a0       _D2gc2gc2GC7disableMFZv    00000001400224a0 f i druntime64:gc_321_8a.obj
 0001:000214f0       _D2gc2gc2GC7getAttrMFPvZk  00000001400224f0 f i druntime64:gc_321_8a.obj
 0001:000215b0       _D2gc2gc2GC7getAttrMFPvZk2goMFZk 00000001400225b0 f i druntime64:gc_321_8a.obj
 0001:000216b0       _D2gc2gc2GC7setAttrMFPvkZk 00000001400226b0 f i druntime64:gc_321_8a.obj
 0001:00021770       _D2gc2gc2GC7setAttrMFPvkZk2goMFZk 0000000140022770 f i druntime64:gc_321_8a.obj
 0001:000219b0       _D2gc2gc2GC7clrAttrMFPvkZk 00000001400229b0 f i druntime64:gc_321_8a.obj
 0001:00021a70       _D2gc2gc2GC7clrAttrMFPvkZk2goMFZk 0000000140022a70 f i druntime64:gc_321_8a.obj
 0001:00021c00       _D2gc2gc2GC6mallocMFmkPmZPv 0000000140022c00 f i druntime64:gc_321_8a.obj
 0001:00021d00       _D2gc2gc2GC12mallocNoSyncMFmkPmZPv 0000000140022d00 f i druntime64:gc_321_8a.obj
 0001:00022050       _D2gc2gc2GC6callocMFmkPmZPv 0000000140023050 f i druntime64:gc_321_8a.obj
 0001:00022170       _D2gc2gc2GC7reallocMFPvmkPmZPv 0000000140023170 f i druntime64:gc_321_8a.obj
 0001:00022260       _D2gc2gc2GC13reallocNoSyncMFPvmkPmZPv 0000000140023260 f i druntime64:gc_321_8a.obj
 0001:000229d0       _D2gc2gc2GC6extendMFPvmmZm 00000001400239d0 f i druntime64:gc_321_8a.obj
 0001:00022a90       _D2gc2gc2GC12extendNoSyncMFPvmmZm 0000000140023a90 f i druntime64:gc_321_8a.obj
 0001:00022c30       _D2gc2gc2GC7reserveMFmZm   0000000140023c30 f i druntime64:gc_321_8a.obj
 0001:00022d10       _D2gc2gc2GC13reserveNoSyncMFmZm 0000000140023d10 f i druntime64:gc_321_8a.obj
 0001:00022d50       _D2gc2gc2GC4freeMFPvZv     0000000140023d50 f i druntime64:gc_321_8a.obj
 0001:00022df0       _D2gc2gc2GC10freeNoSyncMFPvZv 0000000140023df0 f i druntime64:gc_321_8a.obj
 0001:00022f50       _D2gc2gc2GC6addrOfMFPvZPv  0000000140023f50 f i druntime64:gc_321_8a.obj
 0001:00023020       _D2gc2gc2GC12addrOfNoSyncMFPvZPv 0000000140024020 f i druntime64:gc_321_8a.obj
 0001:00023050       _D2gc2gc2GC6sizeOfMFPvZm   0000000140024050 f i druntime64:gc_321_8a.obj
 0001:00023110       _D2gc2gc2GC12sizeOfNoSyncMFPvZm 0000000140024110 f i druntime64:gc_321_8a.obj
 0001:00023160       _D2gc2gc2GC5queryMFPvZS2gc2gc7BlkInfo 0000000140024160 f i druntime64:gc_321_8a.obj
 0001:00023260       _D2gc2gc2GC11queryNoSyncMFPvZS2gc2gc7BlkInfo 0000000140024260 f i druntime64:gc_321_8a.obj
 0001:000232a0       _D2gc2gc2GC5checkMFPvZv    00000001400242a0 f i druntime64:gc_321_8a.obj
 0001:00023320       _D2gc2gc2GC11checkNoSyncMFPvZv 0000000140024320 f i druntime64:gc_321_8a.obj
 0001:00023330       _D2gc2gc2GC7addRootMFPvZv  0000000140024330 f i druntime64:gc_321_8a.obj
 0001:00023440       _D2gc2gc2GC10removeRootMFPvZv 0000000140024440 f i druntime64:gc_321_8a.obj
 0001:000234d0       _D2gc2gc2GC8rootIterMFNdZDFDFKPvZiZi 00000001400244d0 f i druntime64:gc_321_8a.obj
 0001:00023580       _D2gc2gc2GC8addRangeMFPvmZv 0000000140024580 f i druntime64:gc_321_8a.obj
 0001:000236c0       _D2gc2gc2GC11removeRangeMFPvZv 00000001400246c0 f i druntime64:gc_321_8a.obj
 0001:00023750       _D2gc2gc2GC9rangeIterMFNdZDFDFKS2gc2gc5RangeZiZi 0000000140024750 f i druntime64:gc_321_8a.obj
 0001:00023800       _D2gc2gc2GC11fullCollectMFZm 0000000140024800 f i druntime64:gc_321_8a.obj
 0001:00023890       _D2gc2gc2GC18fullCollectNoStackMFZv 0000000140024890 f i druntime64:gc_321_8a.obj
 0001:00023910       _D2gc2gc2GC8minimizeMFZv   0000000140024910 f i druntime64:gc_321_8a.obj
 0001:00023990       _D2gc2gc2GC8getStatsMFJS2gc5stats7GCStatsZv 0000000140024990 f i druntime64:gc_321_8a.obj
 0001:00023a20       _D2gc2gc2GC14getStatsNoSyncMFJS2gc5stats7GCStatsZv 0000000140024a20 f i druntime64:gc_321_8a.obj
 0001:00023b60       _aaEqual                   0000000140024b60 f i druntime64:aaA_388_319.obj
 0001:00023c80       _D2rt3aaA8_aaEqualUxC8TypeInfoxS2rt3aaA2AAxS2rt3aaA2AAZi9_aaKeys_xMFPxS2rt3aaA5EntryZi 0000000140024c80 f i druntime64:aaA_388_319.obj
 0001:00023d70       _aaGetHash                 0000000140024d70 f i druntime64:aaA_389_3c5.obj
 0001:00023e90       _d_newarrayT               0000000140024e90 f i druntime64:lifetime_4a8_4df.obj
 0001:000240a0       _D2rt8typeinfo5ti_Ag11TypeInfo_Av8toStringMxFZAya 00000001400250a0 f i druntime64:ti_Ag_581_444.obj
 0001:000240c0       _D2rt8typeinfo5ti_Ag11TypeInfo_Av4nextMNgFNaNbNdZNgC8TypeInfo 00000001400250c0 f i druntime64:ti_Ag_581_444.obj
 0001:000240d0       _D2rt5minfo68__T14runModuleFuncsS452rt5minfo11ModuleGroup8runCtorsMFZv9__lambda1Z14runModuleFuncsMFNaAPS6object10ModuleInfoZv 00000001400250d0 f i druntime64:minfo_4eb_a61.obj
 0001:00024150       _D2rt5minfo68__T14runModuleFuncsS452rt5minfo11ModuleGroup8runCtorsMFZv9__lambda2Z14runModuleFuncsMFNaAPS6object10ModuleInfoZv 0000000140025150 f i druntime64:minfo_4ed_9f8.obj
 0001:000241d0       _D2rt5minfo72__T14runModuleFuncsS492rt5minfo11ModuleGroup11runTlsCtorsMFZv9__lambda1Z14runModuleFuncsMFNaAPS6object10ModuleInfoZv 00000001400251d0 f i druntime64:minfo_4ef_b4b.obj
 0001:00024250       _D2rt5minfo75__T17runModuleFuncsRevS492rt5minfo11ModuleGroup11runTlsDtorsMFZv9__lambda1Z17runModuleFuncsRevMFNaAPS6object10ModuleInfoZv 0000000140025250 f i druntime64:minfo_4f1_c79.obj
 0001:000242d0       _D2rt5minfo71__T17runModuleFuncsRevS452rt5minfo11ModuleGroup8runDtorsMFZv9__lambda1Z17runModuleFuncsRevMFNaAPS6object10ModuleInfoZv 00000001400252d0 f i druntime64:minfo_4f3_b26.obj
 0001:00024350       _D4core6thread6Thread6__ctorMFZC4core6thread6Thread 0000000140025350 f i druntime64:thread_11b_1b8.obj
 0001:00024370       _D4core6thread15ThreadException6__ctorMFNaNbNfAyaAyamC6object9ThrowableZC4core6thread15ThreadException 0000000140025370 f i druntime64:thread_106_607.obj
 0001:000243c0       _D4core6thread15ThreadException6__ctorMFNaNbNfAyaC6object9ThrowableAyamZC4core6thread15ThreadException 00000001400253c0 f i druntime64:thread_106_607.obj
 0001:00024410       _D4core6thread11ThreadGroup6createMFPFZvZC4core6thread6Thread 0000000140025410 f i druntime64:thread_148_465.obj
 0001:000244d0       _D4core6thread11ThreadGroup6createMFDFZvZC4core6thread6Thread 00000001400254d0 f i druntime64:thread_148_465.obj
 0001:000245a0       _D4core6thread11ThreadGroup3addMFC4core6thread6ThreadZv 00000001400255a0 f i druntime64:thread_148_465.obj
 0001:00024620       _D4core6thread11ThreadGroup6removeMFC4core6thread6ThreadZv 0000000140025620 f i druntime64:thread_148_465.obj
 0001:00024680       _D4core6thread11ThreadGroup7opApplyMFMDFKC4core6thread6ThreadZiZi 0000000140025680 f i druntime64:thread_148_465.obj
 0001:00024780       _D4core6thread11ThreadGroup7joinAllMFbZv 0000000140025780 f i druntime64:thread_148_465.obj
 0001:00024840       _D4core3sys7windows9threadaux7__arrayZ 0000000140025840 f i druntime64:threadaux.obj
 0001:00024860       _D4core3sys7windows9threadaux8__assertFiZv 0000000140025860 f i druntime64:threadaux.obj
 0001:00024880       _D4core3sys7windows9threadaux15__unittest_failFiZv 0000000140025880 f i druntime64:threadaux.obj
 0001:000248a0       _D4core4time12TickDuration18_sharedStaticCtor7FNeZv 00000001400258a0 f i druntime64:time.obj
 0001:000248f0       _D4core4time15__modsharedctorFZv 00000001400258f0 f i druntime64:time.obj
 0001:00024910       _D4core4time7__arrayZ      0000000140025910 f i druntime64:time.obj
 0001:00024930       _D4core4time8__assertFiZv  0000000140025930 f i druntime64:time.obj
 0001:00024950       _D4core4time15__unittest_failFiZv 0000000140025950 f i druntime64:time.obj
 0001:00024970       _D4core6thread14FiberException6__ctorMFNaNbNfAyaAyamC6object9ThrowableZC4core6thread14FiberException 0000000140025970 f i druntime64:thread_107_597.obj
 0001:000249c0       _D4core6thread14FiberException6__ctorMFNaNbNfAyaC6object9ThrowableAyamZC4core6thread14FiberException 00000001400259c0 f i druntime64:thread_107_597.obj
 0001:00024a10       _D4core6thread5Fiber6__ctorMFPFZvmZC4core6thread5Fiber 0000000140025a10 f i druntime64:thread_14b_1e8.obj
 0001:00024a60       _D4core6thread5Fiber6__ctorMFDFZvmZC4core6thread5Fiber 0000000140025a60 f i druntime64:thread_14b_1e8.obj
 0001:00024ad0       _D4core6thread5Fiber6__dtorMFZv 0000000140025ad0 f i druntime64:thread_14b_1e8.obj
 0001:00024b70       _D4core6thread5Fiber4callMFbZC6Object 0000000140025b70 f i druntime64:thread_14b_1e8.obj
 0001:00024d10       _D4core6thread5Fiber5resetMFZv 0000000140025d10 f i druntime64:thread_14b_1e8.obj
 0001:00024d50       _D4core6thread5Fiber5resetMFPFZvZv 0000000140025d50 f i druntime64:thread_14b_1e8.obj
 0001:00024d80       _D4core6thread5Fiber5resetMFDFZvZv 0000000140025d80 f i druntime64:thread_14b_1e8.obj
 0001:00024dc0       _D4core6thread5Fiber5stateMxFNdZE4core6thread5Fiber5State 0000000140025dc0 f i druntime64:thread_14b_1e8.obj
 0001:00024dd0       _D4core6thread5Fiber5yieldFZv 0000000140025dd0 f i druntime64:thread_14b_1e8.obj
 0001:00024ed0       _D4core6thread5Fiber13yieldAndThrowFC6object9ThrowableZv 0000000140025ed0 f i druntime64:thread_14b_1e8.obj
 0001:00024fd0       _D4core6thread5Fiber7getThisFZC4core6thread5Fiber 0000000140025fd0 f i druntime64:thread_14b_1e8.obj
 0001:00025000       _D4core6thread5Fiber6__ctorMFZC4core6thread5Fiber 0000000140026000 f i druntime64:thread_14b_1e8.obj
 0001:00025010       _D4core6thread5Fiber3runMFZv 0000000140026010 f i druntime64:thread_14b_1e8.obj
 0001:00025060       _D4core6thread5Fiber10allocStackMFmZv 0000000140026060 f i druntime64:thread_14b_1e8.obj
 0001:000252f0       _D4core6thread5Fiber9freeStackMFZv 00000001400262f0 f i druntime64:thread_14b_1e8.obj
 0001:00025390       _D4core6thread5Fiber9initStackMFZv 0000000140026390 f i druntime64:thread_14b_1e8.obj
 0001:000254c0       _D4core6thread5Fiber9initStackMFZv4pushMFmZv 00000001400264c0 f i druntime64:thread_14b_1e8.obj
 0001:000254e0       _D4core6thread5Fiber7setThisFC4core6thread5FiberZv 00000001400264e0 f i druntime64:thread_14b_1e8.obj
 0001:00025510       _D4core6thread5Fiber8switchInMFZv 0000000140026510 f i druntime64:thread_14b_1e8.obj
 0001:000255f0       _D4core6thread5Fiber9switchOutMFZv 00000001400265f0 f i druntime64:thread_14b_1e8.obj
 0001:000256c0       _D4core6thread6Thread6__dtorMFZv 00000001400266c0 f i druntime64:thread_10c_236.obj
 0001:00025720       _D4core6atomic49__T11atomicStoreVE4core6atomic11MemoryOrder0TkTkZ11atomicStoreFNaNbKOkkZv 0000000140026720 f i druntime64:atomic_6e_fb5.obj
 0001:00025770       _D4core3sys7windows10stacktrace10StackTrace6__ctorMFmPS4core3sys7windows7windows7CONTEXTZC4core3sys7windows10stacktrace10StackTrace 0000000140026770 f i druntime64:stacktrace_248_3e5.obj
 0001:000257d0       _D4core3sys7windows10stacktrace10StackTrace7opApplyMxFMDFKxAaZiZi 00000001400267d0 f i druntime64:stacktrace_248_3e5.obj
 0001:00025820       _D4core3sys7windows10stacktrace10StackTrace7opApplyMxFMDFKxAaZiZi16__T9__lambda2TmZ9__lambda2MFKmKxAaZi 0000000140026820 f i druntime64:stacktrace_248_3e5.obj
 0001:00025840       _D4core3sys7windows10stacktrace10StackTrace7opApplyMxFMDFKmKxAaZiZi 0000000140026840 f i druntime64:stacktrace_248_3e5.obj
 0001:000258e0       _D4core3sys7windows10stacktrace10StackTrace8toStringMxFZAya 00000001400268e0 f i druntime64:stacktrace_248_3e5.obj
 0001:00025940       _D4core3sys7windows10stacktrace10StackTrace8toStringMxFZAya14__foreachbody1MFNfKxAaZi 0000000140026940 f i druntime64:stacktrace_248_3e5.obj
 0001:000259b0       _D4core3sys7windows10stacktrace10StackTrace5traceFmPS4core3sys7windows7windows7CONTEXTZAm 00000001400269b0 f i druntime64:stacktrace_248_3e5.obj
 0001:00025a60       _D4core3sys7windows10stacktrace10StackTrace7resolveFAxmZAAa 0000000140026a60 f i druntime64:stacktrace_248_3e5.obj
 0001:00025b20       _D4core3sys7windows10stacktrace10StackTrace11traceNoSyncFmPS4core3sys7windows7windows7CONTEXTZAm 0000000140026b20 f i druntime64:stacktrace_248_3e5.obj
 0001:00025dc0       _D4core3sys7windows10stacktrace10StackTrace13resolveNoSyncFAxmZAAa 0000000140026dc0 f i druntime64:stacktrace_248_3e5.obj
 0001:00026470       _D4core3sys7windows10stacktrace10StackTrace16formatStackFrameFPvZAa 0000000140027470 f i druntime64:stacktrace_248_3e5.obj
 0001:000264f0       _D4core3sys7windows10stacktrace10StackTrace16formatStackFrameFPvPaZAa 00000001400274f0 f i druntime64:stacktrace_248_3e5.obj
 0001:00026660       _D4core3sys7windows10stacktrace10StackTrace16formatStackFrameFPvPaxPakZAa 0000000140027660 f i druntime64:stacktrace_248_3e5.obj
 0001:00026920       _D4core3sys7windows10stacktrace18generateSearchPathFZAya 0000000140027920 f i druntime64:stacktrace_24a_72e.obj
 0001:00026a90       _D4core3sys7windows7dbghelp7DbgHelp18_sharedStaticDtor9FZv 0000000140027a90 f i druntime64:dbghelp.obj
 0001:00026ac0       _D4core3sys7windows7dbghelp15__modshareddtorFZv 0000000140027ac0 f i druntime64:dbghelp.obj
 0001:00026ae0       _D4core3sys7windows7dbghelp7__arrayZ 0000000140027ae0 f i druntime64:dbghelp.obj
 0001:00026b00       _D4core3sys7windows7dbghelp8__assertFiZv 0000000140027b00 f i druntime64:dbghelp.obj
 0001:00026b20       _D4core3sys7windows7dbghelp15__unittest_failFiZv 0000000140027b20 f i druntime64:dbghelp.obj
 0001:00026b40       FixupDebugHeader           0000000140027b40 f i druntime64:stacktrace_249_63c.obj
 0001:00026c20       _D4core3sys7windows7dbghelp7DbgHelp3getFZPS4core3sys7windows7dbghelp7DbgHelp 0000000140027c20 f i druntime64:dbghelp_234_140.obj
 0001:00026e70       thread_attachThis          0000000140027e70 f i druntime64:thread_12f_6e4.obj
 0001:000270f0       _D4core4sync5mutex5Mutex6__ctorMFZC4core4sync5mutex5Mutex 00000001400280f0 f i druntime64:mutex_222_213.obj
 0001:00027130       _D4core4sync5mutex5Mutex6__ctorMFC6ObjectZC4core4sync5mutex5Mutex 0000000140028130 f i druntime64:mutex_222_213.obj
 0001:00027180       _D4core4sync5mutex5Mutex6__dtorMFZv 0000000140028180 f i druntime64:mutex_222_213.obj
 0001:000271b0       _D4core4sync5mutex5Mutex4lockMFNeZv 00000001400281b0 f i druntime64:mutex_222_213.obj
 0001:000271d0       _D4core4sync5mutex5Mutex6unlockMFNeZv 00000001400281d0 f i druntime64:mutex_222_213.obj
 0001:000271f0       _D4core4sync5mutex5Mutex7tryLockMFZb 00000001400281f0 f i druntime64:mutex_222_213.obj
 0001:00027210       _D4core4sync5mutex5Mutex12MonitorProxy11__xopEqualsFKxS4core4sync5mutex5Mutex12MonitorProxyKxS4core4sync5mutex5Mutex12MonitorProxyZb 0000000140028210 f i druntime64:mutex_222_213.obj
 0001:00027280       _D2gc2gc3Gcx10initializeMFZv 0000000140028280 f i druntime64:gc_324_122.obj
 0001:000272b0       _D2gc2gc3Gcx4DtorMFZv      00000001400282b0 f i druntime64:gc_324_122.obj
 0001:00027530       _D2gc2gc3Gcx9InvariantMxFZv 0000000140028530 f i druntime64:gc_324_122.obj
 0001:00027540       _D2gc2gc3Gcx13__invariant13MxFZv 0000000140028540 f i druntime64:gc_324_122.obj
 0001:000275b0       _D2gc2gc3Gcx7addRootMFPvZv 00000001400285b0 f i druntime64:gc_324_122.obj
 0001:00027660       _D2gc2gc3Gcx10removeRootMFPvZv 0000000140028660 f i druntime64:gc_324_122.obj
 0001:000276d0       _D2gc2gc3Gcx8rootIterMFDFKPvZiZi 00000001400286d0 f i druntime64:gc_324_122.obj
 0001:00027720       _D2gc2gc3Gcx8addRangeMFPvPvZv 0000000140028720 f i druntime64:gc_324_122.obj
 0001:000277f0       _D2gc2gc3Gcx11removeRangeMFPvZv 00000001400287f0 f i druntime64:gc_324_122.obj
 0001:00027870       _D2gc2gc3Gcx9rangeIterMFDFKS2gc2gc5RangeZiZi 0000000140028870 f i druntime64:gc_324_122.obj
 0001:000278d0       _D2gc2gc3Gcx8findPoolMFPvZPS2gc2gc4Pool 00000001400288d0 f i druntime64:gc_324_122.obj
 0001:00027990       _D2gc2gc3Gcx8findBaseMFPvZPv 0000000140028990 f i druntime64:gc_324_122.obj
 0001:00027a40       _D2gc2gc3Gcx8findSizeMFPvZm 0000000140028a40 f i druntime64:gc_324_122.obj
 0001:00027af0       _D2gc2gc3Gcx7getInfoMFPvZS2gc2gc7BlkInfo 0000000140028af0 f i druntime64:gc_324_122.obj
 0001:00027d00       _D2gc2gc3Gcx12updateCachesMFPvmZv 0000000140028d00 f i druntime64:gc_324_122.obj
 0001:00027d30       _D2gc2gc3Gcx7findBinFmZh   0000000140028d30 f i druntime64:gc_324_122.obj
 0001:00027d60       _D2gc2gc3Gcx11findBinImplFmZh 0000000140028d60 f i druntime64:gc_324_122.obj
 0001:00027de0       _D2gc2gc3Gcx8ctfeBinsFZG2049g 0000000140028de0 f i druntime64:gc_324_122.obj
 0001:00027ea0       _D2gc2gc3Gcx7reserveMFmZm  0000000140028ea0 f i druntime64:gc_324_122.obj
 0001:00027ef0       _D2gc2gc3Gcx8minimizeMFZv  0000000140028ef0 f i druntime64:gc_324_122.obj
 0001:000281f0       _D2gc2gc3Gcx8minimizeMFZv6isUsedFPS2gc2gc4PoolZb 00000001400291f0 f i druntime64:gc_324_122.obj
 0001:00028210       _D2gc2gc3Gcx8bigAllocMFmPPS2gc2gc4PoolPmZPv 0000000140029210 f i druntime64:gc_324_122.obj
 0001:00028430       _D2gc2gc3Gcx7newPoolMFmbZPS2gc2gc4Pool 0000000140029430 f i druntime64:gc_324_122.obj
 0001:000287d0       _D2gc2gc3Gcx9allocPageMFhZi 00000001400297d0 f i druntime64:gc_324_122.obj
 0001:000288b0       _D2gc2gc3Gcx4markMFPvPvZv  00000001400298b0 f i druntime64:gc_324_122.obj
 0001:000288d0       _D2gc2gc3Gcx4markMFPvPviZv 00000001400298d0 f i druntime64:gc_324_122.obj
 0001:00028ba0       _D2gc2gc3Gcx11fullcollectMFZm 0000000140029ba0 f i druntime64:gc_324_122.obj
 0001:000295f0       _D2gc2gc3Gcx8isMarkedMFPvZE2gc2gc8IsMarked 000000014002a5f0 f i druntime64:gc_324_122.obj
 0001:000296f0       _D2gc2gc3Gcx7getBitsMFPS2gc2gc4PoolmZk 000000014002a6f0 f i druntime64:gc_324_122.obj
 0001:000297d0       _D2gc2gc3Gcx7setBitsMFPS2gc2gc4PoolmkZv 000000014002a7d0 f i druntime64:gc_324_122.obj
 0001:00029920       _D2gc2gc3Gcx7clrBitsMFPS2gc2gc4PoolmkZv 000000014002a920 f i druntime64:gc_324_122.obj
 0001:000299c0       _D2gc2gc3Gcx17clrBitsSmallSweepMFPS2gc2gc4PoolmmZv 000000014002a9c0 f i druntime64:gc_324_122.obj
 0001:00029a10       _D2gc2gc3Gcx8log_initMFZv  000000014002aa10 f i druntime64:gc_324_122.obj
 0001:00029a20       _D2gc2gc3Gcx10log_mallocMFPvmZv 000000014002aa20 f i druntime64:gc_324_122.obj
 0001:00029a30       _D2gc2gc3Gcx8log_freeMFPvZv 000000014002aa30 f i druntime64:gc_324_122.obj
 0001:00029a40       _D2gc2gc3Gcx11log_collectMFZv 000000014002aa40 f i druntime64:gc_324_122.obj
 0001:00029a50       _D2gc2gc3Gcx10log_parentMFPvPvZv 000000014002aa50 f i druntime64:gc_324_122.obj
 0001:00029a60       _D2gc2gc3Gcx11__invariantMxFZv 000000014002aa60 f i druntime64:gc_324_122.obj
 0001:00029a80       _D2gc2gc7__arrayZ          000000014002aa80 f i druntime64:gc.obj
 0001:00029aa0       _D2gc2gc8__assertFiZv      000000014002aaa0 f i druntime64:gc.obj
 0001:00029ac0       _D2gc2gc15__unittest_failFiZv 000000014002aac0 f i druntime64:gc.obj
 0001:00029ae0       _D2gc2gc7GCMutex6__ctorMFZC2gc2gc7GCMutex 000000014002aae0 f i druntime64:gc_320_29d.obj
 0001:00029b20       onInvalidMemoryOperationError 000000014002ab20 f i druntime64:exception_ca_bd8.obj
 0001:00029b40       _D2gc2gc4Pool10initializeMFmbZv 000000014002ab40 f i druntime64:gc_325_19a.obj
 0001:00029e20       _D2gc2gc4Pool4DtorMFZv     000000014002ae20 f i druntime64:gc_325_19a.obj
 0001:00029fc0       _D2gc2gc4Pool9InvariantMxFZv 000000014002afc0 f i druntime64:gc_325_19a.obj
 0001:00029fd0       _D2gc2gc4Pool13__invariant14MxFZv 000000014002afd0 f i druntime64:gc_325_19a.obj
 0001:0002a000       _D2gc2gc4Pool7divisorMFNdZm 000000014002b000 f i druntime64:gc_325_19a.obj
 0001:0002a030       _D2gc2gc4Pool7shiftByMFNdZk 000000014002b030 f i druntime64:gc_325_19a.obj
 0001:0002a050       _D2gc2gc4Pool13updateOffsetsMFmZv 000000014002b050 f i druntime64:gc_325_19a.obj
 0001:0002a0b0       _D2gc2gc4Pool10allocPagesMFmZm 000000014002b0b0 f i druntime64:gc_325_19a.obj
 0001:0002a190       _D2gc2gc4Pool9freePagesMFmmZv 000000014002b190 f i druntime64:gc_325_19a.obj
 0001:0002a1f0       _D2gc2gc4Pool5opCmpMxFxPS2gc2gc4PoolZi 000000014002b1f0 f i druntime64:gc_325_19a.obj
 0001:0002a220       _D2gc2gc4Pool11__invariantMxFZv 000000014002b220 f i druntime64:gc_325_19a.obj
 0001:0002a240       _aaUnwrapTypeInfo          000000014002b240 f i druntime64:aaA_387_6cc.obj
 0001:0002a2d0       _D4core6thread6Thread6__ctorMFPFZvmZC4core6thread6Thread 000000014002b2d0 f i druntime64:thread_10a_1b8.obj
 0001:0002a310       _D4core6thread6Thread5startMFZv 000000014002b310 f i druntime64:thread_10d_22e.obj
 0001:0002a500       _D2rt8typeinfo4ti_C10TypeInfo_C7getHashMxFNbNexPvZm 000000014002b500 f i druntime64:ti_C_5a5_3d0.obj
 0001:0002a530       _D2rt8typeinfo4ti_C10TypeInfo_C6equalsMxFNexPvxPvZb 000000014002b530 f i druntime64:ti_C_5a5_3d0.obj
 0001:0002a560       _D2rt8typeinfo4ti_C10TypeInfo_C7compareMxFNexPvxPvZi 000000014002b560 f i druntime64:ti_C_5a5_3d0.obj
 0001:0002a5c0       _D2rt8typeinfo4ti_C10TypeInfo_C5tsizeMxFNaNbNdNeZm 000000014002b5c0 f i druntime64:ti_C_5a5_3d0.obj
 0001:0002a5d0       _D2rt8typeinfo4ti_C10TypeInfo_C5flagsMxFNaNbNdNeZk 000000014002b5d0 f i druntime64:ti_C_5a5_3d0.obj
 0001:0002a5e0       _D4core6thread6Thread6__ctorMFDFZvmZC4core6thread6Thread 000000014002b5e0 f i druntime64:thread_10b_1b8.obj
 0001:0002a630       _aaGetX                    000000014002b630 f i druntime64:aaA_37d_299.obj
 0001:0002a7d0       _aaDelX                    000000014002b7d0 f i druntime64:aaA_380_28e.obj
 0001:0002a8b0       _aaKeys                    000000014002b8b0 f i druntime64:aaA_383_2bd.obj
 0001:0002a9f0       _D4core4time13TimeException6__ctorMFNaNbNfAyaAyamC6object9ThrowableZC4core4time13TimeException 000000014002b9f0 f i druntime64:time_16b_53e.obj
 0001:0002aa40       _D4core4time12TickDuration14currSystemTickFNdNeZS4core4time12TickDuration 000000014002ba40 f i druntime64:time_168_5cc.obj
 0001:0002ab00       _D4core6thread6Thread3addFPS4core6thread6Thread7ContextZv 000000014002bb00 f i druntime64:thread_127_129.obj
 0001:0002abd0       fiber_switchContext        000000014002bbd0 f i druntime64:thread_14a_7de.obj
 0001:0002ac10       _D4core6atomic49__T11atomicStoreVE4core6atomic11MemoryOrder0TbTbZ11atomicStoreFNaNbKObbZv 000000014002bc10 f i druntime64:atomic_71_f8d.obj
 0001:0002ac30       fiber_entryPoint           000000014002bc30 f i druntime64:thread_149_6a3.obj
 0001:0002ad90       _D4core6thread11getStackTopFZPv 000000014002bd90 f i druntime64:thread_144_469.obj
 0001:0002ada0       _D2rt8typeinfo8ti_Along11TypeInfo_Am8toStringMxFZAya 000000014002bda0 f i druntime64:ti_Along_596_43b.obj
 0001:0002adc0       _D2rt8typeinfo8ti_Along11TypeInfo_Am7compareMxFxPvxPvZi 000000014002bdc0 f i druntime64:ti_Along_596_43b.obj
 0001:0002ae70       _D2rt8typeinfo8ti_Along11TypeInfo_Am4nextMNgFNaNbNdZNgC8TypeInfo 000000014002be70 f i druntime64:ti_Along_596_43b.obj
 0001:0002ae80       _D4core8demangle8Demangle66__T10doDemangleS47_D4core8demangle8Demangle16parseMangledNameMFZvZ10doDemangleMFZAa 000000014002be80 f i druntime64:demangle_b2_ab6.obj
 0001:0002afa0       _d_arrayliteralTX          000000014002bfa0 f i druntime64:lifetime_4c2_6da.obj
 0001:0002b0f0       _D4core8demangle8Demangle6__ctorMFNcAxaAaZS4core8demangle8Demangle 000000014002c0f0 f i druntime64:demangle_ae_31d.obj
 0001:0002b130       _D4core8demangle8Demangle6__ctorMFNcAxaE4core8demangle8Demangle7AddTypeAaZS4core8demangle8Demangle 000000014002c130 f i druntime64:demangle_ae_31d.obj
 0001:0002b170       _D4core8demangle8Demangle14ParseException6__ctorMFNaNbNfAyaZC4core8demangle8Demangle14ParseException 000000014002c170 f i druntime64:demangle_ae_31d.obj
 0001:0002b1c0       _D4core8demangle8Demangle17OverflowException6__ctorMFNaNbNfAyaZC4core8demangle8Demangle17OverflowException 000000014002c1c0 f i druntime64:demangle_ae_31d.obj
 0001:0002b210       _D4core8demangle8Demangle5errorFAyaZv 000000014002c210 f i druntime64:demangle_ae_31d.obj
 0001:0002b230       _D4core8demangle8Demangle8overflowFAyaZv 000000014002c230 f i druntime64:demangle_ae_31d.obj
 0001:0002b250       _D4core8demangle8Demangle7isAlphaFaZb 000000014002c250 f i druntime64:demangle_ae_31d.obj
 0001:0002b280       _D4core8demangle8Demangle7isDigitFaZb 000000014002c280 f i druntime64:demangle_ae_31d.obj
 0001:0002b2a0       _D4core8demangle8Demangle10isHexDigitFaZb 000000014002c2a0 f i druntime64:demangle_ae_31d.obj
 0001:0002b2d0       _D4core8demangle8Demangle9ascii2hexFaZh 000000014002c2d0 f i druntime64:demangle_ae_31d.obj
 0001:0002b360       _D4core8demangle8Demangle8containsFAxaAxaZb 000000014002c360 f i druntime64:demangle_ae_31d.obj
 0001:0002b3b0       _D4core8demangle8Demangle5shiftMFAxaZAa 000000014002c3b0 f i druntime64:demangle_ae_31d.obj
 0001:0002b470       _D4core8demangle8Demangle5shiftMFAxaZAa4exchMFmmZv 000000014002c470 f i druntime64:demangle_ae_31d.obj
 0001:0002b4b0       _D4core8demangle8Demangle6appendMFAxaZAa 000000014002c4b0 f i druntime64:demangle_ae_31d.obj
 0001:0002b600       _D4core8demangle8Demangle3putMFAxaZAa 000000014002c600 f i druntime64:demangle_ae_31d.obj
 0001:0002b6d0       _D4core8demangle8Demangle8putAsHexMFmiZAa 000000014002c6d0 f i druntime64:demangle_ae_31d.obj
 0001:0002b7a0       _D4core8demangle8Demangle3padMFAxaZv 000000014002c7a0 f i druntime64:demangle_ae_31d.obj
 0001:0002b820       _D4core8demangle8Demangle6silentMFLvZv 000000014002c820 f i druntime64:demangle_ae_31d.obj
 0001:0002b860       _D4core8demangle8Demangle3tokMFZa 000000014002c860 f i druntime64:demangle_ae_31d.obj
 0001:0002b890       _D4core8demangle8Demangle4testMFaZv 000000014002c890 f i druntime64:demangle_ae_31d.obj
 0001:0002b8e0       _D4core8demangle8Demangle4nextMFZv 000000014002c8e0 f i druntime64:demangle_ae_31d.obj
 0001:0002b930       _D4core8demangle8Demangle5matchMFaZv 000000014002c930 f i druntime64:demangle_ae_31d.obj
 0001:0002b9c0       _D4core8demangle8Demangle5matchMFAxaZv 000000014002c9c0 f i druntime64:demangle_ae_31d.obj
 0001:0002ba80       _D4core8demangle8Demangle3eatMFaZv 000000014002ca80 f i druntime64:demangle_ae_31d.obj
 0001:0002baf0       _D4core8demangle8Demangle11sliceNumberMFZAxa 000000014002caf0 f i druntime64:demangle_ae_31d.obj
 0001:0002bba0       _D4core8demangle8Demangle12decodeNumberMFZm 000000014002cba0 f i druntime64:demangle_ae_31d.obj
 0001:0002bbe0       _D4core8demangle8Demangle12decodeNumberMFAxaZm 000000014002cbe0 f i druntime64:demangle_ae_31d.obj
 0001:0002bc90       _D4core8demangle8Demangle9parseRealMFZv 000000014002cc90 f i druntime64:demangle_ae_31d.obj
 0001:0002c2a0       _D4core8demangle8Demangle10parseLNameMFZv 000000014002d2a0 f i druntime64:demangle_ae_31d.obj
 0001:0002c490       _D4core8demangle8Demangle9parseTypeMFAaZAa 000000014002d490 f i druntime64:demangle_ae_31d.obj
 0001:0002d6c0       _D4core8demangle8Demangle19parseCallConventionMFZv 000000014002e6c0 f i druntime64:demangle_ae_31d.obj
 0001:0002d940       _D4core8demangle8Demangle13parseFuncAttrMFZv 000000014002e940 f i druntime64:demangle_ae_31d.obj
 0001:0002dd00       _D4core8demangle8Demangle18parseFuncArgumentsMFZv 000000014002ed00 f i druntime64:demangle_ae_31d.obj
 0001:0002e170       _D4core8demangle8Demangle17parseTypeFunctionMFAaE4core8demangle8Demangle10IsDelegateZAa 000000014002f170 f i druntime64:demangle_ae_31d.obj
 0001:0002e4a0       _D4core8demangle8Demangle16isCallConventionFaZb 000000014002f4a0 f i druntime64:demangle_ae_31d.obj
 0001:0002e4e0       _D4core8demangle8Demangle10parseValueMFAaaZv 000000014002f4e0 f i druntime64:demangle_ae_31d.obj
 0001:0002f1a0       _D4core8demangle8Demangle17parseIntegerValueMFAaaZv 00000001400301a0 f i druntime64:demangle_ae_31d.obj
 0001:0002f920       _D4core8demangle8Demangle17parseTemplateArgsMFZv 0000000140030920 f i druntime64:demangle_ae_31d.obj
 0001:0002fbe0       _D4core8demangle8Demangle17parseTemplateArgsMFZv12__dgliteral1MFNaNfZv 0000000140030be0 f i druntime64:demangle_ae_31d.obj
 0001:0002fc30       _D4core8demangle8Demangle25parseTemplateInstanceNameMFZv 0000000140030c30 f i druntime64:demangle_ae_31d.obj
 0001:0002fe30       _D4core8demangle8Demangle25mayBeTemplateInstanceNameMFZb 0000000140030e30 f i druntime64:demangle_ae_31d.obj
 0001:0002ff60       _D4core8demangle8Demangle15parseSymbolNameMFZv 0000000140030f60 f i druntime64:demangle_ae_31d.obj
 0001:00030080       _D4core8demangle8Demangle18parseQualifiedNameMFZAa 0000000140031080 f i druntime64:demangle_ae_31d.obj
 0001:00030280       _D4core8demangle8Demangle16parseMangledNameMFZv 0000000140031280 f i druntime64:demangle_ae_31d.obj
 0001:00030420       _D4core8demangle8Demangle12demangleNameMFZAa 0000000140031420 f i druntime64:demangle_ae_31d.obj
 0001:00030440       _D4core8demangle8Demangle12demangleTypeMFZAa 0000000140031440 f i druntime64:demangle_ae_31d.obj
 0001:00030460       _D4core8demangle8Demangle11__xopEqualsFKxS4core8demangle8DemangleKxS4core8demangle8DemangleZb 0000000140031460 f i druntime64:demangle_ae_31d.obj
 0001:000304e0       _D4core6thread14getStackBottomFZPv 00000001400314e0 f i druntime64:thread_145_5ab.obj
 0001:000304f0       _D4core6thread6Thread3addFC4core6thread6ThreadZv 00000001400314f0 f i druntime64:thread_129_129.obj
 0001:000305c0       _d_interface_cast          00000001400315c0 f i druntime64:cast__44c_6dd.obj
 0001:00030640       thread_processGCMarks      0000000140031640 f i druntime64:thread_143_85e.obj
 0001:000306f0       thread_scanAll             00000001400316f0 f i druntime64:thread_13f_595.obj
 0001:00030730       _D4core6thread14thread_scanAllUMDFPvPvZvZv43__T9__lambda2TE4core6thread8ScanTypeTPvTPvZ9__lambda2MFE4core6thread8ScanTypePvPvZv 0000000140031730 f i druntime64:thread_13f_595.obj
 0001:00030750       rt_finalize2               0000000140031750 f i druntime64:lifetime_4b6_4c9.obj
 0001:00030880       thread_resumeAll           0000000140031880 f i druntime64:thread_13b_681.obj
 0001:00030970       thread_suspendAll          0000000140031970 f i druntime64:thread_139_6f2.obj
 0001:00030b30       thread_entryPoint          0000000140031b30 f i druntime64:thread_108_713.obj
 0001:00030d30       _D4core6thread17thread_entryPointWPvZk6appendMFC6object9ThrowableZv 0000000140031d30 f i druntime64:thread_108_713.obj
 0001:00030d80       _aaRehash                  0000000140031d80 f i druntime64:aaA_382_37c.obj
 0001:00030f50       _D2rt8typeinfo8ti_Along11TypeInfo_Al8opEqualsMFC6ObjectZb 0000000140031f50 f i druntime64:ti_Along_595_43a.obj
 0001:00030f70       _D2rt8typeinfo8ti_Along11TypeInfo_Al8toStringMxFZAya 0000000140031f70 f i druntime64:ti_Along_595_43a.obj
 0001:00030f90       _D2rt8typeinfo8ti_Along11TypeInfo_Al7getHashMxFNbNexPvZm 0000000140031f90 f i druntime64:ti_Along_595_43a.obj
 0001:00030fd0       _D2rt8typeinfo8ti_Along11TypeInfo_Al6equalsMxFxPvxPvZb 0000000140031fd0 f i druntime64:ti_Along_595_43a.obj
 0001:00031040       _D2rt8typeinfo8ti_Along11TypeInfo_Al7compareMxFxPvxPvZi 0000000140032040 f i druntime64:ti_Along_595_43a.obj
 0001:000310f0       _D2rt8typeinfo8ti_Along11TypeInfo_Al4nextMNgFNaNbNdZNgC8TypeInfo 00000001400320f0 f i druntime64:ti_Along_595_43a.obj
 0001:00031100       _d_arraysetlengthiT        0000000140032100 f i druntime64:lifetime_4b9_7cc.obj
 0001:000323a0       _D4core8demangle8Demangle61__T10doDemangleS42_D4core8demangle8Demangle9parseTypeMFAaZAaZ10doDemangleMFZAa 00000001400333a0 f i druntime64:demangle_b3_81f.obj
 0001:000324e0       thread_scanAllType         00000001400334e0 f i druntime64:thread_13d_737.obj
 0001:00032520       _D4core6thread18thread_scanAllTypeUMDFE4core6thread8ScanTypePvPvZvZv17__T9__lambda2TPvZ9__lambda2MFPvZv 0000000140033520 f i druntime64:thread_13d_737.obj
 0001:00032560       _d_monitordelete           0000000140033560 f i druntime64:object__26_69d.obj
 0001:00032690       onFinalizeError            0000000140033690 f i druntime64:exception_c7_619.obj
 0001:00032710       _D4core6thread6resumeFC4core6thread6ThreadZv 0000000140033710 f i druntime64:thread_13a_291.obj
 0001:00032850       _D4core6thread7suspendFC4core6thread6ThreadZv 0000000140033850 f i druntime64:thread_138_302.obj
 0001:00032b00       _D4core4time8Duration4zeroFNaNbNdNfZS4core4time8Duration 0000000140033b00 f i druntime64:time_15c_346.obj
 0001:00032b10       _D4core4time8Duration3maxFNaNbNdNfZS4core4time8Duration 0000000140033b10 f i druntime64:time_15c_346.obj
 0001:00032b30       _D4core4time8Duration3minFNaNbNdNfZS4core4time8Duration 0000000140033b30 f i druntime64:time_15c_346.obj
 0001:00032b50       _D4core4time8Duration5opCmpMxFNaNbNfS4core4time8DurationZi 0000000140033b50 f i druntime64:time_15c_346.obj
 0001:00032b70       _D4core4time8Duration5weeksMxFNaNbNdNfZl 0000000140033b70 f i druntime64:time_15c_346.obj
 0001:00032ba0       _D4core4time8Duration4daysMxFNaNbNdNfZl 0000000140033ba0 f i druntime64:time_15c_346.obj
 0001:00032c10       _D4core4time8Duration5hoursMxFNaNbNdNfZl 0000000140033c10 f i druntime64:time_15c_346.obj
 0001:00032c80       _D4core4time8Duration7minutesMxFNaNbNdNfZl 0000000140033c80 f i druntime64:time_15c_346.obj
 0001:00032cf0       _D4core4time8Duration7secondsMxFNaNbNdNfZl 0000000140033cf0 f i druntime64:time_15c_346.obj
 0001:00032d50       _D4core4time8Duration7fracSecMxFNaNbNdNfZS4core4time7FracSec 0000000140033d50 f i druntime64:time_15c_346.obj
 0001:00032de0       _D4core4time8Duration8toStringMFZAya 0000000140033de0 f i druntime64:time_15c_346.obj
 0001:00032e00       _D4core4time8Duration8toStringMxFNaNbNfZAya 0000000140033e00 f i druntime64:time_15c_346.obj
 0001:00032e20       _D4core4time8Duration10isNegativeMxFNaNbNdNfZb 0000000140033e20 f i druntime64:time_15c_346.obj
 0001:00032e30       _D4core4time8Duration13_toStringImplMxFNaNbNfZAya 0000000140033e30 f i druntime64:time_15c_346.obj
 0001:00033760       _D4core4time8Duration13_toStringImplMxFNaNbNfZAya10appListSepFNbNfKAyakbZv 0000000140034760 f i druntime64:time_15c_346.obj
 0001:000337f0       _D4core4time8Duration6__ctorMFNaNbNcNflZS4core4time8Duration 00000001400347f0 f i druntime64:time_15c_346.obj
 0001:00033800       _D4core4time8Duration8__xopCmpFKxS4core4time8DurationKxS4core4time8DurationZi 0000000140034800 f i druntime64:time_15c_346.obj
 0001:00033820       _D4core6thread6Thread5sleepFS4core4time8DurationZv 0000000140034820 f i druntime64:thread_116_219.obj
 0001:00033900       _D2rt8typeinfo7ti_long10TypeInfo_l8toStringMxFNaNbNeZAya 0000000140034900 f i druntime64:ti_long_5bf_3f9.obj
 0001:00033920       _D2rt8typeinfo7ti_long10TypeInfo_l7getHashMxFNaNbNexPvZm 0000000140034920 f i druntime64:ti_long_5bf_3f9.obj
 0001:00033950       _D2rt8typeinfo7ti_long10TypeInfo_l6equalsMxFNaNbNexPvxPvZb 0000000140034950 f i druntime64:ti_long_5bf_3f9.obj
 0001:00033970       _D2rt8typeinfo7ti_long10TypeInfo_l7compareMxFNaNbNexPvxPvZi 0000000140034970 f i druntime64:ti_long_5bf_3f9.obj
 0001:000339a0       _D2rt8typeinfo7ti_long10TypeInfo_l5tsizeMxFNaNbNdNeZm 00000001400349a0 f i druntime64:ti_long_5bf_3f9.obj
 0001:000339b0       _D2rt8typeinfo7ti_long10TypeInfo_l4swapMxFNaNbNePvPvZv 00000001400349b0 f i druntime64:ti_long_5bf_3f9.obj
 0001:000339d0       _D2rt8typeinfo7ti_long10TypeInfo_l6talignMxFNaNbNdNeZm 00000001400349d0 f i druntime64:ti_long_5bf_3f9.obj
 0001:000339e0       _D4core6thread6Thread3runMFZv 00000001400349e0 f i druntime64:thread_11c_155.obj
 0001:00033a30       _D2rt3aaA7__arrayZ         0000000140034a30 f i druntime64:aaA.obj
 0001:00033a50       _D2rt3aaA8__assertFiZv     0000000140034a50 f i druntime64:aaA.obj
 0001:00033a70       _D2rt3aaA15__unittest_failFiZv 0000000140034a70 f i druntime64:aaA.obj
 0001:00033a90       _D4core6thread15scanAllTypeImplFMDFE4core6thread8ScanTypePvPvZvPvZv 0000000140034a90 f i druntime64:thread_13e_5f2.obj
 0001:00033c30       _D4core6thread15scanAllTypeImplFMDFE4core6thread8ScanTypePvPvZvPvZv20__T9__lambda3TPvTPvZ9__lambda3MFPvPvZv 0000000140034c30 f i druntime64:thread_13e_5f2.obj
 0001:00033c50       _D4core6thread18callWithStackShellFMDFPvZvZv 0000000140034c50 f i druntime64:thread_137_726.obj
 0001:00033ca0       _D4core6atomic28__T8atomicOpVAyaa2_2d3dTmTmZ8atomicOpFNaNbKOmmZm 0000000140034ca0 f i druntime64:atomic_6d_93e.obj
 0001:00033cf0       _d_monitor_destroy         0000000140034cf0 f i druntime64:monitor__501_793.obj
 0001:00033d30       _D4core4time7FracSec4zeroFNaNbNdNfZS4core4time7FracSec 0000000140034d30 f i druntime64:time_16a_297.obj
 0001:00033d40       _D4core4time7FracSec5msecsMxFNaNbNdNfZi 0000000140034d40 f i druntime64:time_16a_297.obj
 0001:00033d70       _D4core4time7FracSec5msecsMFNaNdNfiZv 0000000140034d70 f i druntime64:time_16a_297.obj
 0001:00033db0       _D4core4time7FracSec5usecsMxFNaNbNdNfZi 0000000140034db0 f i druntime64:time_16a_297.obj
 0001:00033de0       _D4core4time7FracSec5usecsMFNaNdNfiZv 0000000140034de0 f i druntime64:time_16a_297.obj
 0001:00033e20       _D4core4time7FracSec6hnsecsMxFNaNbNdNfZi 0000000140034e20 f i druntime64:time_16a_297.obj
 0001:00033e30       _D4core4time7FracSec6hnsecsMFNaNdNfiZv 0000000140034e30 f i druntime64:time_16a_297.obj
 0001:00033e60       _D4core4time7FracSec5nsecsMxFNaNbNdNfZi 0000000140034e60 f i druntime64:time_16a_297.obj
 0001:00033e70       _D4core4time7FracSec5nsecsMFNaNdNflZv 0000000140034e70 f i druntime64:time_16a_297.obj
 0001:00033ed0       _D4core4time7FracSec8toStringMFZAya 0000000140034ed0 f i druntime64:time_16a_297.obj
 0001:00033ef0       _D4core4time7FracSec8toStringMxFNaNbNfZAya 0000000140034ef0 f i druntime64:time_16a_297.obj
 0001:00033f10       _D4core4time7FracSec13_toStringImplMxFNaNbNfZAya 0000000140034f10 f i druntime64:time_16a_297.obj
 0001:00034100       _D4core4time7FracSec6_validFNaNfiZb 0000000140035100 f i druntime64:time_16a_297.obj
 0001:00034130       _D4core4time7FracSec13_enforceValidFNaNfiZv 0000000140035130 f i druntime64:time_16a_297.obj
 0001:000341e0       _D4core4time7FracSec6__ctorMFNaNbNcNfiZS4core4time7FracSec 00000001400351e0 f i druntime64:time_16a_297.obj
 0001:000341f0       _D4core4time7FracSec12__invariant8MxFNaNfZv 00000001400351f0 f i druntime64:time_16a_297.obj
 0001:000342f0       _D4core4time7FracSec11__invariantMxFNaNfZv 00000001400352f0 f i druntime64:time_16a_297.obj
 0001:00034310       _D4core4time11numToStringFNaNbNflZAya 0000000140035310 f i druntime64:time_170_48a.obj
 0001:000344b0       _D2rt3aaA4Impl5keytiMxFNaNbNdNfZxC8TypeInfo 00000001400354b0 f i druntime64:aaA_379_192.obj
 0001:000344c0       _D2rt3aaA4Impl11__xopEqualsFKxS2rt3aaA4ImplKxS2rt3aaA4ImplZb 00000001400354c0 f i druntime64:aaA_379_192.obj
 0001:00034570       _D4core6atomic46__T10atomicLoadVE4core6atomic11MemoryOrder0TmZ10atomicLoadFNaNbKOxmZm 0000000140035570 f i druntime64:atomic_68_d81.obj
 0001:00034590       _D4core6atomic20__T7casImplTmTxmTxmZ7casImplFNaNbPOmxmxmZb 0000000140035590 f i druntime64:atomic_6b_f32.obj
 0001:000345c0       _D3std5array7__arrayZ      00000001400355c0 f i phobos64:array.obj
 0001:000345e0       _D3std5array8__assertFiZv  00000001400355e0 f i phobos64:array.obj
 0001:00034600       _D3std5array15__unittest_failFiZv 0000000140035600 f i phobos64:array.obj
 0001:00034620       _D3std6format15FormatException6__ctorMFNaNbNfZC3std6format15FormatException 0000000140035620 f i phobos64:format_106_618.obj
 0001:00034690       _D3std6format15FormatException6__ctorMFNaNbNfAyaAyamC6object9ThrowableZC3std6format15FormatException 0000000140035690 f i phobos64:format_106_618.obj
 0001:000346f0       _D3std6format7__arrayZ     00000001400356f0 f i phobos64:format.obj
 0001:00034710       _D3std6format8__assertFiZv 0000000140035710 f i phobos64:format.obj
 0001:00034730       _D3std6format15__unittest_failFiZv 0000000140035730 f i phobos64:format.obj
 0001:00034750       _D3std3utf12UTFException11setSequenceMFNaNbNfAkXC3std3utf12UTFException 0000000140035750 f i phobos64:utf_7d8_49e.obj
 0001:00034800       _D3std3utf12UTFException6__ctorMFNaNbNfAyaAyamC6object9ThrowableZC3std3utf12UTFException 0000000140035800 f i phobos64:utf_7d8_49e.obj
 0001:00034860       _D3std3utf12UTFException6__ctorMFNaNfAyamAyamC6object9ThrowableZC3std3utf12UTFException 0000000140035860 f i phobos64:utf_7d8_49e.obj
 0001:00034920       _D3std3utf12UTFException8toStringMFZAya 0000000140035920 f i phobos64:utf_7d8_49e.obj
 0001:00034a30       _D3std5range7__arrayZ      0000000140035a30 f i phobos64:range.obj
 0001:00034a50       _D3std5range8__assertFiZv  0000000140035a50 f i phobos64:range.obj
 0001:00034a70       _D3std5range15__unittest_failFiZv 0000000140035a70 f i phobos64:range.obj
 0001:00034a90       _D3std3uni7__arrayZ        0000000140035a90 f i phobos64:uni.obj
 0001:00034ab0       _D3std3uni8__assertFiZv    0000000140035ab0 f i phobos64:uni.obj
 0001:00034ad0       _D3std3uni15__unittest_failFiZv 0000000140035ad0 f i phobos64:uni.obj
 0001:00034af0       _D3std3uni38__T13InversionListTS3std3uni8GcPolicyZ13InversionList10byIntervalMFNaNbNdNeZS3std3uni38__T13InversionListTS3std3uni8GcPolicyZ13InversionList75__T9IntervalsTS3std3uni36__T11Uint24ArrayTS3std3uni8GcPolicyZ11Uint24ArrayZ9Intervals 0000000140035af0 f i phobos64:uni_928_8e5.obj
 0001:00034b70       _D3std3uni38__T13InversionListTS3std3uni8GcPolicyZ13InversionList7opIndexMxFNaNbNekZb 0000000140035b70 f i phobos64:uni_928_8e5.obj
 0001:00034bc0       _D3std3uni38__T13InversionListTS3std3uni8GcPolicyZ13InversionList6lengthMFNdNeZm 0000000140035bc0 f i phobos64:uni_928_8e5.obj
 0001:00034cb0       _D3std3uni38__T13InversionListTS3std3uni8GcPolicyZ13InversionList11byCodepointMFNdNeZS3std3uni38__T13InversionListTS3std3uni8GcPolicyZ13InversionList11byCodepointMFNdZ14CodepointRange 0000000140035cb0 f i phobos64:uni_928_8e5.obj
 0001:00034d30       _D3std3uni38__T13InversionListTS3std3uni8GcPolicyZ13InversionList11byCodepointMFNdNeZS3std3uni38__T13InversionListTS3std3uni8GcPolicyZ13InversionList11byCodepointMFNdZ14CodepointRange14CodepointRange6__ctorMFNcNeS3std3uni38__T13InversionListTS3std3uni8GcPolicyZ13InversionListZS3std3uni38__T13InversionListTS3std3uni8GcPolicyZ13InversionList11byCodepointMFNdZ14CodepointRange 0000000140035d30 f i phobos64:uni_928_8e5.obj
 0001:00034e10       _D3std3uni38__T13InversionListTS3std3uni8GcPolicyZ13InversionList11byCodepointMFNdNeZS3std3uni38__T13InversionListTS3std3uni8GcPolicyZ13InversionList11byCodepointMFNdZ14CodepointRange14CodepointRange5frontMxFNaNbNdNeZw 0000000140035e10 f i phobos64:uni_928_8e5.obj
 0001:00034e20       _D3std3uni38__T13InversionListTS3std3uni8GcPolicyZ13InversionList11byCodepointMFNdNeZS3std3uni38__T13InversionListTS3std3uni8GcPolicyZ13InversionList11byCodepointMFNdZ14CodepointRange14CodepointRange5emptyMxFNaNbNdNeZb 0000000140035e20 f i phobos64:uni_928_8e5.obj
 0001:00034e40       _D3std3uni38__T13InversionListTS3std3uni8GcPolicyZ13InversionList11byCodepointMFNdNeZS3std3uni38__T13InversionListTS3std3uni8GcPolicyZ13InversionList11byCodepointMFNdZ14CodepointRange14CodepointRange8popFrontMFNeZv 0000000140035e40 f i phobos64:uni_928_8e5.obj
 0001:00034f30       _D3std3uni38__T13InversionListTS3std3uni8GcPolicyZ13InversionList11byCodepointMFNdNeZS3std3uni38__T13InversionListTS3std3uni8GcPolicyZ13InversionList11byCodepointMFNdZ14CodepointRange14CodepointRange11__fieldDtorMFNaNbNeZv 0000000140035f30 f i phobos64:uni_928_8e5.obj
 0001:00034f50       _D3std3uni38__T13InversionListTS3std3uni8GcPolicyZ13InversionList11byCodepointMFNdNeZS3std3uni38__T13InversionListTS3std3uni8GcPolicyZ13InversionList11byCodepointMFNdZ14CodepointRange14CodepointRange15__fieldPostBlitMFNaNbNeZv 0000000140035f50 f i phobos64:uni_928_8e5.obj
 0001:00034f70       _D3std3uni38__T13InversionListTS3std3uni8GcPolicyZ13InversionList11byCodepointMFNdNeZS3std3uni38__T13InversionListTS3std3uni8GcPolicyZ13InversionList11byCodepointMFNdZ14CodepointRange14CodepointRange8__cpctorMxFNaNbNeKxS3std3uni38__T13InversionListTS3std3uni8GcPolicyZ13InversionList11byCodepointMFNdZ14CodepointRangeZv 0000000140035f70 f i phobos64:uni_928_8e5.obj
 0001:00034fa0       _D3std3uni38__T13InversionListTS3std3uni8GcPolicyZ13InversionList11byCodepointMFNdNeZS3std3uni38__T13InversionListTS3std3uni8GcPolicyZ13InversionList11byCodepointMFNdZ14CodepointRange14CodepointRange8opAssignMFNaNbNcNeS3std3uni38__T13InversionListTS3std3uni8GcPolicyZ13InversionList11byCodepointMFNdZ14CodepointRangeZS3std3uni38__T13InversionListTS3std3uni8GcPolicyZ13InversionList11byCodepointMFNdZ14CodepointRange 0000000140035fa0 f i phobos64:uni_928_8e5.obj
 0001:00034ff0       _D3std3uni38__T13InversionListTS3std3uni8GcPolicyZ13InversionList11byCodepointMFNdNeZS3std3uni38__T13InversionListTS3std3uni8GcPolicyZ13InversionList11byCodepointMFNdZ14CodepointRange14CodepointRange11__xopEqualsFNeKxS3std3uni38__T13InversionListTS3std3uni8GcPolicyZ13InversionList11byCodepointMFNdZ14CodepointRangeKxS3std3uni38__T13InversionListTS3std3uni8GcPolicyZ13InversionList11byCodepointMFNdZ14CodepointRangeZb 0000000140035ff0 f i phobos64:uni_928_8e5.obj
 0001:00035050       _D3std3uni38__T13InversionListTS3std3uni8GcPolicyZ13InversionList8toStringMFNeMDFAxaZvZv 0000000140036050 f i phobos64:uni_928_8e5.obj
 0001:000352f0       _D3std3uni38__T13InversionListTS3std3uni8GcPolicyZ13InversionList8invertedMFNaNdNeZS3std3uni38__T13InversionListTS3std3uni8GcPolicyZ13InversionList 00000001400362f0 f i phobos64:uni_928_8e5.obj
 0001:000355f0       _D3std3uni38__T13InversionListTS3std3uni8GcPolicyZ13InversionList12toSourceCodeMFNeAyaZAya 00000001400365f0 f i phobos64:uni_928_8e5.obj
 0001:00035830       _D3std3uni38__T13InversionListTS3std3uni8GcPolicyZ13InversionList5emptyMxFNaNbNdNeZb 0000000140036830 f i phobos64:uni_928_8e5.obj
 0001:00035850       _D3std3uni38__T13InversionListTS3std3uni8GcPolicyZ13InversionList8sanitizeMFNeZv 0000000140036850 f i phobos64:uni_928_8e5.obj
 0001:00035b20       _D3std3uni38__T13InversionListTS3std3uni8GcPolicyZ13InversionList7subCharMFNaNcNewZS3std3uni38__T13InversionListTS3std3uni8GcPolicyZ13InversionList 0000000140036b20 f i phobos64:uni_928_8e5.obj
 0001:00035bd0       _D3std3uni38__T13InversionListTS3std3uni8GcPolicyZ13InversionList11addIntervalMFNaNeiimZm 0000000140036bd0 f i phobos64:uni_928_8e5.obj
 0001:000361b0       _D3std3uni38__T13InversionListTS3std3uni8GcPolicyZ13InversionList8dropUpToMFNaNekmZm 00000001400371b0 f i phobos64:uni_928_8e5.obj
 0001:00036420       _D3std3uni38__T13InversionListTS3std3uni8GcPolicyZ13InversionList8skipUpToMFNaNekmZm 0000000140037420 f i phobos64:uni_928_8e5.obj
 0001:00036630       _D3std3uni36__T11Uint24ArrayTS3std3uni8GcPolicyZ11Uint24Array10__postblitMFNaNbNeZv 0000000140037630 f i phobos64:uni_928_8e5.obj
 0001:00036680       _D3std3uni36__T11Uint24ArrayTS3std3uni8GcPolicyZ11Uint24Array6__dtorMFNaNbNeZv 0000000140037680 f i phobos64:uni_928_8e5.obj
 0001:000366e0       _D3std3uni36__T11Uint24ArrayTS3std3uni8GcPolicyZ11Uint24Array5emptyMxFNaNbNdNeZb 00000001400376e0 f i phobos64:uni_928_8e5.obj
 0001:00036700       _D3std3uni36__T11Uint24ArrayTS3std3uni8GcPolicyZ11Uint24Array6lengthMxFNaNbNdNeZm 0000000140037700 f i phobos64:uni_928_8e5.obj
 0001:00036730       _D3std3uni36__T11Uint24ArrayTS3std3uni8GcPolicyZ11Uint24Array6lengthMFNaNdNemZv 0000000140037730 f i phobos64:uni_928_8e5.obj
 0001:000368c0       _D3std3uni36__T11Uint24ArrayTS3std3uni8GcPolicyZ11Uint24Array7opIndexMxFNaNbNemZk 00000001400378c0 f i phobos64:uni_928_8e5.obj
 0001:000368e0       _D3std3uni36__T11Uint24ArrayTS3std3uni8GcPolicyZ11Uint24Array13opIndexAssignMFNaNekmZv 00000001400378e0 f i phobos64:uni_928_8e5.obj
 0001:00036940       _D3std3uni36__T11Uint24ArrayTS3std3uni8GcPolicyZ11Uint24Array7opSliceMFNaNbNemmZS3std3uni83__T16SliceOverIndexedTS3std3uni36__T11Uint24ArrayTS3std3uni8GcPolicyZ11Uint24ArrayZ16SliceOverIndexed 0000000140037940 f i phobos64:uni_928_8e5.obj
 0001:00036980       _D3std3uni36__T11Uint24ArrayTS3std3uni8GcPolicyZ11Uint24Array7opSliceMxFNaNbNemmZS3std3uni84__T16SliceOverIndexedTxS3std3uni36__T11Uint24ArrayTS3std3uni8GcPolicyZ11Uint24ArrayZ16SliceOverIndexed 0000000140037980 f i phobos64:uni_928_8e5.obj
 0001:000369c0       _D3std3uni36__T11Uint24ArrayTS3std3uni8GcPolicyZ11Uint24Array7opSliceMFNaNbNeZS3std3uni83__T16SliceOverIndexedTS3std3uni36__T11Uint24ArrayTS3std3uni8GcPolicyZ11Uint24ArrayZ16SliceOverIndexed 00000001400379c0 f i phobos64:uni_928_8e5.obj
 0001:00036a20       _D3std3uni36__T11Uint24ArrayTS3std3uni8GcPolicyZ11Uint24Array7opSliceMxFNaNbNeZS3std3uni84__T16SliceOverIndexedTxS3std3uni36__T11Uint24ArrayTS3std3uni8GcPolicyZ11Uint24ArrayZ16SliceOverIndexed 0000000140037a20 f i phobos64:uni_928_8e5.obj
 0001:00036a80       _D3std3uni36__T11Uint24ArrayTS3std3uni8GcPolicyZ11Uint24Array8refCountMxFNaNbNdNeZk 0000000140037a80 f i phobos64:uni_928_8e5.obj
 0001:00036ac0       _D3std3uni36__T11Uint24ArrayTS3std3uni8GcPolicyZ11Uint24Array8refCountMFNaNbNdNekZv 0000000140037ac0 f i phobos64:uni_928_8e5.obj
 0001:00036b00       _D3std3uni36__T11Uint24ArrayTS3std3uni8GcPolicyZ11Uint24Array17freeThisReferenceMFNaNbNeZv 0000000140037b00 f i phobos64:uni_928_8e5.obj
 0001:00036b90       _D3std3uni36__T11Uint24ArrayTS3std3uni8GcPolicyZ11Uint24Array16dupThisReferenceMFNaNekZv 0000000140037b90 f i phobos64:uni_928_8e5.obj
 0001:00036c40       _D3std3uni36__T11Uint24ArrayTS3std3uni8GcPolicyZ11Uint24Array8__cpctorMxFNaNbNeKxS3std3uni36__T11Uint24ArrayTS3std3uni8GcPolicyZ11Uint24ArrayZv 0000000140037c40 f i phobos64:uni_928_8e5.obj
 0001:00036c70       _D3std3uni36__T11Uint24ArrayTS3std3uni8GcPolicyZ11Uint24Array8opAssignMFNaNbNcNeS3std3uni36__T11Uint24ArrayTS3std3uni8GcPolicyZ11Uint24ArrayZS3std3uni36__T11Uint24ArrayTS3std3uni8GcPolicyZ11Uint24Array 0000000140037c70 f i phobos64:uni_928_8e5.obj
 0001:00036cc0       _D3std3uni36__T11Uint24ArrayTS3std3uni8GcPolicyZ11Uint24Array11__xopEqualsFNeKxS3std3uni36__T11Uint24ArrayTS3std3uni8GcPolicyZ11Uint24ArrayKxS3std3uni36__T11Uint24ArrayTS3std3uni8GcPolicyZ11Uint24ArrayZb 0000000140037cc0 f i phobos64:uni_928_8e5.obj
 0001:00036ce0       _D3std3uni38__T13InversionListTS3std3uni8GcPolicyZ13InversionList11__fieldDtorMFNaNbNeZv 0000000140037ce0 f i phobos64:uni_928_8e5.obj
 0001:00036d00       _D3std3uni38__T13InversionListTS3std3uni8GcPolicyZ13InversionList15__fieldPostBlitMFNaNbNeZv 0000000140037d00 f i phobos64:uni_928_8e5.obj
 0001:00036d20       _D3std3uni38__T13InversionListTS3std3uni8GcPolicyZ13InversionList8__cpctorMxFNaNbNeKxS3std3uni38__T13InversionListTS3std3uni8GcPolicyZ13InversionListZv 0000000140037d20 f i phobos64:uni_928_8e5.obj
 0001:00036d50       _D3std3uni38__T13InversionListTS3std3uni8GcPolicyZ13InversionList8opAssignMFNaNbNcNeS3std3uni38__T13InversionListTS3std3uni8GcPolicyZ13InversionListZS3std3uni38__T13InversionListTS3std3uni8GcPolicyZ13InversionList 0000000140037d50 f i phobos64:uni_928_8e5.obj
 0001:00036da0       _D3std3uni38__T13InversionListTS3std3uni8GcPolicyZ13InversionList11__xopEqualsFNeKxS3std3uni38__T13InversionListTS3std3uni8GcPolicyZ13InversionListKxS3std3uni38__T13InversionListTS3std3uni8GcPolicyZ13InversionListZb 0000000140037da0 f i phobos64:uni_928_8e5.obj
 0001:00036dc0       _D3std4conv21ConvOverflowException6__ctorMFNaNbNfAyaAyamZC3std4conv21ConvOverflowException 0000000140037dc0 f i phobos64:conv_2967_899.obj
 0001:00036e20       _D3std3uni42__T11Uint24ArrayTS3std3uni13ReallocPolicyZ11Uint24Array10__postblitMFNaNbNeZv 0000000140037e20 f i phobos64:uni_925_9a9.obj
 0001:00036e70       _D3std3uni42__T11Uint24ArrayTS3std3uni13ReallocPolicyZ11Uint24Array6__dtorMFNbNeZv 0000000140037e70 f i phobos64:uni_925_9a9.obj
 0001:00036ed0       _D3std3uni42__T11Uint24ArrayTS3std3uni13ReallocPolicyZ11Uint24Array5emptyMxFNaNbNdNeZb 0000000140037ed0 f i phobos64:uni_925_9a9.obj
 0001:00036ef0       _D3std3uni42__T11Uint24ArrayTS3std3uni13ReallocPolicyZ11Uint24Array6lengthMxFNaNbNdNeZm 0000000140037ef0 f i phobos64:uni_925_9a9.obj
 0001:00036f20       _D3std3uni42__T11Uint24ArrayTS3std3uni13ReallocPolicyZ11Uint24Array6lengthMFNdNemZv 0000000140037f20 f i phobos64:uni_925_9a9.obj
 0001:000370b0       _D3std3uni42__T11Uint24ArrayTS3std3uni13ReallocPolicyZ11Uint24Array7opIndexMxFNaNbNemZk 00000001400380b0 f i phobos64:uni_925_9a9.obj
 0001:000370d0       _D3std3uni42__T11Uint24ArrayTS3std3uni13ReallocPolicyZ11Uint24Array13opIndexAssignMFNekmZv 00000001400380d0 f i phobos64:uni_925_9a9.obj
 0001:00037130       _D3std3uni42__T11Uint24ArrayTS3std3uni13ReallocPolicyZ11Uint24Array7opSliceMFNaNbNemmZS3std3uni89__T16SliceOverIndexedTS3std3uni42__T11Uint24ArrayTS3std3uni13ReallocPolicyZ11Uint24ArrayZ16SliceOverIndexed 0000000140038130 f i phobos64:uni_925_9a9.obj
 0001:00037170       _D3std3uni42__T11Uint24ArrayTS3std3uni13ReallocPolicyZ11Uint24Array7opSliceMxFNaNbNemmZS3std3uni90__T16SliceOverIndexedTxS3std3uni42__T11Uint24ArrayTS3std3uni13ReallocPolicyZ11Uint24ArrayZ16SliceOverIndexed 0000000140038170 f i phobos64:uni_925_9a9.obj
 0001:000371b0       _D3std3uni42__T11Uint24ArrayTS3std3uni13ReallocPolicyZ11Uint24Array7opSliceMFNaNbNeZS3std3uni89__T16SliceOverIndexedTS3std3uni42__T11Uint24ArrayTS3std3uni13ReallocPolicyZ11Uint24ArrayZ16SliceOverIndexed 00000001400381b0 f i phobos64:uni_925_9a9.obj
 0001:00037210       _D3std3uni42__T11Uint24ArrayTS3std3uni13ReallocPolicyZ11Uint24Array7opSliceMxFNaNbNeZS3std3uni90__T16SliceOverIndexedTxS3std3uni42__T11Uint24ArrayTS3std3uni13ReallocPolicyZ11Uint24ArrayZ16SliceOverIndexed 0000000140038210 f i phobos64:uni_925_9a9.obj
 0001:00037270       _D3std3uni42__T11Uint24ArrayTS3std3uni13ReallocPolicyZ11Uint24Array8refCountMxFNaNbNdNeZk 0000000140038270 f i phobos64:uni_925_9a9.obj
 0001:000372b0       _D3std3uni42__T11Uint24ArrayTS3std3uni13ReallocPolicyZ11Uint24Array8refCountMFNaNbNdNekZv 00000001400382b0 f i phobos64:uni_925_9a9.obj
 0001:000372f0       _D3std3uni42__T11Uint24ArrayTS3std3uni13ReallocPolicyZ11Uint24Array17freeThisReferenceMFNbNeZv 00000001400382f0 f i phobos64:uni_925_9a9.obj
 0001:00037380       _D3std3uni42__T11Uint24ArrayTS3std3uni13ReallocPolicyZ11Uint24Array16dupThisReferenceMFNekZv 0000000140038380 f i phobos64:uni_925_9a9.obj
 0001:00037420       _D3std3uni42__T11Uint24ArrayTS3std3uni13ReallocPolicyZ11Uint24Array8__cpctorMxFNaNbNeKxS3std3uni42__T11Uint24ArrayTS3std3uni13ReallocPolicyZ11Uint24ArrayZv 0000000140038420 f i phobos64:uni_925_9a9.obj
 0001:00037450       _D3std3uni42__T11Uint24ArrayTS3std3uni13ReallocPolicyZ11Uint24Array8opAssignMFNbNcNeS3std3uni42__T11Uint24ArrayTS3std3uni13ReallocPolicyZ11Uint24ArrayZS3std3uni42__T11Uint24ArrayTS3std3uni13ReallocPolicyZ11Uint24Array 0000000140038450 f i phobos64:uni_925_9a9.obj
 0001:000374a0       _D3std3uni42__T11Uint24ArrayTS3std3uni13ReallocPolicyZ11Uint24Array11__xopEqualsFNeKxS3std3uni42__T11Uint24ArrayTS3std3uni13ReallocPolicyZ11Uint24ArrayKxS3std3uni42__T11Uint24ArrayTS3std3uni13ReallocPolicyZ11Uint24ArrayZb 00000001400384a0 f i phobos64:uni_925_9a9.obj
 0001:000374c0       _D3std5stdio7__arrayZ      00000001400384c0 f i phobos64:stdio.obj
 0001:000374e0       _D3std5stdio8__assertFiZv  00000001400384e0 f i phobos64:stdio.obj
 0001:00037500       _D3std5stdio15__unittest_failFiZv 0000000140038500 f i phobos64:stdio.obj
 0001:00037520       _D3std4conv13ConvException6__ctorMFNaNbNfAyaAyamZC3std4conv13ConvException 0000000140038520 f i phobos64:conv_2965_545.obj
 0001:00037580       _D3std3utf7__arrayZ        0000000140038580 f i phobos64:utf.obj
 0001:000375a0       _D3std3utf8__assertFiZv    00000001400385a0 f i phobos64:utf.obj
 0001:000375c0       _D3std3utf15__unittest_failFiZv 00000001400385c0 f i phobos64:utf.obj
 0001:000375e0       _D3std5ascii7isDigitFNaNbNfwZb 00000001400385e0 f i phobos64:ascii_c9d_2cd.obj
 0001:00037600       _D3std4conv7__arrayZ       0000000140038600 f i phobos64:conv.obj
 0001:00037620       _D3std4conv8__assertFiZv   0000000140038620 f i phobos64:conv.obj
 0001:00037640       _D3std4conv15__unittest_failFiZv 0000000140038640 f i phobos64:conv.obj
 0001:00037660       _D3std3utf12isValidDcharFNaNbNfwZb 0000000140038660 f i phobos64:utf_7d9_4ae.obj
 0001:00037690       _D3std3uni11isGraphicalFNaNbNfwZb 0000000140038690 f i phobos64:uni_900_467.obj
 0001:000376d0       _D3std9exception7bailOutFNaNfAyamxAaZv 00000001400386d0 f i phobos64:exception_24d7_2d0.obj
 0001:000377a0       _D3std3utf6encodeFNaNfKG4awZm 00000001400387a0 f i phobos64:utf_7db_26e.obj
 0001:00037a40       _D3std6string15__T6formatTaTmZ6formatFNaNfxAamZAya 0000000140038a40 f i phobos64:string_d5_70a.obj
 0001:00037ae0       _D3std6string15__T6formatTaTmZ6formatFNaNfxAamZAya12__dgliteral4MFNaNfZC6object9Throwable 0000000140038ae0 f i phobos64:string_d5_70a.obj
 0001:00037bd0       _D3std6string15__T6formatTaTkZ6formatFNaNfxAakZAya 0000000140038bd0 f i phobos64:string_d6_6a5.obj
 0001:00037c70       _D3std6string15__T6formatTaTkZ6formatFNaNfxAakZAya12__dgliteral4MFNaNfZC6object9Throwable 0000000140038c70 f i phobos64:string_d6_6a5.obj
 0001:00037d60       _D3std9algorithm12__T3minTmTiZ3minFNaNbNfmiZi 0000000140038d60 f i phobos64:algorithm_27ca_5be.obj
 0001:00037d80       _D3std3uni38__T13InversionListTS3std3uni8GcPolicyZ13InversionList75__T9IntervalsTS3std3uni36__T11Uint24ArrayTS3std3uni8GcPolicyZ11Uint24ArrayZ9Intervals6__ctorMFNaNbNcNeS3std3uni36__T11Uint24ArrayTS3std3uni8GcPolicyZ11Uint24ArrayZS3std3uni38__T13InversionListTS3std3uni8GcPolicyZ13InversionList75__T9IntervalsTS3std3uni36__T11Uint24ArrayTS3std3uni8GcPolicyZ11Uint24ArrayZ9Intervals 0000000140038d80 f i phobos64:uni_bda_bbb.obj
 0001:00037e40       _D3std3uni38__T13InversionListTS3std3uni8GcPolicyZ13InversionList75__T9IntervalsTS3std3uni36__T11Uint24ArrayTS3std3uni8GcPolicyZ11Uint24ArrayZ9Intervals6__ctorMFNaNbNcNeS3std3uni36__T11Uint24ArrayTS3std3uni8GcPolicyZ11Uint24ArraymmZS3std3uni38__T13InversionListTS3std3uni8GcPolicyZ13InversionList75__T9IntervalsTS3std3uni36__T11Uint24ArrayTS3std3uni8GcPolicyZ11Uint24ArrayZ9Intervals 0000000140038e40 f i phobos64:uni_bda_bbb.obj
 0001:00037ef0       _D3std3uni38__T13InversionListTS3std3uni8GcPolicyZ13InversionList75__T9IntervalsTS3std3uni36__T11Uint24ArrayTS3std3uni8GcPolicyZ11Uint24ArrayZ9Intervals5frontMxFNdNeZS3std3uni17CodepointInterval 0000000140038ef0 f i phobos64:uni_bda_bbb.obj
 0001:00037f80       _D3std3uni38__T13InversionListTS3std3uni8GcPolicyZ13InversionList75__T9IntervalsTS3std3uni36__T11Uint24ArrayTS3std3uni8GcPolicyZ11Uint24ArrayZ9Intervals5frontMFNdNeS3std3uni17CodepointIntervalZv 0000000140038f80 f i phobos64:uni_bda_bbb.obj
 0001:00038010       _D3std3uni38__T13InversionListTS3std3uni8GcPolicyZ13InversionList75__T9IntervalsTS3std3uni36__T11Uint24ArrayTS3std3uni8GcPolicyZ11Uint24ArrayZ9Intervals4backMxFNdNeZS3std3uni17CodepointInterval 0000000140039010 f i phobos64:uni_bda_bbb.obj
 0001:000380a0       _D3std3uni38__T13InversionListTS3std3uni8GcPolicyZ13InversionList75__T9IntervalsTS3std3uni36__T11Uint24ArrayTS3std3uni8GcPolicyZ11Uint24ArrayZ9Intervals4backMFNdNeS3std3uni17CodepointIntervalZv 00000001400390a0 f i phobos64:uni_bda_bbb.obj
 0001:00038130       _D3std3uni38__T13InversionListTS3std3uni8GcPolicyZ13InversionList75__T9IntervalsTS3std3uni36__T11Uint24ArrayTS3std3uni8GcPolicyZ11Uint24ArrayZ9Intervals8popFrontMFNaNbNeZv 0000000140039130 f i phobos64:uni_bda_bbb.obj
 0001:00038140       _D3std3uni38__T13InversionListTS3std3uni8GcPolicyZ13InversionList75__T9IntervalsTS3std3uni36__T11Uint24ArrayTS3std3uni8GcPolicyZ11Uint24ArrayZ9Intervals7popBackMFNaNbNeZv 0000000140039140 f i phobos64:uni_bda_bbb.obj
 0001:00038150       _D3std3uni38__T13InversionListTS3std3uni8GcPolicyZ13InversionList75__T9IntervalsTS3std3uni36__T11Uint24ArrayTS3std3uni8GcPolicyZ11Uint24ArrayZ9Intervals7opIndexMxFNemZS3std3uni17CodepointInterval 0000000140039150 f i phobos64:uni_bda_bbb.obj
 0001:000381f0       _D3std3uni38__T13InversionListTS3std3uni8GcPolicyZ13InversionList75__T9IntervalsTS3std3uni36__T11Uint24ArrayTS3std3uni8GcPolicyZ11Uint24ArrayZ9Intervals13opIndexAssignMFNeS3std3uni17CodepointIntervalmZv 00000001400391f0 f i phobos64:uni_bda_bbb.obj
 0001:00038290       _D3std3uni38__T13InversionListTS3std3uni8GcPolicyZ13InversionList75__T9IntervalsTS3std3uni36__T11Uint24ArrayTS3std3uni8GcPolicyZ11Uint24ArrayZ9Intervals7opSliceMFNaNbNemmZS3std3uni38__T13InversionListTS3std3uni8GcPolicyZ13InversionList75__T9IntervalsTS3std3uni36__T11Uint24ArrayTS3std3uni8GcPolicyZ11Uint24ArrayZ9Intervals 0000000140039290 f i phobos64:uni_bda_bbb.obj
 0001:00038330       _D3std3uni38__T13InversionListTS3std3uni8GcPolicyZ13InversionList75__T9IntervalsTS3std3uni36__T11Uint24ArrayTS3std3uni8GcPolicyZ11Uint24ArrayZ9Intervals6lengthMxFNaNbNdNeZm 0000000140039330 f i phobos64:uni_bda_bbb.obj
 0001:00038350       _D3std3uni38__T13InversionListTS3std3uni8GcPolicyZ13InversionList75__T9IntervalsTS3std3uni36__T11Uint24ArrayTS3std3uni8GcPolicyZ11Uint24ArrayZ9Intervals5emptyMxFNaNbNdNeZb 0000000140039350 f i phobos64:uni_bda_bbb.obj
 0001:00038370       _D3std3uni38__T13InversionListTS3std3uni8GcPolicyZ13InversionList75__T9IntervalsTS3std3uni36__T11Uint24ArrayTS3std3uni8GcPolicyZ11Uint24ArrayZ9Intervals4saveMFNaNbNdNeZS3std3uni38__T13InversionListTS3std3uni8GcPolicyZ13InversionList75__T9IntervalsTS3std3uni36__T11Uint24ArrayTS3std3uni8GcPolicyZ11Uint24ArrayZ9Intervals 0000000140039370 f i phobos64:uni_bda_bbb.obj
 0001:000383b0       _D3std3uni38__T13InversionListTS3std3uni8GcPolicyZ13InversionList75__T9IntervalsTS3std3uni36__T11Uint24ArrayTS3std3uni8GcPolicyZ11Uint24ArrayZ9Intervals11__fieldDtorMFNaNbNeZv 00000001400393b0 f i phobos64:uni_bda_bbb.obj
 0001:000383d0       _D3std3uni38__T13InversionListTS3std3uni8GcPolicyZ13InversionList75__T9IntervalsTS3std3uni36__T11Uint24ArrayTS3std3uni8GcPolicyZ11Uint24ArrayZ9Intervals15__fieldPostBlitMFNaNbNeZv 00000001400393d0 f i phobos64:uni_bda_bbb.obj
 0001:000383f0       _D3std3uni38__T13InversionListTS3std3uni8GcPolicyZ13InversionList75__T9IntervalsTS3std3uni36__T11Uint24ArrayTS3std3uni8GcPolicyZ11Uint24ArrayZ9Intervals8__cpctorMxFNaNbNeKxS3std3uni38__T13InversionListTS3std3uni8GcPolicyZ13InversionList75__T9IntervalsTS3std3uni36__T11Uint24ArrayTS3std3uni8GcPolicyZ11Uint24ArrayZ9IntervalsZv 00000001400393f0 f i phobos64:uni_bda_bbb.obj
 0001:00038420       _D3std3uni38__T13InversionListTS3std3uni8GcPolicyZ13InversionList75__T9IntervalsTS3std3uni36__T11Uint24ArrayTS3std3uni8GcPolicyZ11Uint24ArrayZ9Intervals8opAssignMFNaNbNcNeS3std3uni38__T13InversionListTS3std3uni8GcPolicyZ13InversionList75__T9IntervalsTS3std3uni36__T11Uint24ArrayTS3std3uni8GcPolicyZ11Uint24ArrayZ9IntervalsZS3std3uni38__T13InversionListTS3std3uni8GcPolicyZ13InversionList75__T9IntervalsTS3std3uni36__T11Uint24ArrayTS3std3uni8GcPolicyZ11Uint24ArrayZ9Intervals 0000000140039420 f i phobos64:uni_bda_bbb.obj
 0001:00038470       _D3std3uni38__T13InversionListTS3std3uni8GcPolicyZ13InversionList75__T9IntervalsTS3std3uni36__T11Uint24ArrayTS3std3uni8GcPolicyZ11Uint24ArrayZ9Intervals11__xopEqualsFNeKxS3std3uni38__T13InversionListTS3std3uni8GcPolicyZ13InversionList75__T9IntervalsTS3std3uni36__T11Uint24ArrayTS3std3uni8GcPolicyZ11Uint24ArrayZ9IntervalsKxS3std3uni38__T13InversionListTS3std3uni8GcPolicyZ13InversionList75__T9IntervalsTS3std3uni36__T11Uint24ArrayTS3std3uni8GcPolicyZ11Uint24ArrayZ9IntervalsZb 0000000140039470 f i phobos64:uni_bda_bbb.obj
 0001:000384c0       _D3std9algorithm12__T3maxTkTkZ3maxFNaNbNfkkZk 00000001400394c0 f i phobos64:algorithm_27f2_5d0.obj
 0001:000384e0       _D3std3uni52__T10sharMethodS333std3uni23switchUniformLowerBoundZ147__T10sharMethodVAyaa4_613c3d62TS3std3uni84__T16SliceOverIndexedTxS3std3uni36__T11Uint24ArrayTS3std3uni8GcPolicyZ11Uint24ArrayZ16SliceOverIndexedTkZ10sharMethodFNaNbNfS3std3uni84__T16SliceOverIndexedTxS3std3uni36__T11Uint24ArrayTS3std3uni8GcPolicyZ11Uint24ArrayZ16SliceOverIndexedkZm 00000001400394e0 f i phobos64:uni_bde_1921.obj
 0001:000386c0       _D3std5range146__T12assumeSortedVAyaa4_613c3d62TS3std3uni83__T16SliceOverIndexedTS3std3uni36__T11Uint24ArrayTS3std3uni8GcPolicyZ11Uint24ArrayZ16SliceOverIndexedZ12assumeSortedFNaNbNfS3std3uni83__T16SliceOverIndexedTS3std3uni36__T11Uint24ArrayTS3std3uni8GcPolicyZ11Uint24ArrayZ16SliceOverIndexedZS3std5range145__T11SortedRangeTS3std3uni83__T16SliceOverIndexedTS3std3uni36__T11Uint24ArrayTS3std3uni8GcPolicyZ11Uint24ArrayZ16SliceOverIndexedVAyaa4_613c3d62Z11SortedRange 00000001400396c0 f i phobos64:range_47b_158d.obj
 0001:00038720       _D2rt8typeinfo7ti_Aint11TypeInfo_Ak8toStringMxFZAya 0000000140039720 f i phobos64:ti_Aint_590_439.obj
 0001:00038740       _D2rt8typeinfo7ti_Aint11TypeInfo_Ak7compareMxFxPvxPvZi 0000000140039740 f i phobos64:ti_Aint_590_439.obj
 0001:000387f0       _D2rt8typeinfo7ti_Aint11TypeInfo_Ak4nextMNgFNaNbNdZNgC8TypeInfo 00000001400397f0 f i phobos64:ti_Aint_590_439.obj
 0001:00038800       _D3std3uni8GcPolicy12__T5allocThZ5allocFNaNbNemZAh 0000000140039800 f i phobos64:uni_b91_455.obj
 0001:00038820       _D3std3uni86__T14genericReplaceTvTS3std3uni36__T11Uint24ArrayTS3std3uni8GcPolicyZ11Uint24ArrayTAiZ14genericReplaceFNaNeKS3std3uni36__T11Uint24ArrayTS3std3uni8GcPolicyZ11Uint24ArraymmAiZm 0000000140039820 f i phobos64:uni_be4_11e9.obj
 0001:00038c10       _D3std3uni38__T13InversionListTS3std3uni8GcPolicyZ13InversionList12toSourceCodeMFNeAyaZAya41__T6bisectTAS3std3uni17CodepointIntervalZ6bisectFAS3std3uni17CodepointIntervalmAyaZAya 0000000140039c10 f i phobos64:uni_be7_a8e.obj
 0001:00038f30       _D3std3uni7write24FNaNbNfPhkmZv 0000000140039f30 f i phobos64:uni_8c3_291.obj
 0001:00038f50       _D3std3uni38__T13InversionListTS3std3uni8GcPolicyZ13InversionList12toSourceCodeMFNeAyaZAya47__T11binaryScopeTAS3std3uni17CodepointIntervalZ11binaryScopeFAS3std3uni17CodepointIntervalAyaZAya 0000000140039f50 f i phobos64:uni_be5_c93.obj
 0001:00038fe0       _D3std5array162__T5arrayTS3std3uni38__T13InversionListTS3std3uni8GcPolicyZ13InversionList75__T9IntervalsTS3std3uni36__T11Uint24ArrayTS3std3uni8GcPolicyZ11Uint24ArrayZ9IntervalsZ5arrayFNfS3std3uni38__T13InversionListTS3std3uni8GcPolicyZ13InversionList75__T9IntervalsTS3std3uni36__T11Uint24ArrayTS3std3uni8GcPolicyZ11Uint24ArrayZ9IntervalsZAS3std3uni17CodepointInterval 0000000140039fe0 f i phobos64:array_67e_e4c.obj
 0001:000391a0       _D3std5array162__T5arrayTS3std3uni38__T13InversionListTS3std3uni8GcPolicyZ13InversionList75__T9IntervalsTS3std3uni36__T11Uint24ArrayTS3std3uni8GcPolicyZ11Uint24ArrayZ9IntervalsZ5arrayFNfS3std3uni38__T13InversionListTS3std3uni8GcPolicyZ13InversionList75__T9IntervalsTS3std3uni36__T11Uint24ArrayTS3std3uni8GcPolicyZ11Uint24ArrayZ9IntervalsZAS3std3uni17CodepointInterval20trustedAllocateArrayFNaNbNemZAS3std3uni17CodepointInterval 000000014003a1a0 f i phobos64:array_67e_e4c.obj
 0001:000391c0       _D3std3uni38__T13InversionListTS3std3uni8GcPolicyZ13InversionList127__T9IntervalsTS3std3uni83__T16SliceOverIndexedTS3std3uni36__T11Uint24ArrayTS3std3uni8GcPolicyZ11Uint24ArrayZ16SliceOverIndexedZ9Intervals6__ctorMFNaNbNcNeS3std3uni83__T16SliceOverIndexedTS3std3uni36__T11Uint24ArrayTS3std3uni8GcPolicyZ11Uint24ArrayZ16SliceOverIndexedZS3std3uni38__T13InversionListTS3std3uni8GcPolicyZ13InversionList127__T9IntervalsTS3std3uni83__T16SliceOverIndexedTS3std3uni36__T11Uint24ArrayTS3std3uni8GcPolicyZ11Uint24ArrayZ16SliceOverIndexedZ9Intervals 000000014003a1c0 f i phobos64:uni_b96_127a.obj
 0001:00039200       _D3std3uni38__T13InversionListTS3std3uni8GcPolicyZ13InversionList127__T9IntervalsTS3std3uni83__T16SliceOverIndexedTS3std3uni36__T11Uint24ArrayTS3std3uni8GcPolicyZ11Uint24ArrayZ16SliceOverIndexedZ9Intervals6__ctorMFNaNbNcNeS3std3uni83__T16SliceOverIndexedTS3std3uni36__T11Uint24ArrayTS3std3uni8GcPolicyZ11Uint24ArrayZ16SliceOverIndexedmmZS3std3uni38__T13InversionListTS3std3uni8GcPolicyZ13InversionList127__T9IntervalsTS3std3uni83__T16SliceOverIndexedTS3std3uni36__T11Uint24ArrayTS3std3uni8GcPolicyZ11Uint24ArrayZ16SliceOverIndexedZ9Intervals 000000014003a200 f i phobos64:uni_b96_127a.obj
 0001:00039230       _D3std3uni38__T13InversionListTS3std3uni8GcPolicyZ13InversionList127__T9IntervalsTS3std3uni83__T16SliceOverIndexedTS3std3uni36__T11Uint24ArrayTS3std3uni8GcPolicyZ11Uint24ArrayZ16SliceOverIndexedZ9Intervals5frontMxFNdNeZS3std3uni17CodepointInterval 000000014003a230 f i phobos64:uni_b96_127a.obj
 0001:000392c0       _D3std3uni38__T13InversionListTS3std3uni8GcPolicyZ13InversionList127__T9IntervalsTS3std3uni83__T16SliceOverIndexedTS3std3uni36__T11Uint24ArrayTS3std3uni8GcPolicyZ11Uint24ArrayZ16SliceOverIndexedZ9Intervals5frontMFNdNeS3std3uni17CodepointIntervalZv 000000014003a2c0 f i phobos64:uni_b96_127a.obj
 0001:00039350       _D3std3uni38__T13InversionListTS3std3uni8GcPolicyZ13InversionList127__T9IntervalsTS3std3uni83__T16SliceOverIndexedTS3std3uni36__T11Uint24ArrayTS3std3uni8GcPolicyZ11Uint24ArrayZ16SliceOverIndexedZ9Intervals4backMxFNdNeZS3std3uni17CodepointInterval 000000014003a350 f i phobos64:uni_b96_127a.obj
 0001:000393e0       _D3std3uni38__T13InversionListTS3std3uni8GcPolicyZ13InversionList127__T9IntervalsTS3std3uni83__T16SliceOverIndexedTS3std3uni36__T11Uint24ArrayTS3std3uni8GcPolicyZ11Uint24ArrayZ16SliceOverIndexedZ9Intervals4backMFNdNeS3std3uni17CodepointIntervalZv 000000014003a3e0 f i phobos64:uni_b96_127a.obj
 0001:00039470       _D3std3uni38__T13InversionListTS3std3uni8GcPolicyZ13InversionList127__T9IntervalsTS3std3uni83__T16SliceOverIndexedTS3std3uni36__T11Uint24ArrayTS3std3uni8GcPolicyZ11Uint24ArrayZ16SliceOverIndexedZ9Intervals8popFrontMFNaNbNeZv 000000014003a470 f i phobos64:uni_b96_127a.obj
 0001:00039480       _D3std3uni38__T13InversionListTS3std3uni8GcPolicyZ13InversionList127__T9IntervalsTS3std3uni83__T16SliceOverIndexedTS3std3uni36__T11Uint24ArrayTS3std3uni8GcPolicyZ11Uint24ArrayZ16SliceOverIndexedZ9Intervals7popBackMFNaNbNeZv 000000014003a480 f i phobos64:uni_b96_127a.obj
 0001:00039490       _D3std3uni38__T13InversionListTS3std3uni8GcPolicyZ13InversionList127__T9IntervalsTS3std3uni83__T16SliceOverIndexedTS3std3uni36__T11Uint24ArrayTS3std3uni8GcPolicyZ11Uint24ArrayZ16SliceOverIndexedZ9Intervals7opIndexMxFNemZS3std3uni17CodepointInterval 000000014003a490 f i phobos64:uni_b96_127a.obj
 0001:00039530       _D3std3uni38__T13InversionListTS3std3uni8GcPolicyZ13InversionList127__T9IntervalsTS3std3uni83__T16SliceOverIndexedTS3std3uni36__T11Uint24ArrayTS3std3uni8GcPolicyZ11Uint24ArrayZ16SliceOverIndexedZ9Intervals13opIndexAssignMFNeS3std3uni17CodepointIntervalmZv 000000014003a530 f i phobos64:uni_b96_127a.obj
 0001:000395d0       _D3std3uni38__T13InversionListTS3std3uni8GcPolicyZ13InversionList127__T9IntervalsTS3std3uni83__T16SliceOverIndexedTS3std3uni36__T11Uint24ArrayTS3std3uni8GcPolicyZ11Uint24ArrayZ16SliceOverIndexedZ9Intervals7opSliceMFNaNbNemmZS3std3uni38__T13InversionListTS3std3uni8GcPolicyZ13InversionList127__T9IntervalsTS3std3uni83__T16SliceOverIndexedTS3std3uni36__T11Uint24ArrayTS3std3uni8GcPolicyZ11Uint24ArrayZ16SliceOverIndexedZ9Intervals 000000014003a5d0 f i phobos64:uni_b96_127a.obj
 0001:00039660       _D3std3uni38__T13InversionListTS3std3uni8GcPolicyZ13InversionList127__T9IntervalsTS3std3uni83__T16SliceOverIndexedTS3std3uni36__T11Uint24ArrayTS3std3uni8GcPolicyZ11Uint24ArrayZ16SliceOverIndexedZ9Intervals6lengthMxFNaNbNdNeZm 000000014003a660 f i phobos64:uni_b96_127a.obj
 0001:00039680       _D3std3uni38__T13InversionListTS3std3uni8GcPolicyZ13InversionList127__T9IntervalsTS3std3uni83__T16SliceOverIndexedTS3std3uni36__T11Uint24ArrayTS3std3uni8GcPolicyZ11Uint24ArrayZ16SliceOverIndexedZ9Intervals5emptyMxFNaNbNdNeZb 000000014003a680 f i phobos64:uni_b96_127a.obj
 0001:000396a0       _D3std3uni38__T13InversionListTS3std3uni8GcPolicyZ13InversionList127__T9IntervalsTS3std3uni83__T16SliceOverIndexedTS3std3uni36__T11Uint24ArrayTS3std3uni8GcPolicyZ11Uint24ArrayZ16SliceOverIndexedZ9Intervals4saveMFNaNbNdNeZS3std3uni38__T13InversionListTS3std3uni8GcPolicyZ13InversionList127__T9IntervalsTS3std3uni83__T16SliceOverIndexedTS3std3uni36__T11Uint24ArrayTS3std3uni8GcPolicyZ11Uint24ArrayZ16SliceOverIndexedZ9Intervals 000000014003a6a0 f i phobos64:uni_b96_127a.obj
 0001:000396c0       _D3std3uni38__T13InversionListTS3std3uni8GcPolicyZ13InversionList127__T9IntervalsTS3std3uni83__T16SliceOverIndexedTS3std3uni36__T11Uint24ArrayTS3std3uni8GcPolicyZ11Uint24ArrayZ16SliceOverIndexedZ9Intervals11__xopEqualsFNeKxS3std3uni38__T13InversionListTS3std3uni8GcPolicyZ13InversionList127__T9IntervalsTS3std3uni83__T16SliceOverIndexedTS3std3uni36__T11Uint24ArrayTS3std3uni8GcPolicyZ11Uint24ArrayZ16SliceOverIndexedZ9IntervalsKxS3std3uni38__T13InversionListTS3std3uni8GcPolicyZ13InversionList127__T9IntervalsTS3std3uni83__T16SliceOverIndexedTS3std3uni36__T11Uint24ArrayTS3std3uni8GcPolicyZ11Uint24ArrayZ16SliceOverIndexedZ9IntervalsZb 000000014003a6c0 f i phobos64:uni_b96_127a.obj
 0001:00039710       _D3std9algorithm13__T3minTymTmZ3minFNaNbNfymmZym 000000014003a710 f i phobos64:algorithm_27e1_aa9.obj
 0001:00039730       _D3std3uni86__T14genericReplaceTvTS3std3uni36__T11Uint24ArrayTS3std3uni8GcPolicyZ11Uint24ArrayTAkZ14genericReplaceFNaNeKS3std3uni36__T11Uint24ArrayTS3std3uni8GcPolicyZ11Uint24ArraymmAkZm 000000014003a730 f i phobos64:uni_be2_125e.obj
 0001:00039b20       _D3std3uni6read24FNaNbNfxPhmZk 000000014003ab20 f i phobos64:uni_8c2_202.obj
 0001:00039b40       _D3std3uni36__T11Uint24ArrayTS3std3uni8GcPolicyZ11Uint24Array13__T8opEqualsZ8opEqualsMxFNaNbNeKxS3std3uni36__T11Uint24ArrayTS3std3uni8GcPolicyZ11Uint24ArrayZb 000000014003ab40 f i phobos64:uni_be0_3bc.obj
 0001:00039c10       _D3std9algorithm15__T4copyTAhTAhZ4copyFNaAhAhZAh 000000014003ac10 f i phobos64:algorithm_27e3_83b.obj
 0001:00039d10       _D3std9algorithm15__T4copyTAhTAhZ4copyFNaAhAhZAh11genericImplFNaNbNfAhAhZAh 000000014003ad10 f i phobos64:algorithm_27e3_83b.obj
 0001:00039da0       _D3std9algorithm15__T4copyTAhTAhZ4copyFNaAhAhZAh12__dgliteral4MFNaNbNfZAxa 000000014003ada0 f i phobos64:algorithm_27e3_83b.obj
 0001:00039dc0       _D3std3uni8GcPolicy14__T7reallocThZ7reallocFNaNbNeAhmZAh 000000014003adc0 f i phobos64:uni_b92_52c.obj
 0001:00039df0       _D3std6format34__T14formattedWriteTDFAxaZvTaTkTkZ14formattedWriteFDFAxaZvxAakkZk 000000014003adf0 f i phobos64:format_15f_1671.obj
 0001:0003a1c0       _D3std6format34__T14formattedWriteTDFAxaZvTaTkTkZ14formattedWriteFDFAxaZvxAakkZk9__lambda6FNaNbNeZPFNaNbNfDFAxaZvPxvKS3std6format18__T10FormatSpecTaZ10FormatSpecZv 000000014003b1c0 f i phobos64:format_15f_1671.obj
 0001:0003a1d0       _D3std6format34__T14formattedWriteTDFAxaZvTaTkTkZ14formattedWriteFDFAxaZvxAakkZk16__T9__lambda7TkZ9__lambda7FNaNbNeKkZxPv 000000014003b1d0 f i phobos64:format_15f_1671.obj
 0001:0003a1e0       _D3std6format34__T14formattedWriteTDFAxaZvTaTkTkZ14formattedWriteFDFAxaZvxAakkZk9__lambda8FNaNbNeZPFNaNbNfDFAxaZvPxvKS3std6format18__T10FormatSpecTaZ10FormatSpecZv 000000014003b1e0 f i phobos64:format_15f_1671.obj
 0001:0003a1f0       _D3std6format34__T14formattedWriteTDFAxaZvTaTkTkZ14formattedWriteFDFAxaZvxAakkZk16__T9__lambda9TkZ9__lambda9FNaNbNeKkZxPv 000000014003b1f0 f i phobos64:format_15f_1671.obj
 0001:0003a200       _D3std6format34__T14formattedWriteTDFAxaZvTaTkTkZ14formattedWriteFDFAxaZvxAakkZk13__dgliteral10MFNaNfZAya 000000014003b200 f i phobos64:format_15f_1671.obj
 0001:0003a250       _D3std3uni83__T16sliceOverIndexedTS3std3uni36__T11Uint24ArrayTS3std3uni8GcPolicyZ11Uint24ArrayZ16sliceOverIndexedFNaNbNfmmPS3std3uni36__T11Uint24ArrayTS3std3uni8GcPolicyZ11Uint24ArrayZS3std3uni83__T16SliceOverIndexedTS3std3uni36__T11Uint24ArrayTS3std3uni8GcPolicyZ11Uint24ArrayZ16SliceOverIndexed 000000014003b250 f i phobos64:uni_b93_e70.obj
 0001:0003a270       _D3std5range147__T11SortedRangeTS3std3uni83__T16SliceOverIndexedTS3std3uni36__T11Uint24ArrayTS3std3uni8GcPolicyZ11Uint24ArrayZ16SliceOverIndexedVAyaa5_61203c2062Z11SortedRange6__ctorMFNaNbNcNfS3std3uni83__T16SliceOverIndexedTS3std3uni36__T11Uint24ArrayTS3std3uni8GcPolicyZ11Uint24ArrayZ16SliceOverIndexedZS3std5range147__T11SortedRangeTS3std3uni83__T16SliceOverIndexedTS3std3uni36__T11Uint24ArrayTS3std3uni8GcPolicyZ11Uint24ArrayZ16SliceOverIndexedVAyaa5_61203c2062Z11SortedRange 000000014003b270 f i phobos64:range_44e_14ef.obj
 0001:0003a290       _D3std5range147__T11SortedRangeTS3std3uni83__T16SliceOverIndexedTS3std3uni36__T11Uint24ArrayTS3std3uni8GcPolicyZ11Uint24ArrayZ16SliceOverIndexedVAyaa5_61203c2062Z11SortedRange5emptyMFNaNbNdNfZb 000000014003b290 f i phobos64:range_44e_14ef.obj
 0001:0003a2b0       _D3std5range147__T11SortedRangeTS3std3uni83__T16SliceOverIndexedTS3std3uni36__T11Uint24ArrayTS3std3uni8GcPolicyZ11Uint24ArrayZ16SliceOverIndexedVAyaa5_61203c2062Z11SortedRange4saveMFNaNbNdNfZS3std5range147__T11SortedRangeTS3std3uni83__T16SliceOverIndexedTS3std3uni36__T11Uint24ArrayTS3std3uni8GcPolicyZ11Uint24ArrayZ16SliceOverIndexedVAyaa5_61203c2062Z11SortedRange 000000014003b2b0 f i phobos64:range_44e_14ef.obj
 0001:0003a300       _D3std5range147__T11SortedRangeTS3std3uni83__T16SliceOverIndexedTS3std3uni36__T11Uint24ArrayTS3std3uni8GcPolicyZ11Uint24ArrayZ16SliceOverIndexedVAyaa5_61203c2062Z11SortedRange5frontMFNaNbNdNfZk 000000014003b300 f i phobos64:range_44e_14ef.obj
 0001:0003a320       _D3std5range147__T11SortedRangeTS3std3uni83__T16SliceOverIndexedTS3std3uni36__T11Uint24ArrayTS3std3uni8GcPolicyZ11Uint24ArrayZ16SliceOverIndexedVAyaa5_61203c2062Z11SortedRange8popFrontMFNaNbNfZv 000000014003b320 f i phobos64:range_44e_14ef.obj
 0001:0003a340       _D3std5range147__T11SortedRangeTS3std3uni83__T16SliceOverIndexedTS3std3uni36__T11Uint24ArrayTS3std3uni8GcPolicyZ11Uint24ArrayZ16SliceOverIndexedVAyaa5_61203c2062Z11SortedRange4backMFNaNbNdNfZk 000000014003b340 f i phobos64:range_44e_14ef.obj
 0001:0003a360       _D3std5range147__T11SortedRangeTS3std3uni83__T16SliceOverIndexedTS3std3uni36__T11Uint24ArrayTS3std3uni8GcPolicyZ11Uint24ArrayZ16SliceOverIndexedVAyaa5_61203c2062Z11SortedRange7popBackMFNaNbNfZv 000000014003b360 f i phobos64:range_44e_14ef.obj
 0001:0003a380       _D3std5range147__T11SortedRangeTS3std3uni83__T16SliceOverIndexedTS3std3uni36__T11Uint24ArrayTS3std3uni8GcPolicyZ11Uint24ArrayZ16SliceOverIndexedVAyaa5_61203c2062Z11SortedRange7opIndexMFNaNbNfmZk 000000014003b380 f i phobos64:range_44e_14ef.obj
 0001:0003a3a0       _D3std5range147__T11SortedRangeTS3std3uni83__T16SliceOverIndexedTS3std3uni36__T11Uint24ArrayTS3std3uni8GcPolicyZ11Uint24ArrayZ16SliceOverIndexedVAyaa5_61203c2062Z11SortedRange7opSliceMFNaNbNfmmZS3std5range147__T11SortedRangeTS3std3uni83__T16SliceOverIndexedTS3std3uni36__T11Uint24ArrayTS3std3uni8GcPolicyZ11Uint24ArrayZ16SliceOverIndexedVAyaa5_61203c2062Z11SortedRange 000000014003b3a0 f i phobos64:range_44e_14ef.obj
 0001:0003a3f0       _D3std5range147__T11SortedRangeTS3std3uni83__T16SliceOverIndexedTS3std3uni36__T11Uint24ArrayTS3std3uni8GcPolicyZ11Uint24ArrayZ16SliceOverIndexedVAyaa5_61203c2062Z11SortedRange6lengthMFNaNbNdNfZm 000000014003b3f0 f i phobos64:range_44e_14ef.obj
 0001:0003a410       _D3std5range147__T11SortedRangeTS3std3uni83__T16SliceOverIndexedTS3std3uni36__T11Uint24ArrayTS3std3uni8GcPolicyZ11Uint24ArrayZ16SliceOverIndexedVAyaa5_61203c2062Z11SortedRange7releaseMFNaNbZS3std3uni83__T16SliceOverIndexedTS3std3uni36__T11Uint24ArrayTS3std3uni8GcPolicyZ11Uint24ArrayZ16SliceOverIndexed 000000014003b410 f i phobos64:range_44e_14ef.obj
 0001:0003a450       _D3std5range147__T11SortedRangeTS3std3uni83__T16SliceOverIndexedTS3std3uni36__T11Uint24ArrayTS3std3uni8GcPolicyZ11Uint24ArrayZ16SliceOverIndexedVAyaa5_61203c2062Z11SortedRange11__xopEqualsFKxS3std5range147__T11SortedRangeTS3std3uni83__T16SliceOverIndexedTS3std3uni36__T11Uint24ArrayTS3std3uni8GcPolicyZ11Uint24ArrayZ16SliceOverIndexedVAyaa5_61203c2062Z11SortedRangeKxS3std5range147__T11SortedRangeTS3std3uni83__T16SliceOverIndexedTS3std3uni36__T11Uint24ArrayTS3std3uni8GcPolicyZ11Uint24ArrayZ16SliceOverIndexedVAyaa5_61203c2062Z11SortedRangeZb 000000014003b450 f i phobos64:range_44e_14ef.obj
 0001:0003a470       _D3std3uni17CodepointInterval6__ctorMFNcNfkkZS3std3uni17CodepointInterval 000000014003b470 f i phobos64:uni_8bd_6ea.obj
 0001:0003a480       _D3std3uni17CodepointInterval1aMFNcNdNfZk 000000014003b480 f i phobos64:uni_8bd_6ea.obj
 0001:0003a490       _D3std3uni17CodepointInterval1bMFNcNdNfZk 000000014003b490 f i phobos64:uni_8bd_6ea.obj
 0001:0003a4a0       _D3std3uni17CodepointInterval11__xopEqualsFNfKxS3std3uni17CodepointIntervalKxS3std3uni17CodepointIntervalZb 000000014003b4a0 f i phobos64:uni_8bd_6ea.obj
 0001:0003a4c0       _D3std9algorithm270__T4sortVAyaa9_612e61203c20622e61VE3std9algorithm12SwapStrategy2TS3std3uni38__T13InversionListTS3std3uni8GcPolicyZ13InversionList127__T9IntervalsTS3std3uni83__T16SliceOverIndexedTS3std3uni36__T11Uint24ArrayTS3std3uni8GcPolicyZ11Uint24ArrayZ16SliceOverIndexedZ9IntervalsZ4sortFS3std3uni38__T13InversionListTS3std3uni8GcPolicyZ13InversionList127__T9IntervalsTS3std3uni83__T16SliceOverIndexedTS3std3uni36__T11Uint24ArrayTS3std3uni8GcPolicyZ11Uint24ArrayZ16SliceOverIndexedZ9IntervalsZS3std5range247__T11SortedRangeTS3std3uni38__T13InversionListTS3std3uni8GcPolicyZ13InversionList127__T9IntervalsTS3std3uni83__T16SliceOverIndexedTS3std3uni36__T11Uint24ArrayTS3std3uni8GcPolicyZ11Uint24ArrayZ16SliceOverIndexedZ9IntervalsVAyaa9_612e61203c20622e61Z11SortedRange 000000014003b4c0 f i phobos64:algorithm_27e5_1f09.obj
 0001:0003a560       _D2rt8typeinfo7ti_Aint11TypeInfo_Ai8opEqualsMFC6ObjectZb 000000014003b560 f i phobos64:ti_Aint_58f_437.obj
 0001:0003a580       _D2rt8typeinfo7ti_Aint11TypeInfo_Ai8toStringMxFZAya 000000014003b580 f i phobos64:ti_Aint_58f_437.obj
 0001:0003a5a0       _D2rt8typeinfo7ti_Aint11TypeInfo_Ai7getHashMxFNbNexPvZm 000000014003b5a0 f i phobos64:ti_Aint_58f_437.obj
 0001:0003a5e0       _D2rt8typeinfo7ti_Aint11TypeInfo_Ai6equalsMxFxPvxPvZb 000000014003b5e0 f i phobos64:ti_Aint_58f_437.obj
 0001:0003a650       _D2rt8typeinfo7ti_Aint11TypeInfo_Ai7compareMxFxPvxPvZi 000000014003b650 f i phobos64:ti_Aint_58f_437.obj
 0001:0003a700       _D2rt8typeinfo7ti_Aint11TypeInfo_Ai4nextMNgFNaNbNdZNgC8TypeInfo 000000014003b700 f i phobos64:ti_Aint_58f_437.obj
 0001:0003a710       _D3std6string17__T6formatTaTAyaZ6formatFNaNfxAaAyaZAya 000000014003b710 f i phobos64:string_d7_77c.obj
 0001:0003a7c0       _D3std6string17__T6formatTaTAyaZ6formatFNaNfxAaAyaZAya12__dgliteral4MFNaNfZC6object9Throwable 000000014003b7c0 f i phobos64:string_d7_77c.obj
 0001:0003a8b0       _D3std5range145__T11SortedRangeTS3std3uni83__T16SliceOverIndexedTS3std3uni36__T11Uint24ArrayTS3std3uni8GcPolicyZ11Uint24ArrayZ16SliceOverIndexedVAyaa4_613c3d62Z11SortedRange6__ctorMFNaNbNcNfS3std3uni83__T16SliceOverIndexedTS3std3uni36__T11Uint24ArrayTS3std3uni8GcPolicyZ11Uint24ArrayZ16SliceOverIndexedZS3std5range145__T11SortedRangeTS3std3uni83__T16SliceOverIndexedTS3std3uni36__T11Uint24ArrayTS3std3uni8GcPolicyZ11Uint24ArrayZ16SliceOverIndexedVAyaa4_613c3d62Z11SortedRange 000000014003b8b0 f i phobos64:range_47c_14ec.obj
 0001:0003a8d0       _D3std5range145__T11SortedRangeTS3std3uni83__T16SliceOverIndexedTS3std3uni36__T11Uint24ArrayTS3std3uni8GcPolicyZ11Uint24ArrayZ16SliceOverIndexedVAyaa4_613c3d62Z11SortedRange5emptyMFNaNbNdNfZb 000000014003b8d0 f i phobos64:range_47c_14ec.obj
 0001:0003a8f0       _D3std5range145__T11SortedRangeTS3std3uni83__T16SliceOverIndexedTS3std3uni36__T11Uint24ArrayTS3std3uni8GcPolicyZ11Uint24ArrayZ16SliceOverIndexedVAyaa4_613c3d62Z11SortedRange4saveMFNaNbNdNfZS3std5range145__T11SortedRangeTS3std3uni83__T16SliceOverIndexedTS3std3uni36__T11Uint24ArrayTS3std3uni8GcPolicyZ11Uint24ArrayZ16SliceOverIndexedVAyaa4_613c3d62Z11SortedRange 000000014003b8f0 f i phobos64:range_47c_14ec.obj
 0001:0003a940       _D3std5range145__T11SortedRangeTS3std3uni83__T16SliceOverIndexedTS3std3uni36__T11Uint24ArrayTS3std3uni8GcPolicyZ11Uint24ArrayZ16SliceOverIndexedVAyaa4_613c3d62Z11SortedRange5frontMFNaNbNdNfZk 000000014003b940 f i phobos64:range_47c_14ec.obj
 0001:0003a960       _D3std5range145__T11SortedRangeTS3std3uni83__T16SliceOverIndexedTS3std3uni36__T11Uint24ArrayTS3std3uni8GcPolicyZ11Uint24ArrayZ16SliceOverIndexedVAyaa4_613c3d62Z11SortedRange8popFrontMFNaNbNfZv 000000014003b960 f i phobos64:range_47c_14ec.obj
 0001:0003a980       _D3std5range145__T11SortedRangeTS3std3uni83__T16SliceOverIndexedTS3std3uni36__T11Uint24ArrayTS3std3uni8GcPolicyZ11Uint24ArrayZ16SliceOverIndexedVAyaa4_613c3d62Z11SortedRange4backMFNaNbNdNfZk 000000014003b980 f i phobos64:range_47c_14ec.obj
 0001:0003a9a0       _D3std5range145__T11SortedRangeTS3std3uni83__T16SliceOverIndexedTS3std3uni36__T11Uint24ArrayTS3std3uni8GcPolicyZ11Uint24ArrayZ16SliceOverIndexedVAyaa4_613c3d62Z11SortedRange7popBackMFNaNbNfZv 000000014003b9a0 f i phobos64:range_47c_14ec.obj
 0001:0003a9c0       _D3std5range145__T11SortedRangeTS3std3uni83__T16SliceOverIndexedTS3std3uni36__T11Uint24ArrayTS3std3uni8GcPolicyZ11Uint24ArrayZ16SliceOverIndexedVAyaa4_613c3d62Z11SortedRange7opIndexMFNaNbNfmZk 000000014003b9c0 f i phobos64:range_47c_14ec.obj
 0001:0003a9e0       _D3std5range145__T11SortedRangeTS3std3uni83__T16SliceOverIndexedTS3std3uni36__T11Uint24ArrayTS3std3uni8GcPolicyZ11Uint24ArrayZ16SliceOverIndexedVAyaa4_613c3d62Z11SortedRange7opSliceMFNaNbNfmmZS3std5range145__T11SortedRangeTS3std3uni83__T16SliceOverIndexedTS3std3uni36__T11Uint24ArrayTS3std3uni8GcPolicyZ11Uint24ArrayZ16SliceOverIndexedVAyaa4_613c3d62Z11SortedRange 000000014003b9e0 f i phobos64:range_47c_14ec.obj
 0001:0003aa30       _D3std5range145__T11SortedRangeTS3std3uni83__T16SliceOverIndexedTS3std3uni36__T11Uint24ArrayTS3std3uni8GcPolicyZ11Uint24ArrayZ16SliceOverIndexedVAyaa4_613c3d62Z11SortedRange6lengthMFNaNbNdNfZm 000000014003ba30 f i phobos64:range_47c_14ec.obj
 0001:0003aa50       _D3std5range145__T11SortedRangeTS3std3uni83__T16SliceOverIndexedTS3std3uni36__T11Uint24ArrayTS3std3uni8GcPolicyZ11Uint24ArrayZ16SliceOverIndexedVAyaa4_613c3d62Z11SortedRange7releaseMFNaNbZS3std3uni83__T16SliceOverIndexedTS3std3uni36__T11Uint24ArrayTS3std3uni8GcPolicyZ11Uint24ArrayZ16SliceOverIndexed 000000014003ba50 f i phobos64:range_47c_14ec.obj
 0001:0003aa90       _D3std5range145__T11SortedRangeTS3std3uni83__T16SliceOverIndexedTS3std3uni36__T11Uint24ArrayTS3std3uni8GcPolicyZ11Uint24ArrayZ16SliceOverIndexedVAyaa4_613c3d62Z11SortedRange11__xopEqualsFKxS3std5range145__T11SortedRangeTS3std3uni83__T16SliceOverIndexedTS3std3uni36__T11Uint24ArrayTS3std3uni8GcPolicyZ11Uint24ArrayZ16SliceOverIndexedVAyaa4_613c3d62Z11SortedRangeKxS3std5range145__T11SortedRangeTS3std3uni83__T16SliceOverIndexedTS3std3uni36__T11Uint24ArrayTS3std3uni8GcPolicyZ11Uint24ArrayZ16SliceOverIndexedVAyaa4_613c3d62Z11SortedRangeZb 000000014003ba90 f i phobos64:range_47c_14ec.obj
 0001:0003aab0       _D3std9algorithm76__T10countUntilVAyaa11_615b305d203e2030783830TAS3std3uni17CodepointIntervalZ10countUntilFNaNbNfAS3std3uni17CodepointIntervalZl 000000014003bab0 f i phobos64:algorithm_27f8_fb0.obj
 0001:0003ab20       _D3std5range148__T12assumeSortedVAyaa5_61203c2062TS3std3uni83__T16SliceOverIndexedTS3std3uni36__T11Uint24ArrayTS3std3uni8GcPolicyZ11Uint24ArrayZ16SliceOverIndexedZ12assumeSortedFNaNbNfS3std3uni83__T16SliceOverIndexedTS3std3uni36__T11Uint24ArrayTS3std3uni8GcPolicyZ11Uint24ArrayZ16SliceOverIndexedZS3std5range147__T11SortedRangeTS3std3uni83__T16SliceOverIndexedTS3std3uni36__T11Uint24ArrayTS3std3uni8GcPolicyZ11Uint24ArrayZ16SliceOverIndexedVAyaa5_61203c2062Z11SortedRange 000000014003bb20 f i phobos64:range_44d_1590.obj
 0001:0003ab80       _D3std3uni83__T16sliceOverIndexedTS3std3uni36__T11Uint24ArrayTS3std3uni8GcPolicyZ11Uint24ArrayZ16sliceOverIndexedFNaNbNfmmPxS3std3uni36__T11Uint24ArrayTS3std3uni8GcPolicyZ11Uint24ArrayZS3std3uni84__T16SliceOverIndexedTxS3std3uni36__T11Uint24ArrayTS3std3uni8GcPolicyZ11Uint24ArrayZ16SliceOverIndexed 000000014003bb80 f i phobos64:uni_bdb_e70.obj
 0001:0003aba0       _D3std5range147__T11SortedRangeTS3std3uni83__T16SliceOverIndexedTS3std3uni36__T11Uint24ArrayTS3std3uni8GcPolicyZ11Uint24ArrayZ16SliceOverIndexedVAyaa5_61203c2062Z11SortedRange45__T10lowerBoundVE3std5range12SearchPolicy2TiZ10lowerBoundMFNaNbNfiZS3std5range147__T11SortedRangeTS3std3uni83__T16SliceOverIndexedTS3std3uni36__T11Uint24ArrayTS3std3uni8GcPolicyZ11Uint24ArrayZ16SliceOverIndexedVAyaa5_61203c2062Z11SortedRange 000000014003bba0 f i phobos64:range_452_d1e.obj
 0001:0003ac00       _D3std5range145__T11SortedRangeTS3std3uni83__T16SliceOverIndexedTS3std3uni36__T11Uint24ArrayTS3std3uni8GcPolicyZ11Uint24ArrayZ16SliceOverIndexedVAyaa4_613c3d62Z11SortedRange45__T10lowerBoundVE3std5range12SearchPolicy2TkZ10lowerBoundMFNaNbNfkZS3std5range145__T11SortedRangeTS3std3uni83__T16SliceOverIndexedTS3std3uni36__T11Uint24ArrayTS3std3uni8GcPolicyZ11Uint24ArrayZ16SliceOverIndexedVAyaa4_613c3d62Z11SortedRange 000000014003bc00 f i phobos64:range_47e_d93.obj
 0001:0003ac60       _D3std3uni36__T11Uint24ArrayTS3std3uni8GcPolicyZ11Uint24Array14__T6appendTAiZ6appendMFNaNeAiZv 000000014003bc60 f i phobos64:uni_be1_4ed.obj
 0001:0003ad10       _D3std3uni42__T11Uint24ArrayTS3std3uni13ReallocPolicyZ11Uint24Array13__T8opEqualsZ8opEqualsMxFNaNbNeKxS3std3uni42__T11Uint24ArrayTS3std3uni13ReallocPolicyZ11Uint24ArrayZb 000000014003bd10 f i phobos64:uni_bd9_3bc.obj
 0001:0003ade0       _D3std3uni89__T16sliceOverIndexedTS3std3uni42__T11Uint24ArrayTS3std3uni13ReallocPolicyZ11Uint24ArrayZ16sliceOverIndexedFNaNbNfmmPS3std3uni42__T11Uint24ArrayTS3std3uni13ReallocPolicyZ11Uint24ArrayZS3std3uni89__T16SliceOverIndexedTS3std3uni42__T11Uint24ArrayTS3std3uni13ReallocPolicyZ11Uint24ArrayZ16SliceOverIndexed 000000014003bde0 f i phobos64:uni_bd3_1088.obj
 0001:0003ae00       _D3std3uni13ReallocPolicy14__T7reallocThZ7reallocFNeAhmZAh 000000014003be00 f i phobos64:uni_bd2_52c.obj
 0001:0003aeb0       _D3std3uni13ReallocPolicy14__T7reallocThZ7reallocFNeAhmZAh12__dgliteral3MFNaNbNfZAxa 000000014003beb0 f i phobos64:uni_bd2_52c.obj
 0001:0003aed0       _D3std3uni13ReallocPolicy12__T5allocThZ5allocFNemZAh 000000014003bed0 f i phobos64:uni_bd1_455.obj
 0001:0003af50       _D3std3uni13ReallocPolicy12__T5allocThZ5allocFNemZAh12__dgliteral2MFNaNbNfZAxa 000000014003bf50 f i phobos64:uni_bd1_455.obj
 0001:0003af70       _D3std3uni89__T16sliceOverIndexedTS3std3uni42__T11Uint24ArrayTS3std3uni13ReallocPolicyZ11Uint24ArrayZ16sliceOverIndexedFNaNbNfmmPxS3std3uni42__T11Uint24ArrayTS3std3uni13ReallocPolicyZ11Uint24ArrayZS3std3uni90__T16SliceOverIndexedTxS3std3uni42__T11Uint24ArrayTS3std3uni13ReallocPolicyZ11Uint24ArrayZ16SliceOverIndexed 000000014003bf70 f i phobos64:uni_bd6_1088.obj
 0001:0003af90       _D3std9stdiobase18_sharedStaticCtor1FZv 000000014003bf90 f i phobos64:stdiobase.obj
 0001:0003afb0       _D3std9stdiobase15__modsharedctorFZv 000000014003bfb0 f i phobos64:stdiobase.obj
 0001:0003afd0       _D3std9stdiobase7__arrayZ  000000014003bfd0 f i phobos64:stdiobase.obj
 0001:0003aff0       _D3std9stdiobase8__assertFiZv 000000014003bff0 f i phobos64:stdiobase.obj
 0001:0003b010       _D3std9stdiobase15__unittest_failFiZv 000000014003c010 f i phobos64:stdiobase.obj
 0001:0003b030       _D3std5stdio14StdioException6__ctorMFAyakZC3std5stdio14StdioException 000000014003c030 f i phobos64:stdio_9_5b2.obj
 0001:0003b120       _D3std5stdio14StdioException6opCallFAyaZv 000000014003c120 f i phobos64:stdio_9_5b2.obj
 0001:0003b1a0       _D3std5stdio14StdioException6opCallFZv 000000014003c1a0 f i phobos64:stdio_9_5b2.obj
 0001:0003b210       _D3std3uni190__T4TrieTS3std3uni19__T9BitPackedTbVi1Z9BitPackedTwVm1114112TS3std3uni22__T9sliceBitsVm13Vm21Z9sliceBitsTS3std3uni21__T9sliceBitsVm8Vm13Z9sliceBitsTS3std3uni20__T9sliceBitsVm0Vm8Z9sliceBitsZ4Trie12__T7opIndexZ7opIndexMxFNaNbNewZb 000000014003c210 f i phobos64:uni_af2_349.obj
 0001:0003b300       _D3std3uni13graphicalTrieFNaNbNdNfZyS3std3uni190__T4TrieTS3std3uni19__T9BitPackedTbVi1Z9BitPackedTwVm1114112TS3std3uni22__T9sliceBitsVm13Vm21Z9sliceBitsTS3std3uni21__T9sliceBitsVm8Vm13Z9sliceBitsTS3std3uni20__T9sliceBitsVm0Vm8Z9sliceBitsZ4Trie 000000014003c300 f i phobos64:uni_912_53f.obj
 0001:0003b330       _D3std6format64__T14formattedWriteTS3std5array17__T8AppenderTAyaZ8AppenderTaTmZ14formattedWriteFNaNfS3std5array17__T8AppenderTAyaZ8AppenderxAamZk 000000014003c330 f i phobos64:format_12c_1085.obj
 0001:0003b6e0       _D3std6format64__T14formattedWriteTS3std5array17__T8AppenderTAyaZ8AppenderTaTmZ14formattedWriteFNaNfS3std5array17__T8AppenderTAyaZ8AppenderxAamZk9__lambda5FNaNbNeZPFNaNbNfS3std5array17__T8AppenderTAyaZ8AppenderPxvKS3std6format18__T10FormatSpecTaZ10FormatSpecZv 000000014003c6e0 f i phobos64:format_12c_1085.obj
 0001:0003b6f0       _D3std6format64__T14formattedWriteTS3std5array17__T8AppenderTAyaZ8AppenderTaTmZ14formattedWriteFNaNfS3std5array17__T8AppenderTAyaZ8AppenderxAamZk16__T9__lambda6TmZ9__lambda6FNaNbNeKmZxPv 000000014003c6f0 f i phobos64:format_12c_1085.obj
 0001:0003b700       _D3std6format64__T14formattedWriteTS3std5array17__T8AppenderTAyaZ8AppenderTaTmZ14formattedWriteFNaNfS3std5array17__T8AppenderTAyaZ8AppenderxAamZk12__dgliteral7MFNaNfZAya 000000014003c700 f i phobos64:format_12c_1085.obj
 0001:0003b750       _D3std3uni12ceilPowerOf2FNaNbNfmZm 000000014003c750 f i phobos64:uni_8ba_491.obj
 0001:0003b770       _D3std3uni84__T16SliceOverIndexedTxS3std3uni36__T11Uint24ArrayTS3std3uni8GcPolicyZ11Uint24ArrayZ16SliceOverIndexed7opIndexMxFNaNbNfmZk 000000014003c770 f i phobos64:uni_bdc_10c8.obj
 0001:0003b7a0       _D3std3uni84__T16SliceOverIndexedTxS3std3uni36__T11Uint24ArrayTS3std3uni8GcPolicyZ11Uint24ArrayZ16SliceOverIndexed7opSliceMFNaNbNfmmZS3std3uni84__T16SliceOverIndexedTxS3std3uni36__T11Uint24ArrayTS3std3uni8GcPolicyZ11Uint24ArrayZ16SliceOverIndexed 000000014003c7a0 f i phobos64:uni_bdc_10c8.obj
 0001:0003b7e0       _D3std3uni84__T16SliceOverIndexedTxS3std3uni36__T11Uint24ArrayTS3std3uni8GcPolicyZ11Uint24ArrayZ16SliceOverIndexed7opSliceMFNaNbNfZS3std3uni84__T16SliceOverIndexedTxS3std3uni36__T11Uint24ArrayTS3std3uni8GcPolicyZ11Uint24ArrayZ16SliceOverIndexed 000000014003c7e0 f i phobos64:uni_bdc_10c8.obj
 0001:0003b810       _D3std3uni84__T16SliceOverIndexedTxS3std3uni36__T11Uint24ArrayTS3std3uni8GcPolicyZ11Uint24ArrayZ16SliceOverIndexed6lengthMxFNaNbNdNfZm 000000014003c810 f i phobos64:uni_bdc_10c8.obj
 0001:0003b820       _D3std3uni84__T16SliceOverIndexedTxS3std3uni36__T11Uint24ArrayTS3std3uni8GcPolicyZ11Uint24ArrayZ16SliceOverIndexed8opDollarMxFNaNbNfZm 000000014003c820 f i phobos64:uni_bdc_10c8.obj
 0001:0003b840       _D3std3uni84__T16SliceOverIndexedTxS3std3uni36__T11Uint24ArrayTS3std3uni8GcPolicyZ11Uint24ArrayZ16SliceOverIndexed5emptyMxFNaNbNdNfZb 000000014003c840 f i phobos64:uni_bdc_10c8.obj
 0001:0003b860       _D3std3uni84__T16SliceOverIndexedTxS3std3uni36__T11Uint24ArrayTS3std3uni8GcPolicyZ11Uint24ArrayZ16SliceOverIndexed5frontMxFNaNbNdNfZk 000000014003c860 f i phobos64:uni_bdc_10c8.obj
 0001:0003b880       _D3std3uni84__T16SliceOverIndexedTxS3std3uni36__T11Uint24ArrayTS3std3uni8GcPolicyZ11Uint24ArrayZ16SliceOverIndexed4backMxFNaNbNdNfZk 000000014003c880 f i phobos64:uni_bdc_10c8.obj
 0001:0003b8a0       _D3std3uni84__T16SliceOverIndexedTxS3std3uni36__T11Uint24ArrayTS3std3uni8GcPolicyZ11Uint24ArrayZ16SliceOverIndexed4saveMNgFNaNbNdNfZNgS3std3uni84__T16SliceOverIndexedTxS3std3uni36__T11Uint24ArrayTS3std3uni8GcPolicyZ11Uint24ArrayZ16SliceOverIndexed 000000014003c8a0 f i phobos64:uni_bdc_10c8.obj
 0001:0003b8c0       _D3std3uni84__T16SliceOverIndexedTxS3std3uni36__T11Uint24ArrayTS3std3uni8GcPolicyZ11Uint24ArrayZ16SliceOverIndexed8popFrontMFNaNbNfZv 000000014003c8c0 f i phobos64:uni_bdc_10c8.obj
 0001:0003b8d0       _D3std3uni84__T16SliceOverIndexedTxS3std3uni36__T11Uint24ArrayTS3std3uni8GcPolicyZ11Uint24ArrayZ16SliceOverIndexed7popBackMFNaNbNfZv 000000014003c8d0 f i phobos64:uni_bdc_10c8.obj
 0001:0003b8e0       _D3std3uni84__T16SliceOverIndexedTxS3std3uni36__T11Uint24ArrayTS3std3uni8GcPolicyZ11Uint24ArrayZ16SliceOverIndexed11__xopEqualsFKxS3std3uni84__T16SliceOverIndexedTxS3std3uni36__T11Uint24ArrayTS3std3uni8GcPolicyZ11Uint24ArrayZ16SliceOverIndexedKxS3std3uni84__T16SliceOverIndexedTxS3std3uni36__T11Uint24ArrayTS3std3uni8GcPolicyZ11Uint24ArrayZ16SliceOverIndexedZb 000000014003c8e0 f i phobos64:uni_bdc_10c8.obj
 0001:0003b900       _D3std3uni10isPowerOf2FNaNbNfmZb 000000014003c900 f i phobos64:uni_8b8_3d0.obj
 0001:0003b920       _D3std3uni13floorPowerOf2FNaNbNfmZm 000000014003c920 f i phobos64:uni_8b9_516.obj
 0001:0003b940       _D3std3uni205__T23switchUniformLowerBoundS573std10functional29__T9binaryFunVAyaa4_613c3d62Z9binaryFunTS3std3uni84__T16SliceOverIndexedTxS3std3uni36__T11Uint24ArrayTS3std3uni8GcPolicyZ11Uint24ArrayZ16SliceOverIndexedTkZ23switchUniformLowerBoundFNaNbNfS3std3uni84__T16SliceOverIndexedTxS3std3uni36__T11Uint24ArrayTS3std3uni8GcPolicyZ11Uint24ArrayZ16SliceOverIndexedkZm 000000014003c940 f i phobos64:uni_bdf_20b3.obj
 0001:0003bc30       _D3std10functional29__T9binaryFunVAyaa4_613c3d62Z18__T9binaryFunTkTkZ9binaryFunFNaNbNfkkZb 000000014003cc30 f i phobos64:functional_796_7ec.obj
 0001:0003bc50       _D3std9algorithm565__T4copyTS3std5range123__T5retroTS3std3uni83__T16SliceOverIndexedTS3std3uni36__T11Uint24ArrayTS3std3uni8GcPolicyZ11Uint24ArrayZ16SliceOverIndexedZ5retroFS3std3uni83__T16SliceOverIndexedTS3std3uni36__T11Uint24ArrayTS3std3uni8GcPolicyZ11Uint24ArrayZ16SliceOverIndexedZ11__T6ResultZ6ResultTS3std5range123__T5retroTS3std3uni83__T16SliceOverIndexedTS3std3uni36__T11Uint24ArrayTS3std3uni8GcPolicyZ11Uint24ArrayZ16SliceOverIndexedZ5retroFS3std3uni83__T16SliceOverIndexedTS3std3uni36__T11Uint24ArrayTS3std3uni8GcPolicyZ11Uint24ArrayZ16SliceOverIndexedZ11__T6ResultZ6ResultZ4copyFNaNfS3std5range123__T5retroTS3std3uni83__T16SliceOverIndexedTS3std3uni36__T11Uint24ArrayTS3std3uni8GcPolicyZ11Uint24ArrayZ16SliceOverIndexedZ5retroFS3std3uni83__T16SliceOverIndexedTS3std3uni36__T11Uint24ArrayTS3std3uni8GcPolicyZ11Uint24ArrayZ16SliceOverIndexedZ11__T6ResultZ6ResultS3std5range123__T5retroTS3std3uni83__T16SliceOverIndexedTS3std3uni36__T11Uint24ArrayTS3std3uni8GcPolicyZ11Uint24ArrayZ16SliceOverIndexedZ5retroFS3std3uni83__T16SliceOverIndexedTS3std3uni36__T11Uint24ArrayTS3std3uni8GcPolicyZ11Uint24ArrayZ16SliceOverIndexedZ11__T6ResultZ6ResultZS3std5range123__T5retroTS3std3uni83__T16SliceOverIndexedTS3std3uni36__T11Uint24ArrayTS3std3uni8GcPolicyZ11Uint24ArrayZ16SliceOverIndexedZ5retroFS3std3uni83__T16SliceOverIndexedTS3std3uni36__T11Uint24ArrayTS3std3uni8GcPolicyZ11Uint24ArrayZ16SliceOverIndexedZ11__T6ResultZ6Result 000000014003cc50 f i phobos64:algorithm_27f5_85b.obj
 0001:0003bcb0       _D3std9algorithm565__T4copyTS3std5range123__T5retroTS3std3uni83__T16SliceOverIndexedTS3std3uni36__T11Uint24ArrayTS3std3uni8GcPolicyZ11Uint24ArrayZ16SliceOverIndexedZ5retroFS3std3uni83__T16SliceOverIndexedTS3std3uni36__T11Uint24ArrayTS3std3uni8GcPolicyZ11Uint24ArrayZ16SliceOverIndexedZ11__T6ResultZ6ResultTS3std5range123__T5retroTS3std3uni83__T16SliceOverIndexedTS3std3uni36__T11Uint24ArrayTS3std3uni8GcPolicyZ11Uint24ArrayZ16SliceOverIndexedZ5retroFS3std3uni83__T16SliceOverIndexedTS3std3uni36__T11Uint24ArrayTS3std3uni8GcPolicyZ11Uint24ArrayZ16SliceOverIndexedZ11__T6ResultZ6ResultZ4copyFNaNfS3std5range123__T5retroTS3std3uni83__T16SliceOverIndexedTS3std3uni36__T11Uint24ArrayTS3std3uni8GcPolicyZ11Uint24ArrayZ16SliceOverIndexedZ5retroFS3std3uni83__T16SliceOverIndexedTS3std3uni36__T11Uint24ArrayTS3std3uni8GcPolicyZ11Uint24ArrayZ16SliceOverIndexedZ11__T6ResultZ6ResultS3std5range123__T5retroTS3std3uni83__T16SliceOverIndexedTS3std3uni36__T11Uint24ArrayTS3std3uni8GcPolicyZ11Uint24ArrayZ16SliceOverIndexedZ5retroFS3std3uni83__T16SliceOverIndexedTS3std3uni36__T11Uint24ArrayTS3std3uni8GcPolicyZ11Uint24ArrayZ16SliceOverIndexedZ11__T6ResultZ6ResultZS3std5range123__T5retroTS3std3uni83__T16SliceOverIndexedTS3std3uni36__T11Uint24ArrayTS3std3uni8GcPolicyZ11Uint24ArrayZ16SliceOverIndexedZ5retroFS3std3uni83__T16SliceOverIndexedTS3std3uni36__T11Uint24ArrayTS3std3uni8GcPolicyZ11Uint24ArrayZ16SliceOverIndexedZ11__T6ResultZ6Result11genericImplFNaNfS3std5range123__T5retroTS3std3uni83__T16SliceOverIndexedTS3std3uni36__T11Uint24ArrayTS3std3uni8GcPolicyZ11Uint24ArrayZ16SliceOverIndexedZ5retroFS3std3uni83__T16SliceOverIndexedTS3std3uni36__T11Uint24ArrayTS3std3uni8GcPolicyZ11Uint24ArrayZ16SliceOverIndexedZ11__T6ResultZ6ResultS3std5range123__T5retroTS3std3uni83__T16SliceOverIndexedTS3std3uni36__T11Uint24ArrayTS3std3uni8GcPolicyZ11Uint24ArrayZ16SliceOverIndexedZ5retroFS3std3uni83__T16SliceOverIndexedTS3std3uni36__T11Uint24ArrayTS3std3uni8GcPolicyZ11Uint24ArrayZ16SliceOverIndexedZ11__T6ResultZ6ResultZS3std5range123__T5retroTS3std3uni83__T16SliceOverIndexedTS3std3uni36__T11Uint24ArrayTS3std3uni8GcPolicyZ11Uint24ArrayZ16SliceOverIndexedZ5retroFS3std3uni83__T16SliceOverIndexedTS3std3uni36__T11Uint24ArrayTS3std3uni8GcPolicyZ11Uint24ArrayZ16SliceOverIndexedZ11__T6ResultZ6Result 000000014003ccb0 f i phobos64:algorithm_27f5_85b.obj
 0001:0003bd70       _D3std5range123__T5retroTS3std3uni83__T16SliceOverIndexedTS3std3uni36__T11Uint24ArrayTS3std3uni8GcPolicyZ11Uint24ArrayZ16SliceOverIndexedZ5retroFNaNbNfS3std3uni83__T16SliceOverIndexedTS3std3uni36__T11Uint24ArrayTS3std3uni8GcPolicyZ11Uint24ArrayZ16SliceOverIndexedZS3std5range123__T5retroTS3std3uni83__T16SliceOverIndexedTS3std3uni36__T11Uint24ArrayTS3std3uni8GcPolicyZ11Uint24ArrayZ16SliceOverIndexedZ5retroFS3std3uni83__T16SliceOverIndexedTS3std3uni36__T11Uint24ArrayTS3std3uni8GcPolicyZ11Uint24ArrayZ16SliceOverIndexedZ11__T6ResultZ6Result 000000014003cd70 f i phobos64:range_45f_10ee.obj
 0001:0003bd90       _D3std9algorithm125__T4copyTAiTS3std3uni83__T16SliceOverIndexedTS3std3uni36__T11Uint24ArrayTS3std3uni8GcPolicyZ11Uint24ArrayZ16SliceOverIndexedZ4copyFNaNfAiS3std3uni83__T16SliceOverIndexedTS3std3uni36__T11Uint24ArrayTS3std3uni8GcPolicyZ11Uint24ArrayZ16SliceOverIndexedZS3std3uni83__T16SliceOverIndexedTS3std3uni36__T11Uint24ArrayTS3std3uni8GcPolicyZ11Uint24ArrayZ16SliceOverIndexed 000000014003cd90 f i phobos64:algorithm_27f4_12cc.obj
 0001:0003be00       _D3std9algorithm125__T4copyTAiTS3std3uni83__T16SliceOverIndexedTS3std3uni36__T11Uint24ArrayTS3std3uni8GcPolicyZ11Uint24ArrayZ16SliceOverIndexedZ4copyFNaNfAiS3std3uni83__T16SliceOverIndexedTS3std3uni36__T11Uint24ArrayTS3std3uni8GcPolicyZ11Uint24ArrayZ16SliceOverIndexedZS3std3uni83__T16SliceOverIndexedTS3std3uni36__T11Uint24ArrayTS3std3uni8GcPolicyZ11Uint24ArrayZ16SliceOverIndexed11genericImplFNaNfAiS3std3uni83__T16SliceOverIndexedTS3std3uni36__T11Uint24ArrayTS3std3uni8GcPolicyZ11Uint24ArrayZ16SliceOverIndexedZS3std3uni83__T16SliceOverIndexedTS3std3uni36__T11Uint24ArrayTS3std3uni8GcPolicyZ11Uint24ArrayZ16SliceOverIndexed 000000014003ce00 f i phobos64:algorithm_27f4_12cc.obj
 0001:0003beb0       _D3std9algorithm235__T4copyTS3std3uni83__T16SliceOverIndexedTS3std3uni36__T11Uint24ArrayTS3std3uni8GcPolicyZ11Uint24ArrayZ16SliceOverIndexedTS3std3uni83__T16SliceOverIndexedTS3std3uni36__T11Uint24ArrayTS3std3uni8GcPolicyZ11Uint24ArrayZ16SliceOverIndexedZ4copyFNaNfS3std3uni83__T16SliceOverIndexedTS3std3uni36__T11Uint24ArrayTS3std3uni8GcPolicyZ11Uint24ArrayZ16SliceOverIndexedS3std3uni83__T16SliceOverIndexedTS3std3uni36__T11Uint24ArrayTS3std3uni8GcPolicyZ11Uint24ArrayZ16SliceOverIndexedZS3std3uni83__T16SliceOverIndexedTS3std3uni36__T11Uint24ArrayTS3std3uni8GcPolicyZ11Uint24ArrayZ16SliceOverIndexed 000000014003ceb0 f i phobos64:algorithm_27f7_1f19.obj
 0001:0003bf10       _D3std9algorithm235__T4copyTS3std3uni83__T16SliceOverIndexedTS3std3uni36__T11Uint24ArrayTS3std3uni8GcPolicyZ11Uint24ArrayZ16SliceOverIndexedTS3std3uni83__T16SliceOverIndexedTS3std3uni36__T11Uint24ArrayTS3std3uni8GcPolicyZ11Uint24ArrayZ16SliceOverIndexedZ4copyFNaNfS3std3uni83__T16SliceOverIndexedTS3std3uni36__T11Uint24ArrayTS3std3uni8GcPolicyZ11Uint24ArrayZ16SliceOverIndexedS3std3uni83__T16SliceOverIndexedTS3std3uni36__T11Uint24ArrayTS3std3uni8GcPolicyZ11Uint24ArrayZ16SliceOverIndexedZS3std3uni83__T16SliceOverIndexedTS3std3uni36__T11Uint24ArrayTS3std3uni8GcPolicyZ11Uint24ArrayZ16SliceOverIndexed11genericImplFNaNfS3std3uni83__T16SliceOverIndexedTS3std3uni36__T11Uint24ArrayTS3std3uni8GcPolicyZ11Uint24ArrayZ16SliceOverIndexedS3std3uni83__T16SliceOverIndexedTS3std3uni36__T11Uint24ArrayTS3std3uni8GcPolicyZ11Uint24ArrayZ16SliceOverIndexedZS3std3uni83__T16SliceOverIndexedTS3std3uni36__T11Uint24ArrayTS3std3uni8GcPolicyZ11Uint24ArrayZ16SliceOverIndexed 000000014003cf10 f i phobos64:algorithm_27f7_1f19.obj
 0001:0003bfd0       _D3std6string21__T6formatTaTAyaTAyaZ6formatFNaNfxAaAyaAyaZAya 000000014003cfd0 f i phobos64:string_da_a5f.obj
 0001:0003c0a0       _D3std6string21__T6formatTaTAyaTAyaZ6formatFNaNfxAaAyaAyaZAya12__dgliteral5MFNaNfZC6object9Throwable 000000014003d0a0 f i phobos64:string_da_a5f.obj
 0001:0003c190       _D3std6string19__T6formatTaTAyaTkZ6formatFNaNfxAaAyakZAya 000000014003d190 f i phobos64:string_d8_988.obj
 0001:0003c250       _D3std6string19__T6formatTaTAyaTkZ6formatFNaNfxAaAyakZAya12__dgliteral5MFNaNfZC6object9Throwable 000000014003d250 f i phobos64:string_d8_988.obj
 0001:0003c340       _D3std6string23__T6formatTaTAyaTkTAyaZ6formatFNaNfxAaAyakAyaZAya 000000014003d340 f i phobos64:string_db_c6b.obj
 0001:0003c420       _D3std6string23__T6formatTaTAyaTkTAyaZ6formatFNaNfxAaAyakAyaZAya12__dgliteral6MFNaNfZC6object9Throwable 000000014003d420 f i phobos64:string_db_c6b.obj
 0001:0003c510       _D3std3uni16unalignedWrite24FNaNbNePhkmZv 000000014003d510 f i phobos64:uni_8c1_628.obj
 0001:0003c540       _D3std3uni38__T13InversionListTS3std3uni8GcPolicyZ13InversionList12toSourceCodeMFNeAyaZAya47__T11linearScopeTAS3std3uni17CodepointIntervalZ11linearScopeFNaNfAS3std3uni17CodepointIntervalAyaZAya 000000014003d540 f i phobos64:uni_be6_c89.obj
 0001:0003c8a0       _D3std5array162__T5arrayTS3std3uni38__T13InversionListTS3std3uni8GcPolicyZ13InversionList75__T9IntervalsTS3std3uni36__T11Uint24ArrayTS3std3uni8GcPolicyZ11Uint24ArrayZ9IntervalsZ5arrayFNfS3std3uni38__T13InversionListTS3std3uni8GcPolicyZ13InversionList75__T9IntervalsTS3std3uni36__T11Uint24ArrayTS3std3uni8GcPolicyZ11Uint24ArrayZ9IntervalsZAS3std3uni17CodepointInterval49__T14trustedGetAddrTS3std3uni17CodepointIntervalZ14trustedGetAddrFNaNbNeKS3std3uni17CodepointIntervalZPS3std3uni17CodepointInterval 000000014003d8a0 f i phobos64:array_67f_d02.obj
 0001:0003c8b0       _D3std4conv70__T7emplaceTS3std3uni17CodepointIntervalTS3std3uni17CodepointIntervalZ7emplaceFNaNbNfPS3std3uni17CodepointIntervalKS3std3uni17CodepointIntervalZPS3std3uni17CodepointInterval 000000014003d8b0 f i phobos64:conv_2a22_1169.obj
 0001:0003c8d0       _D3std5array56__T18uninitializedArrayTAS3std3uni17CodepointIntervalTmZ18uninitializedArrayFNaNbmZAS3std3uni17CodepointInterval 000000014003d8d0 f i phobos64:array_66a_11fd.obj
 0001:0003c8f0       _D3std3uni83__T16SliceOverIndexedTS3std3uni36__T11Uint24ArrayTS3std3uni8GcPolicyZ11Uint24ArrayZ16SliceOverIndexed7opIndexMxFNaNbNfmZk 000000014003d8f0 f i phobos64:uni_b94_e50.obj
 0001:0003c920       _D3std3uni83__T16SliceOverIndexedTS3std3uni36__T11Uint24ArrayTS3std3uni8GcPolicyZ11Uint24ArrayZ16SliceOverIndexed13opIndexAssignMFNaNfkmZv 000000014003d920 f i phobos64:uni_b94_e50.obj
 0001:0003c950       _D3std3uni83__T16SliceOverIndexedTS3std3uni36__T11Uint24ArrayTS3std3uni8GcPolicyZ11Uint24ArrayZ16SliceOverIndexed7opSliceMFNaNbNfmmZS3std3uni83__T16SliceOverIndexedTS3std3uni36__T11Uint24ArrayTS3std3uni8GcPolicyZ11Uint24ArrayZ16SliceOverIndexed 000000014003d950 f i phobos64:uni_b94_e50.obj
 0001:0003c990       _D3std3uni83__T16SliceOverIndexedTS3std3uni36__T11Uint24ArrayTS3std3uni8GcPolicyZ11Uint24ArrayZ16SliceOverIndexed7opSliceMFNaNbNfZS3std3uni83__T16SliceOverIndexedTS3std3uni36__T11Uint24ArrayTS3std3uni8GcPolicyZ11Uint24ArrayZ16SliceOverIndexed 000000014003d990 f i phobos64:uni_b94_e50.obj
 0001:0003c9c0       _D3std3uni83__T16SliceOverIndexedTS3std3uni36__T11Uint24ArrayTS3std3uni8GcPolicyZ11Uint24ArrayZ16SliceOverIndexed6lengthMxFNaNbNdNfZm 000000014003d9c0 f i phobos64:uni_b94_e50.obj
 0001:0003c9d0       _D3std3uni83__T16SliceOverIndexedTS3std3uni36__T11Uint24ArrayTS3std3uni8GcPolicyZ11Uint24ArrayZ16SliceOverIndexed8opDollarMxFNaNbNfZm 000000014003d9d0 f i phobos64:uni_b94_e50.obj
 0001:0003c9f0       _D3std3uni83__T16SliceOverIndexedTS3std3uni36__T11Uint24ArrayTS3std3uni8GcPolicyZ11Uint24ArrayZ16SliceOverIndexed5emptyMxFNaNbNdNfZb 000000014003d9f0 f i phobos64:uni_b94_e50.obj
 0001:0003ca10       _D3std3uni83__T16SliceOverIndexedTS3std3uni36__T11Uint24ArrayTS3std3uni8GcPolicyZ11Uint24ArrayZ16SliceOverIndexed5frontMxFNaNbNdNfZk 000000014003da10 f i phobos64:uni_b94_e50.obj
 0001:0003ca30       _D3std3uni83__T16SliceOverIndexedTS3std3uni36__T11Uint24ArrayTS3std3uni8GcPolicyZ11Uint24ArrayZ16SliceOverIndexed5frontMFNaNdNfkZv 000000014003da30 f i phobos64:uni_b94_e50.obj
 0001:0003ca50       _D3std3uni83__T16SliceOverIndexedTS3std3uni36__T11Uint24ArrayTS3std3uni8GcPolicyZ11Uint24ArrayZ16SliceOverIndexed4backMxFNaNbNdNfZk 000000014003da50 f i phobos64:uni_b94_e50.obj
 0001:0003ca70       _D3std3uni83__T16SliceOverIndexedTS3std3uni36__T11Uint24ArrayTS3std3uni8GcPolicyZ11Uint24ArrayZ16SliceOverIndexed4backMFNaNdNfkZv 000000014003da70 f i phobos64:uni_b94_e50.obj
 0001:0003caa0       _D3std3uni83__T16SliceOverIndexedTS3std3uni36__T11Uint24ArrayTS3std3uni8GcPolicyZ11Uint24ArrayZ16SliceOverIndexed4saveMNgFNaNbNdNfZNgS3std3uni83__T16SliceOverIndexedTS3std3uni36__T11Uint24ArrayTS3std3uni8GcPolicyZ11Uint24ArrayZ16SliceOverIndexed 000000014003daa0 f i phobos64:uni_b94_e50.obj
 0001:0003cac0       _D3std3uni83__T16SliceOverIndexedTS3std3uni36__T11Uint24ArrayTS3std3uni8GcPolicyZ11Uint24ArrayZ16SliceOverIndexed8popFrontMFNaNbNfZv 000000014003dac0 f i phobos64:uni_b94_e50.obj
 0001:0003cad0       _D3std3uni83__T16SliceOverIndexedTS3std3uni36__T11Uint24ArrayTS3std3uni8GcPolicyZ11Uint24ArrayZ16SliceOverIndexed7popBackMFNaNbNfZv 000000014003dad0 f i phobos64:uni_b94_e50.obj
 0001:0003cae0       _D3std3uni83__T16SliceOverIndexedTS3std3uni36__T11Uint24ArrayTS3std3uni8GcPolicyZ11Uint24ArrayZ16SliceOverIndexed11__xopEqualsFKxS3std3uni83__T16SliceOverIndexedTS3std3uni36__T11Uint24ArrayTS3std3uni8GcPolicyZ11Uint24ArrayZ16SliceOverIndexedKxS3std3uni83__T16SliceOverIndexedTS3std3uni36__T11Uint24ArrayTS3std3uni8GcPolicyZ11Uint24ArrayZ16SliceOverIndexedZb 000000014003dae0 f i phobos64:uni_b94_e50.obj
 0001:0003cb00       _D3std3uni83__T16SliceOverIndexedTS3std3uni36__T11Uint24ArrayTS3std3uni8GcPolicyZ11Uint24ArrayZ16SliceOverIndexed127__T8opEqualsTxS3std3uni83__T16SliceOverIndexedTS3std3uni36__T11Uint24ArrayTS3std3uni8GcPolicyZ11Uint24ArrayZ16SliceOverIndexedZ8opEqualsMxFNaNbNfKxS3std3uni83__T16SliceOverIndexedTS3std3uni36__T11Uint24ArrayTS3std3uni8GcPolicyZ11Uint24ArrayZ16SliceOverIndexedZb 000000014003db00 f i phobos64:uni_be3_1484.obj
 0001:0003cbc0       _D3std9algorithm125__T4copyTAkTS3std3uni83__T16SliceOverIndexedTS3std3uni36__T11Uint24ArrayTS3std3uni8GcPolicyZ11Uint24ArrayZ16SliceOverIndexedZ4copyFNaNfAkS3std3uni83__T16SliceOverIndexedTS3std3uni36__T11Uint24ArrayTS3std3uni8GcPolicyZ11Uint24ArrayZ16SliceOverIndexedZS3std3uni83__T16SliceOverIndexedTS3std3uni36__T11Uint24ArrayTS3std3uni8GcPolicyZ11Uint24ArrayZ16SliceOverIndexed 000000014003dbc0 f i phobos64:algorithm_27f6_1341.obj
 0001:0003cc30       _D3std9algorithm125__T4copyTAkTS3std3uni83__T16SliceOverIndexedTS3std3uni36__T11Uint24ArrayTS3std3uni8GcPolicyZ11Uint24ArrayZ16SliceOverIndexedZ4copyFNaNfAkS3std3uni83__T16SliceOverIndexedTS3std3uni36__T11Uint24ArrayTS3std3uni8GcPolicyZ11Uint24ArrayZ16SliceOverIndexedZS3std3uni83__T16SliceOverIndexedTS3std3uni36__T11Uint24ArrayTS3std3uni8GcPolicyZ11Uint24ArrayZ16SliceOverIndexed11genericImplFNaNfAkS3std3uni83__T16SliceOverIndexedTS3std3uni36__T11Uint24ArrayTS3std3uni8GcPolicyZ11Uint24ArrayZ16SliceOverIndexedZS3std3uni83__T16SliceOverIndexedTS3std3uni36__T11Uint24ArrayTS3std3uni8GcPolicyZ11Uint24ArrayZ16SliceOverIndexed 000000014003dc30 f i phobos64:algorithm_27f6_1341.obj
 0001:0003cce0       _D3std3uni15unalignedRead24FNaNbNexPhmZk 000000014003dce0 f i phobos64:uni_8c0_599.obj
 0001:0003cd00       _D3std9algorithm7__arrayZ  000000014003dd00 f i phobos64:algorithm.obj
 0001:0003cd20       _D3std9algorithm8__assertFiZv 000000014003dd20 f i phobos64:algorithm.obj
 0001:0003cd40       _D3std9algorithm15__unittest_failFiZv 000000014003dd40 f i phobos64:algorithm.obj
 0001:0003cd60       _d_arraysetlengthT         000000014003dd60 f i phobos64:lifetime_4b8_763.obj
 0001:0003dfa0       _D3std6format18__T10FormatSpecTaZ10FormatSpec31__T17writeUpToNextSpecTDFAxaZvZ17writeUpToNextSpecMFDFAxaZvZb 000000014003efa0 f i phobos64:format_150_117b.obj
 0001:0003e130       _D3std6format18__T10FormatSpecTaZ10FormatSpec31__T17writeUpToNextSpecTDFAxaZvZ17writeUpToNextSpecMFDFAxaZvZb12__dgliteral2MFNaNbNfZAya 000000014003f130 f i phobos64:format_150_117b.obj
 0001:0003e150       _D3std6format18__T9getNthIntTkTkZ9getNthIntFNaNfkkkZi 000000014003f150 f i phobos64:format_167_7d3.obj
 0001:0003e190       _D3std6format31__T13formatGenericTDFAxaZvTkTaZ13formatGenericFDFAxaZvPxvKS3std6format18__T10FormatSpecTaZ10FormatSpecZv 000000014003f190 f i phobos64:format_160_13da.obj
 0001:0003e1d0       _D3std9algorithm122__T4moveTS3std3uni83__T16SliceOverIndexedTS3std3uni36__T11Uint24ArrayTS3std3uni8GcPolicyZ11Uint24ArrayZ16SliceOverIndexedZ4moveFNaNbKS3std3uni83__T16SliceOverIndexedTS3std3uni36__T11Uint24ArrayTS3std3uni8GcPolicyZ11Uint24ArrayZ16SliceOverIndexedZS3std3uni83__T16SliceOverIndexedTS3std3uni36__T11Uint24ArrayTS3std3uni8GcPolicyZ11Uint24ArrayZ16SliceOverIndexed 000000014003f1d0 f i phobos64:algorithm_2863_1079.obj
 0001:0003e200       _D3std3uni17CodepointInterval43__T8opEqualsTxS3std3uni17CodepointIntervalZ8opEqualsMxFNaNbNfxS3std3uni17CodepointIntervalZb 000000014003f200 f i phobos64:uni_93a_d1e.obj
 0001:0003e230       _D3std9algorithm292__T11TimSortImplS673std10functional39__T9binaryFunVAyaa9_612e61203c20622e61Z9binaryFunTS3std3uni38__T13InversionListTS3std3uni8GcPolicyZ13InversionList127__T9IntervalsTS3std3uni83__T16SliceOverIndexedTS3std3uni36__T11Uint24ArrayTS3std3uni8GcPolicyZ11Uint24ArrayZ16SliceOverIndexedZ9IntervalsZ7greaterFS3std3uni17CodepointIntervalS3std3uni17CodepointIntervalZb 000000014003f230 f i phobos64:algorithm_27e6_1b4a.obj
 0001:0003e250       _D3std9algorithm292__T11TimSortImplS673std10functional39__T9binaryFunVAyaa9_612e61203c20622e61Z9binaryFunTS3std3uni38__T13InversionListTS3std3uni8GcPolicyZ13InversionList127__T9IntervalsTS3std3uni83__T16SliceOverIndexedTS3std3uni36__T11Uint24ArrayTS3std3uni8GcPolicyZ11Uint24ArrayZ16SliceOverIndexedZ9IntervalsZ12greaterEqualFS3std3uni17CodepointIntervalS3std3uni17CodepointIntervalZb 000000014003f250 f i phobos64:algorithm_27e6_1b4a.obj
 0001:0003e270       _D3std9algorithm292__T11TimSortImplS673std10functional39__T9binaryFunVAyaa9_612e61203c20622e61Z9binaryFunTS3std3uni38__T13InversionListTS3std3uni8GcPolicyZ13InversionList127__T9IntervalsTS3std3uni83__T16SliceOverIndexedTS3std3uni36__T11Uint24ArrayTS3std3uni8GcPolicyZ11Uint24ArrayZ16SliceOverIndexedZ9IntervalsZ9lessEqualFS3std3uni17CodepointIntervalS3std3uni17CodepointIntervalZb 000000014003f270 f i phobos64:algorithm_27e6_1b4a.obj
 0001:0003e290       _D3std9algorithm292__T11TimSortImplS673std10functional39__T9binaryFunVAyaa9_612e61203c20622e61Z9binaryFunTS3std3uni38__T13InversionListTS3std3uni8GcPolicyZ13InversionList127__T9IntervalsTS3std3uni83__T16SliceOverIndexedTS3std3uni36__T11Uint24ArrayTS3std3uni8GcPolicyZ11Uint24ArrayZ16SliceOverIndexedZ9IntervalsZ4sortFS3std3uni38__T13InversionListTS3std3uni8GcPolicyZ13InversionList127__T9IntervalsTS3std3uni83__T16SliceOverIndexedTS3std3uni36__T11Uint24ArrayTS3std3uni8GcPolicyZ11Uint24ArrayZ16SliceOverIndexedZ9IntervalsAS3std3uni17CodepointIntervalZv 000000014003f290 f i phobos64:algorithm_27e6_1b4a.obj
 0001:0003e730       _D3std9algorithm292__T11TimSortImplS673std10functional39__T9binaryFunVAyaa9_612e61203c20622e61Z9binaryFunTS3std3uni38__T13InversionListTS3std3uni8GcPolicyZ13InversionList127__T9IntervalsTS3std3uni83__T16SliceOverIndexedTS3std3uni36__T11Uint24ArrayTS3std3uni8GcPolicyZ11Uint24ArrayZ16SliceOverIndexedZ9IntervalsZ12minRunLengthFNamZm 000000014003f730 f i phobos64:algorithm_27e6_1b4a.obj
 0001:0003e780       _D3std9algorithm292__T11TimSortImplS673std10functional39__T9binaryFunVAyaa9_612e61203c20622e61Z9binaryFunTS3std3uni38__T13InversionListTS3std3uni8GcPolicyZ13InversionList127__T9IntervalsTS3std3uni83__T16SliceOverIndexedTS3std3uni36__T11Uint24ArrayTS3std3uni8GcPolicyZ11Uint24ArrayZ16SliceOverIndexedZ9IntervalsZ8firstRunFS3std3uni38__T13InversionListTS3std3uni8GcPolicyZ13InversionList127__T9IntervalsTS3std3uni83__T16SliceOverIndexedTS3std3uni36__T11Uint24ArrayTS3std3uni8GcPolicyZ11Uint24ArrayZ16SliceOverIndexedZ9IntervalsZm 000000014003f780 f i phobos64:algorithm_27e6_1b4a.obj
 0001:0003ea70       _D3std9algorithm292__T11TimSortImplS673std10functional39__T9binaryFunVAyaa9_612e61203c20622e61Z9binaryFunTS3std3uni38__T13InversionListTS3std3uni8GcPolicyZ13InversionList127__T9IntervalsTS3std3uni83__T16SliceOverIndexedTS3std3uni36__T11Uint24ArrayTS3std3uni8GcPolicyZ11Uint24ArrayZ16SliceOverIndexedZ9IntervalsZ19binaryInsertionSortFS3std3uni38__T13InversionListTS3std3uni8GcPolicyZ13InversionList127__T9IntervalsTS3std3uni83__T16SliceOverIndexedTS3std3uni36__T11Uint24ArrayTS3std3uni8GcPolicyZ11Uint24ArrayZ16SliceOverIndexedZ9IntervalsmZv 000000014003fa70 f i phobos64:algorithm_27e6_1b4a.obj
 0001:0003ebd0       _D3std9algorithm292__T11TimSortImplS673std10functional39__T9binaryFunVAyaa9_612e61203c20622e61Z9binaryFunTS3std3uni38__T13InversionListTS3std3uni8GcPolicyZ13InversionList127__T9IntervalsTS3std3uni83__T16SliceOverIndexedTS3std3uni36__T11Uint24ArrayTS3std3uni8GcPolicyZ11Uint24ArrayZ16SliceOverIndexedZ9IntervalsZ7mergeAtFS3std3uni38__T13InversionListTS3std3uni8GcPolicyZ13InversionList127__T9IntervalsTS3std3uni83__T16SliceOverIndexedTS3std3uni36__T11Uint24ArrayTS3std3uni8GcPolicyZ11Uint24ArrayZ16SliceOverIndexedZ9IntervalsAS3std9algorithm292__T11TimSortImplS673std10functional39__T9binaryFunVAyaa9_612e61203c20622e61Z9binaryFunTS3std3uni38__T13InversionListTS3std3uni8GcPolicyZ13InversionList127__T9IntervalsTS3std3uni83__T16SliceOverIndexedTS3std3uni36__T11Uint24ArrayTS3std3uni8GcPolicyZ11Uint24ArrayZ16SliceOverIndexedZ9IntervalsZ5SliceymKmKAS3std3uni17CodepointIntervalZv 000000014003fbd0 f i phobos64:algorithm_27e6_1b4a.obj
 0001:0003ecc0       _D3std9algorithm292__T11TimSortImplS673std10functional39__T9binaryFunVAyaa9_612e61203c20622e61Z9binaryFunTS3std3uni38__T13InversionListTS3std3uni8GcPolicyZ13InversionList127__T9IntervalsTS3std3uni83__T16SliceOverIndexedTS3std3uni36__T11Uint24ArrayTS3std3uni8GcPolicyZ11Uint24ArrayZ16SliceOverIndexedZ9IntervalsZ5mergeFS3std3uni38__T13InversionListTS3std3uni8GcPolicyZ13InversionList127__T9IntervalsTS3std3uni83__T16SliceOverIndexedTS3std3uni36__T11Uint24ArrayTS3std3uni8GcPolicyZ11Uint24ArrayZ16SliceOverIndexedZ9IntervalsmKmKAS3std3uni17CodepointIntervalZv 000000014003fcc0 f i phobos64:algorithm_27e6_1b4a.obj
 0001:0003ef90       _D3std9algorithm292__T11TimSortImplS673std10functional39__T9binaryFunVAyaa9_612e61203c20622e61Z9binaryFunTS3std3uni38__T13InversionListTS3std3uni8GcPolicyZ13InversionList127__T9IntervalsTS3std3uni83__T16SliceOverIndexedTS3std3uni36__T11Uint24ArrayTS3std3uni8GcPolicyZ11Uint24ArrayZ16SliceOverIndexedZ9IntervalsZ14ensureCapacityFmAS3std3uni17CodepointIntervalZAS3std3uni17CodepointInterval 000000014003ff90 f i phobos64:algorithm_27e6_1b4a.obj
 0001:0003efe0       _D3std9algorithm292__T11TimSortImplS673std10functional39__T9binaryFunVAyaa9_612e61203c20622e61Z9binaryFunTS3std3uni38__T13InversionListTS3std3uni8GcPolicyZ13InversionList127__T9IntervalsTS3std3uni83__T16SliceOverIndexedTS3std3uni36__T11Uint24ArrayTS3std3uni8GcPolicyZ11Uint24ArrayZ16SliceOverIndexedZ9IntervalsZ7mergeLoFS3std3uni38__T13InversionListTS3std3uni8GcPolicyZ13InversionList127__T9IntervalsTS3std3uni83__T16SliceOverIndexedTS3std3uni36__T11Uint24ArrayTS3std3uni8GcPolicyZ11Uint24ArrayZ16SliceOverIndexedZ9IntervalsymmAS3std3uni17CodepointIntervalZm 000000014003ffe0 f i phobos64:algorithm_27e6_1b4a.obj
 0001:0003f460       _D3std9algorithm292__T11TimSortImplS673std10functional39__T9binaryFunVAyaa9_612e61203c20622e61Z9binaryFunTS3std3uni38__T13InversionListTS3std3uni8GcPolicyZ13InversionList127__T9IntervalsTS3std3uni83__T16SliceOverIndexedTS3std3uni36__T11Uint24ArrayTS3std3uni8GcPolicyZ11Uint24ArrayZ16SliceOverIndexedZ9IntervalsZ7mergeHiFS3std3uni38__T13InversionListTS3std3uni8GcPolicyZ13InversionList127__T9IntervalsTS3std3uni83__T16SliceOverIndexedTS3std3uni36__T11Uint24ArrayTS3std3uni8GcPolicyZ11Uint24ArrayZ16SliceOverIndexedZ9IntervalsymmAS3std3uni17CodepointIntervalZm 0000000140040460 f i phobos64:algorithm_27e6_1b4a.obj
 0001:0003f980       _D3std5range248__T12assumeSortedVAyaa9_612e61203c20622e61TS3std3uni38__T13InversionListTS3std3uni8GcPolicyZ13InversionList127__T9IntervalsTS3std3uni83__T16SliceOverIndexedTS3std3uni36__T11Uint24ArrayTS3std3uni8GcPolicyZ11Uint24ArrayZ16SliceOverIndexedZ9IntervalsZ12assumeSortedFNaNbNfS3std3uni38__T13InversionListTS3std3uni8GcPolicyZ13InversionList127__T9IntervalsTS3std3uni83__T16SliceOverIndexedTS3std3uni36__T11Uint24ArrayTS3std3uni8GcPolicyZ11Uint24ArrayZ16SliceOverIndexedZ9IntervalsZS3std5range247__T11SortedRangeTS3std3uni38__T13InversionListTS3std3uni8GcPolicyZ13InversionList127__T9IntervalsTS3std3uni83__T16SliceOverIndexedTS3std3uni36__T11Uint24ArrayTS3std3uni8GcPolicyZ11Uint24ArrayZ16SliceOverIndexedZ9IntervalsVAyaa9_612e61203c20622e61Z11SortedRange 0000000140040980 f i phobos64:range_446_1ad8.obj
 0001:0003f9f0       _D3std6format66__T14formattedWriteTS3std5array17__T8AppenderTAyaZ8AppenderTaTAyaZ14formattedWriteFNaNfS3std5array17__T8AppenderTAyaZ8AppenderxAaAyaZk 00000001400409f0 f i phobos64:format_16a_10f7.obj
 0001:0003fe00       _D3std6format66__T14formattedWriteTS3std5array17__T8AppenderTAyaZ8AppenderTaTAyaZ14formattedWriteFNaNfS3std5array17__T8AppenderTAyaZ8AppenderxAaAyaZk9__lambda5FNaNbNeZPFNaNbNfS3std5array17__T8AppenderTAyaZ8AppenderPxvKS3std6format18__T10FormatSpecTaZ10FormatSpecZv 0000000140040e00 f i phobos64:format_16a_10f7.obj
 0001:0003fe10       _D3std6format66__T14formattedWriteTS3std5array17__T8AppenderTAyaZ8AppenderTaTAyaZ14formattedWriteFNaNfS3std5array17__T8AppenderTAyaZ8AppenderxAaAyaZk18__T9__lambda6TAyaZ9__lambda6FNaNbNeKAyaZxPv 0000000140040e10 f i phobos64:format_16a_10f7.obj
 0001:0003fe20       _D3std6format66__T14formattedWriteTS3std5array17__T8AppenderTAyaZ8AppenderTaTAyaZ14formattedWriteFNaNfS3std5array17__T8AppenderTAyaZ8AppenderxAaAyaZk12__dgliteral7MFNaNfZAya 0000000140040e20 f i phobos64:format_16a_10f7.obj
 0001:0003fe70       _D3std10functional43__T8unaryFunVAyaa11_615b305d203e2030783830Z42__T8unaryFunTS3std3uni17CodepointIntervalZ8unaryFunFNaNbNfS3std3uni17CodepointIntervalZb 0000000140040e70 f i phobos64:functional_79a_ab4.obj
 0001:0003fe90       _D3std5range147__T11SortedRangeTS3std3uni83__T16SliceOverIndexedTS3std3uni36__T11Uint24ArrayTS3std3uni8GcPolicyZ11Uint24ArrayZ16SliceOverIndexedVAyaa5_61203c2062Z11SortedRange234__T18getTransitionIndexVE3std5range12SearchPolicy2S1773std5range147__T11SortedRangeTS3std3uni83__T16SliceOverIndexedTS3std3uni36__T11Uint24ArrayTS3std3uni8GcPolicyZ11Uint24ArrayZ16SliceOverIndexedVAyaa5_61203c2062Z11SortedRange3geqTiZ18getTransitionIndexMFNaNbNfiZm 0000000140040e90 f i phobos64:range_453_11e9.obj
 0001:0003ff20       _D3std5range145__T11SortedRangeTS3std3uni83__T16SliceOverIndexedTS3std3uni36__T11Uint24ArrayTS3std3uni8GcPolicyZ11Uint24ArrayZ16SliceOverIndexedVAyaa4_613c3d62Z11SortedRange232__T18getTransitionIndexVE3std5range12SearchPolicy2S1753std5range145__T11SortedRangeTS3std3uni83__T16SliceOverIndexedTS3std3uni36__T11Uint24ArrayTS3std3uni8GcPolicyZ11Uint24ArrayZ16SliceOverIndexedVAyaa4_613c3d62Z11SortedRange3geqTkZ18getTransitionIndexMFNaNbNfkZm 0000000140040f20 f i phobos64:range_47f_125e.obj
 0001:0003ffb0       _D3std9exception15__T7enforceTPvZ7enforceFNaNfPvLAxaAyamZPv 0000000140040fb0 f i phobos64:exception_24db_530.obj
 0001:00040030       std_stdio_static_this      0000000140041030 f i phobos64:stdio_a_8cb.obj
 0001:00040090       _D3std4conv11__T2toTAyaZ10__T2toTPaZ2toFNaPaZAya 0000000140041090 f i phobos64:conv_299f_31d.obj
 0001:000400b0       _D4core4stdc5errno5errnoFNbNdNeZi 00000001400410b0 f i phobos64:errno_1d8_226.obj
 0001:000400d0       _D3std3uni69__T19PackedArrayViewImplTS3std3uni19__T9BitPackedTkVm8Z9BitPackedVm8Z19PackedArrayViewImpl6__ctorMNgFNaNbNcNePNgmmZNgS3std3uni69__T19PackedArrayViewImplTS3std3uni19__T9BitPackedTkVm8Z9BitPackedVm8Z19PackedArrayViewImpl 00000001400410d0 f i phobos64:uni_9cc_d12.obj
 0001:00040110       _D3std3uni69__T19PackedArrayViewImplTS3std3uni19__T9BitPackedTkVm8Z9BitPackedVm8Z19PackedArrayViewImpl5zerosMFNaNbNemmZb 0000000140041110 f i phobos64:uni_9cc_d12.obj
 0001:000401c0       _D3std3uni69__T19PackedArrayViewImplTS3std3uni19__T9BitPackedTkVm8Z9BitPackedVm8Z19PackedArrayViewImpl7opIndexMNgFNaNbNemZS3std3uni19__T9BitPackedTkVm8Z9BitPacked 00000001400411c0 f i phobos64:uni_9cc_d12.obj
 0001:000401e0       _D3std3uni69__T19PackedArrayViewImplTS3std3uni19__T9BitPackedTkVm8Z9BitPackedVm8Z19PackedArrayViewImpl13opIndexAssignMFNaNbNeS3std3uni19__T9BitPackedTkVm8Z9BitPackedmZv 00000001400411e0 f i phobos64:uni_9cc_d12.obj
 0001:00040200       _D3std3uni69__T19PackedArrayViewImplTS3std3uni19__T9BitPackedTkVm8Z9BitPackedVm8Z19PackedArrayViewImpl13opIndexAssignMFNaNbNekmZv 0000000140041200 f i phobos64:uni_9cc_d12.obj
 0001:00040220       _D3std3uni69__T19PackedArrayViewImplTS3std3uni19__T9BitPackedTkVm8Z9BitPackedVm8Z19PackedArrayViewImpl13opSliceAssignMFNaNbNeS3std3uni19__T9BitPackedTkVm8Z9BitPackedmmZv 0000000140041220 f i phobos64:uni_9cc_d12.obj
 0001:00040240       _D3std3uni69__T19PackedArrayViewImplTS3std3uni19__T9BitPackedTkVm8Z9BitPackedVm8Z19PackedArrayViewImpl13opSliceAssignMFNaNbNekmmZv 0000000140041240 f i phobos64:uni_9cc_d12.obj
 0001:00040340       _D3std3uni69__T19PackedArrayViewImplTS3std3uni19__T9BitPackedTkVm8Z9BitPackedVm8Z19PackedArrayViewImpl7opSliceMFNaNbNemmZS3std3uni124__T16SliceOverIndexedTS3std3uni69__T19PackedArrayViewImplTS3std3uni19__T9BitPackedTkVm8Z9BitPackedVm8Z19PackedArrayViewImplZ16SliceOverIndexed 0000000140041340 f i phobos64:uni_9cc_d12.obj
 0001:00040380       _D3std3uni69__T19PackedArrayViewImplTS3std3uni19__T9BitPackedTkVm8Z9BitPackedVm8Z19PackedArrayViewImpl7opSliceMFNaNbNeZS3std3uni124__T16SliceOverIndexedTS3std3uni69__T19PackedArrayViewImplTS3std3uni19__T9BitPackedTkVm8Z9BitPackedVm8Z19PackedArrayViewImplZ16SliceOverIndexed 0000000140041380 f i phobos64:uni_9cc_d12.obj
 0001:000403e0       _D3std3uni69__T19PackedArrayViewImplTS3std3uni19__T9BitPackedTkVm8Z9BitPackedVm8Z19PackedArrayViewImpl6lengthMxFNaNbNdNeZm 00000001400413e0 f i phobos64:uni_9cc_d12.obj
 0001:000403f0       _D3std3uni63__T13PackedPtrImplTS3std3uni19__T9BitPackedTkVm8Z9BitPackedVm8Z13PackedPtrImpl6__ctorMNgFNaNbNcNePNgmZNgS3std3uni63__T13PackedPtrImplTS3std3uni19__T9BitPackedTkVm8Z9BitPackedVm8Z13PackedPtrImpl 00000001400413f0 f i phobos64:uni_9cc_d12.obj
 0001:00040400       _D3std3uni63__T13PackedPtrImplTS3std3uni19__T9BitPackedTkVm8Z9BitPackedVm8Z13PackedPtrImpl11simpleIndexMNgFNaNbNemZS3std3uni19__T9BitPackedTkVm8Z9BitPacked 0000000140041400 f i phobos64:uni_9cc_d12.obj
 0001:00040440       _D3std3uni63__T13PackedPtrImplTS3std3uni19__T9BitPackedTkVm8Z9BitPackedVm8Z13PackedPtrImpl11simpleWriteMFNaNbNekmZv 0000000140041440 f i phobos64:uni_9cc_d12.obj
 0001:000404a0       _D3std3uni63__T13PackedPtrImplTS3std3uni19__T9BitPackedTkVm8Z9BitPackedVm8Z13PackedPtrImpl7opIndexMNgFNaNbNemZS3std3uni19__T9BitPackedTkVm8Z9BitPacked 00000001400414a0 f i phobos64:uni_9cc_d12.obj
 0001:000404b0       _D3std3uni63__T13PackedPtrImplTS3std3uni19__T9BitPackedTkVm8Z9BitPackedVm8Z13PackedPtrImpl13opIndexAssignMFNaNbNeS3std3uni19__T9BitPackedTkVm8Z9BitPackedmZv 00000001400414b0 f i phobos64:uni_9cc_d12.obj
 0001:000404d0       _D3std3uni63__T13PackedPtrImplTS3std3uni19__T9BitPackedTkVm8Z9BitPackedVm8Z13PackedPtrImpl13opIndexAssignMFNaNbNekmZv 00000001400414d0 f i phobos64:uni_9cc_d12.obj
 0001:000404e0       _D3std3uni69__T19PackedArrayViewImplTS3std3uni19__T9BitPackedTkVm8Z9BitPackedVm8Z19PackedArrayViewImpl11__xopEqualsFNeKxS3std3uni69__T19PackedArrayViewImplTS3std3uni19__T9BitPackedTkVm8Z9BitPackedVm8Z19PackedArrayViewImplKxS3std3uni69__T19PackedArrayViewImplTS3std3uni19__T9BitPackedTkVm8Z9BitPackedVm8Z19PackedArrayViewImplZb 00000001400414e0 f i phobos64:uni_9cc_d12.obj
 0001:00040500       _D3std3uni22__T9sliceBitsVm13Vm21Z9sliceBits13__T6opCallTwZ6opCallFNaNbwZk 0000000140041500 f i phobos64:uni_984_47e.obj
 0001:00040520       _D3std3uni21__T9sliceBitsVm8Vm13Z9sliceBits13__T6opCallTwZ6opCallFNaNbwZk 0000000140041520 f i phobos64:uni_abd_47e.obj
 0001:00040540       _D3std3uni140__T10MultiArrayTS3std3uni19__T9BitPackedTkVm8Z9BitPackedTS3std3uni20__T9BitPackedTkVm13Z9BitPackedTS3std3uni19__T9BitPackedTbVi1Z9BitPackedZ10MultiArray11__T3ptrVm0Z3ptrMNgFNaNbNdNfZNgS3std3uni63__T13PackedPtrImplTS3std3uni19__T9BitPackedTkVm8Z9BitPackedVm8Z13PackedPtrImpl 0000000140041540 f i phobos64:uni_af4_299.obj
 0001:00040590       _D3std3uni71__T19PackedArrayViewImplTS3std3uni20__T9BitPackedTkVm13Z9BitPackedVm16Z19PackedArrayViewImpl6__ctorMNgFNaNbNcNePNgmmZNgS3std3uni71__T19PackedArrayViewImplTS3std3uni20__T9BitPackedTkVm13Z9BitPackedVm16Z19PackedArrayViewImpl 0000000140041590 f i phobos64:uni_adb_d3e.obj
 0001:000405d0       _D3std3uni71__T19PackedArrayViewImplTS3std3uni20__T9BitPackedTkVm13Z9BitPackedVm16Z19PackedArrayViewImpl5zerosMFNaNbNemmZb 00000001400415d0 f i phobos64:uni_adb_d3e.obj
 0001:00040680       _D3std3uni71__T19PackedArrayViewImplTS3std3uni20__T9BitPackedTkVm13Z9BitPackedVm16Z19PackedArrayViewImpl7opIndexMNgFNaNbNemZS3std3uni20__T9BitPackedTkVm13Z9BitPacked 0000000140041680 f i phobos64:uni_adb_d3e.obj
 0001:000406a0       _D3std3uni71__T19PackedArrayViewImplTS3std3uni20__T9BitPackedTkVm13Z9BitPackedVm16Z19PackedArrayViewImpl13opIndexAssignMFNaNbNeS3std3uni20__T9BitPackedTkVm13Z9BitPackedmZv 00000001400416a0 f i phobos64:uni_adb_d3e.obj
 0001:000406c0       _D3std3uni71__T19PackedArrayViewImplTS3std3uni20__T9BitPackedTkVm13Z9BitPackedVm16Z19PackedArrayViewImpl13opIndexAssignMFNaNbNekmZv 00000001400416c0 f i phobos64:uni_adb_d3e.obj
 0001:000406e0       _D3std3uni71__T19PackedArrayViewImplTS3std3uni20__T9BitPackedTkVm13Z9BitPackedVm16Z19PackedArrayViewImpl13opSliceAssignMFNaNbNeS3std3uni20__T9BitPackedTkVm13Z9BitPackedmmZv 00000001400416e0 f i phobos64:uni_adb_d3e.obj
 0001:00040700       _D3std3uni71__T19PackedArrayViewImplTS3std3uni20__T9BitPackedTkVm13Z9BitPackedVm16Z19PackedArrayViewImpl13opSliceAssignMFNaNbNekmmZv 0000000140041700 f i phobos64:uni_adb_d3e.obj
 0001:00040800       _D3std3uni71__T19PackedArrayViewImplTS3std3uni20__T9BitPackedTkVm13Z9BitPackedVm16Z19PackedArrayViewImpl7opSliceMFNaNbNemmZS3std3uni126__T16SliceOverIndexedTS3std3uni71__T19PackedArrayViewImplTS3std3uni20__T9BitPackedTkVm13Z9BitPackedVm16Z19PackedArrayViewImplZ16SliceOverIndexed 0000000140041800 f i phobos64:uni_adb_d3e.obj
 0001:00040840       _D3std3uni71__T19PackedArrayViewImplTS3std3uni20__T9BitPackedTkVm13Z9BitPackedVm16Z19PackedArrayViewImpl7opSliceMFNaNbNeZS3std3uni126__T16SliceOverIndexedTS3std3uni71__T19PackedArrayViewImplTS3std3uni20__T9BitPackedTkVm13Z9BitPackedVm16Z19PackedArrayViewImplZ16SliceOverIndexed 0000000140041840 f i phobos64:uni_adb_d3e.obj
 0001:000408a0       _D3std3uni71__T19PackedArrayViewImplTS3std3uni20__T9BitPackedTkVm13Z9BitPackedVm16Z19PackedArrayViewImpl6lengthMxFNaNbNdNeZm 00000001400418a0 f i phobos64:uni_adb_d3e.obj
 0001:000408b0       _D3std3uni65__T13PackedPtrImplTS3std3uni20__T9BitPackedTkVm13Z9BitPackedVm16Z13PackedPtrImpl6__ctorMNgFNaNbNcNePNgmZNgS3std3uni65__T13PackedPtrImplTS3std3uni20__T9BitPackedTkVm13Z9BitPackedVm16Z13PackedPtrImpl 00000001400418b0 f i phobos64:uni_adb_d3e.obj
 0001:000408c0       _D3std3uni65__T13PackedPtrImplTS3std3uni20__T9BitPackedTkVm13Z9BitPackedVm16Z13PackedPtrImpl11simpleIndexMNgFNaNbNemZS3std3uni20__T9BitPackedTkVm13Z9BitPacked 00000001400418c0 f i phobos64:uni_adb_d3e.obj
 0001:00040900       _D3std3uni65__T13PackedPtrImplTS3std3uni20__T9BitPackedTkVm13Z9BitPackedVm16Z13PackedPtrImpl11simpleWriteMFNaNbNekmZv 0000000140041900 f i phobos64:uni_adb_d3e.obj
 0001:00040960       _D3std3uni65__T13PackedPtrImplTS3std3uni20__T9BitPackedTkVm13Z9BitPackedVm16Z13PackedPtrImpl7opIndexMNgFNaNbNemZS3std3uni20__T9BitPackedTkVm13Z9BitPacked 0000000140041960 f i phobos64:uni_adb_d3e.obj
 0001:00040970       _D3std3uni65__T13PackedPtrImplTS3std3uni20__T9BitPackedTkVm13Z9BitPackedVm16Z13PackedPtrImpl13opIndexAssignMFNaNbNeS3std3uni20__T9BitPackedTkVm13Z9BitPackedmZv 0000000140041970 f i phobos64:uni_adb_d3e.obj
 0001:00040990       _D3std3uni65__T13PackedPtrImplTS3std3uni20__T9BitPackedTkVm13Z9BitPackedVm16Z13PackedPtrImpl13opIndexAssignMFNaNbNekmZv 0000000140041990 f i phobos64:uni_adb_d3e.obj
 0001:000409a0       _D3std3uni71__T19PackedArrayViewImplTS3std3uni20__T9BitPackedTkVm13Z9BitPackedVm16Z19PackedArrayViewImpl11__xopEqualsFNeKxS3std3uni71__T19PackedArrayViewImplTS3std3uni20__T9BitPackedTkVm13Z9BitPackedVm16Z19PackedArrayViewImplKxS3std3uni71__T19PackedArrayViewImplTS3std3uni20__T9BitPackedTkVm13Z9BitPackedVm16Z19PackedArrayViewImplZb 00000001400419a0 f i phobos64:uni_adb_d3e.obj
 0001:000409c0       _D3std3uni140__T10MultiArrayTS3std3uni19__T9BitPackedTkVm8Z9BitPackedTS3std3uni20__T9BitPackedTkVm13Z9BitPackedTS3std3uni19__T9BitPackedTbVi1Z9BitPackedZ10MultiArray11__T3ptrVm1Z3ptrMNgFNaNbNdZNgS3std3uni65__T13PackedPtrImplTS3std3uni20__T9BitPackedTkVm13Z9BitPackedVm16Z13PackedPtrImpl 00000001400419c0 f i phobos64:uni_af5_29a.obj
 0001:00040a10       _D3std3uni20__T9sliceBitsVm0Vm8Z9sliceBits13__T6opCallTwZ6opCallFNaNbwZk 0000000140041a10 f i phobos64:uni_abf_47e.obj
 0001:00040a20       _D3std3uni69__T19PackedArrayViewImplTS3std3uni19__T9BitPackedTbVi1Z9BitPackedVm1Z19PackedArrayViewImpl6__ctorMNgFNaNbNcNePNgmmZNgS3std3uni69__T19PackedArrayViewImplTS3std3uni19__T9BitPackedTbVi1Z9BitPackedVm1Z19PackedArrayViewImpl 0000000140041a20 f i phobos64:uni_a6b_c56.obj
 0001:00040a60       _D3std3uni69__T19PackedArrayViewImplTS3std3uni19__T9BitPackedTbVi1Z9BitPackedVm1Z19PackedArrayViewImpl5zerosMFNaNbNemmZb 0000000140041a60 f i phobos64:uni_a6b_c56.obj
 0001:00040b10       _D3std3uni69__T19PackedArrayViewImplTS3std3uni19__T9BitPackedTbVi1Z9BitPackedVm1Z19PackedArrayViewImpl7opIndexMNgFNaNbNemZS3std3uni19__T9BitPackedTbVi1Z9BitPacked 0000000140041b10 f i phobos64:uni_a6b_c56.obj
 0001:00040b30       _D3std3uni69__T19PackedArrayViewImplTS3std3uni19__T9BitPackedTbVi1Z9BitPackedVm1Z19PackedArrayViewImpl13opIndexAssignMFNaNbNeS3std3uni19__T9BitPackedTbVi1Z9BitPackedmZv 0000000140041b30 f i phobos64:uni_a6b_c56.obj
 0001:00040b50       _D3std3uni69__T19PackedArrayViewImplTS3std3uni19__T9BitPackedTbVi1Z9BitPackedVm1Z19PackedArrayViewImpl13opIndexAssignMFNaNbNebmZv 0000000140041b50 f i phobos64:uni_a6b_c56.obj
 0001:00040b70       _D3std3uni69__T19PackedArrayViewImplTS3std3uni19__T9BitPackedTbVi1Z9BitPackedVm1Z19PackedArrayViewImpl13opSliceAssignMFNaNbNeS3std3uni19__T9BitPackedTbVi1Z9BitPackedmmZv 0000000140041b70 f i phobos64:uni_a6b_c56.obj
 0001:00040b90       _D3std3uni69__T19PackedArrayViewImplTS3std3uni19__T9BitPackedTbVi1Z9BitPackedVm1Z19PackedArrayViewImpl13opSliceAssignMFNaNbNebmmZv 0000000140041b90 f i phobos64:uni_a6b_c56.obj
 0001:00040c90       _D3std3uni69__T19PackedArrayViewImplTS3std3uni19__T9BitPackedTbVi1Z9BitPackedVm1Z19PackedArrayViewImpl7opSliceMFNaNbNemmZS3std3uni124__T16SliceOverIndexedTS3std3uni69__T19PackedArrayViewImplTS3std3uni19__T9BitPackedTbVi1Z9BitPackedVm1Z19PackedArrayViewImplZ16SliceOverIndexed 0000000140041c90 f i phobos64:uni_a6b_c56.obj
 0001:00040cd0       _D3std3uni69__T19PackedArrayViewImplTS3std3uni19__T9BitPackedTbVi1Z9BitPackedVm1Z19PackedArrayViewImpl7opSliceMFNaNbNeZS3std3uni124__T16SliceOverIndexedTS3std3uni69__T19PackedArrayViewImplTS3std3uni19__T9BitPackedTbVi1Z9BitPackedVm1Z19PackedArrayViewImplZ16SliceOverIndexed 0000000140041cd0 f i phobos64:uni_a6b_c56.obj
 0001:00040d30       _D3std3uni69__T19PackedArrayViewImplTS3std3uni19__T9BitPackedTbVi1Z9BitPackedVm1Z19PackedArrayViewImpl6lengthMxFNaNbNdNeZm 0000000140041d30 f i phobos64:uni_a6b_c56.obj
 0001:00040d40       _D3std3uni63__T13PackedPtrImplTS3std3uni19__T9BitPackedTbVi1Z9BitPackedVm1Z13PackedPtrImpl6__ctorMNgFNaNbNcNePNgmZNgS3std3uni63__T13PackedPtrImplTS3std3uni19__T9BitPackedTbVi1Z9BitPackedVm1Z13PackedPtrImpl 0000000140041d40 f i phobos64:uni_a6b_c56.obj
 0001:00040d50       _D3std3uni63__T13PackedPtrImplTS3std3uni19__T9BitPackedTbVi1Z9BitPackedVm1Z13PackedPtrImpl11simpleIndexMNgFNaNbNemZS3std3uni19__T9BitPackedTbVi1Z9BitPacked 0000000140041d50 f i phobos64:uni_a6b_c56.obj
 0001:00040d70       _D3std3uni63__T13PackedPtrImplTS3std3uni19__T9BitPackedTbVi1Z9BitPackedVm1Z13PackedPtrImpl11simpleWriteMFNaNbNebmZv 0000000140041d70 f i phobos64:uni_a6b_c56.obj
 0001:00040dd0       _D3std3uni63__T13PackedPtrImplTS3std3uni19__T9BitPackedTbVi1Z9BitPackedVm1Z13PackedPtrImpl7opIndexMNgFNaNbNemZS3std3uni19__T9BitPackedTbVi1Z9BitPacked 0000000140041dd0 f i phobos64:uni_a6b_c56.obj
 0001:00040df0       _D3std3uni63__T13PackedPtrImplTS3std3uni19__T9BitPackedTbVi1Z9BitPackedVm1Z13PackedPtrImpl13opIndexAssignMFNaNbNeS3std3uni19__T9BitPackedTbVi1Z9BitPackedmZv 0000000140041df0 f i phobos64:uni_a6b_c56.obj
 0001:00040e10       _D3std3uni63__T13PackedPtrImplTS3std3uni19__T9BitPackedTbVi1Z9BitPackedVm1Z13PackedPtrImpl13opIndexAssignMFNaNbNebmZv 0000000140041e10 f i phobos64:uni_a6b_c56.obj
 0001:00040e30       _D3std3uni69__T19PackedArrayViewImplTS3std3uni19__T9BitPackedTbVi1Z9BitPackedVm1Z19PackedArrayViewImpl11__xopEqualsFNeKxS3std3uni69__T19PackedArrayViewImplTS3std3uni19__T9BitPackedTbVi1Z9BitPackedVm1Z19PackedArrayViewImplKxS3std3uni69__T19PackedArrayViewImplTS3std3uni19__T9BitPackedTbVi1Z9BitPackedVm1Z19PackedArrayViewImplZb 0000000140041e30 f i phobos64:uni_a6b_c56.obj
 0001:00040e50       _D3std3uni140__T10MultiArrayTS3std3uni19__T9BitPackedTkVm8Z9BitPackedTS3std3uni20__T9BitPackedTkVm13Z9BitPackedTS3std3uni19__T9BitPackedTbVi1Z9BitPackedZ10MultiArray11__T3ptrVm2Z3ptrMNgFNaNbNdZNgS3std3uni63__T13PackedPtrImplTS3std3uni19__T9BitPackedTbVi1Z9BitPackedVm1Z13PackedPtrImpl 0000000140041e50 f i phobos64:uni_af6_24a.obj
 0001:00040ea0       _D3std6format16__T9getNthIntTmZ9getNthIntFNaNfkmZi 0000000140041ea0 f i phobos64:format_133_62c.obj
 0001:00040ed0       _D3std6format63__T13formatGenericTS3std5array17__T8AppenderTAyaZ8AppenderTmTaZ13formatGenericFNaS3std5array17__T8AppenderTAyaZ8AppenderPxvKS3std6format18__T10FormatSpecTaZ10FormatSpecZv 0000000140041ed0 f i phobos64:format_12d_ffa.obj
 0001:00040ef0       _D3std3uni84__T16SliceOverIndexedTxS3std3uni36__T11Uint24ArrayTS3std3uni8GcPolicyZ11Uint24ArrayZ16SliceOverIndexed128__T8opEqualsTxS3std3uni84__T16SliceOverIndexedTxS3std3uni36__T11Uint24ArrayTS3std3uni8GcPolicyZ11Uint24ArrayZ16SliceOverIndexedZ8opEqualsMxFNaNbNfKxS3std3uni84__T16SliceOverIndexedTxS3std3uni36__T11Uint24ArrayTS3std3uni8GcPolicyZ11Uint24ArrayZ16SliceOverIndexedZb 0000000140041ef0 f i phobos64:uni_c07_16fc.obj
 0001:00040fb0       _D3std5range123__T5retroTS3std3uni83__T16SliceOverIndexedTS3std3uni36__T11Uint24ArrayTS3std3uni8GcPolicyZ11Uint24ArrayZ16SliceOverIndexedZ5retroFNaNbNfS3std3uni83__T16SliceOverIndexedTS3std3uni36__T11Uint24ArrayTS3std3uni8GcPolicyZ11Uint24ArrayZ16SliceOverIndexedZS3std5range123__T5retroTS3std3uni83__T16SliceOverIndexedTS3std3uni36__T11Uint24ArrayTS3std3uni8GcPolicyZ11Uint24ArrayZ16SliceOverIndexedZ5retroFS3std3uni83__T16SliceOverIndexedTS3std3uni36__T11Uint24ArrayTS3std3uni8GcPolicyZ11Uint24ArrayZ16SliceOverIndexedZ11__T6ResultZ6Result11__T6ResultZ6Result10retroIndexMFNaNbNfmZm 0000000140041fb0 f i phobos64:range_460_2f1.obj
 0001:00040fd0       _D3std5range123__T5retroTS3std3uni83__T16SliceOverIndexedTS3std3uni36__T11Uint24ArrayTS3std3uni8GcPolicyZ11Uint24ArrayZ16SliceOverIndexedZ5retroFNaNbNfS3std3uni83__T16SliceOverIndexedTS3std3uni36__T11Uint24ArrayTS3std3uni8GcPolicyZ11Uint24ArrayZ16SliceOverIndexedZS3std5range123__T5retroTS3std3uni83__T16SliceOverIndexedTS3std3uni36__T11Uint24ArrayTS3std3uni8GcPolicyZ11Uint24ArrayZ16SliceOverIndexedZ5retroFS3std3uni83__T16SliceOverIndexedTS3std3uni36__T11Uint24ArrayTS3std3uni8GcPolicyZ11Uint24ArrayZ16SliceOverIndexedZ11__T6ResultZ6Result11__T6ResultZ6Result5emptyMFNaNbNdNfZb 0000000140041fd0 f i phobos64:range_460_2f1.obj
 0001:00040ff0       _D3std5range123__T5retroTS3std3uni83__T16SliceOverIndexedTS3std3uni36__T11Uint24ArrayTS3std3uni8GcPolicyZ11Uint24ArrayZ16SliceOverIndexedZ5retroFNaNbNfS3std3uni83__T16SliceOverIndexedTS3std3uni36__T11Uint24ArrayTS3std3uni8GcPolicyZ11Uint24ArrayZ16SliceOverIndexedZS3std5range123__T5retroTS3std3uni83__T16SliceOverIndexedTS3std3uni36__T11Uint24ArrayTS3std3uni8GcPolicyZ11Uint24ArrayZ16SliceOverIndexedZ5retroFS3std3uni83__T16SliceOverIndexedTS3std3uni36__T11Uint24ArrayTS3std3uni8GcPolicyZ11Uint24ArrayZ16SliceOverIndexedZ11__T6ResultZ6Result11__T6ResultZ6Result4saveMFNaNbNdNfZS3std5range123__T5retroTS3std3uni83__T16SliceOverIndexedTS3std3uni36__T11Uint24ArrayTS3std3uni8GcPolicyZ11Uint24ArrayZ16SliceOverIndexedZ5retroFS3std3uni83__T16SliceOverIndexedTS3std3uni36__T11Uint24ArrayTS3std3uni8GcPolicyZ11Uint24ArrayZ16SliceOverIndexedZ11__T6ResultZ6Result 0000000140041ff0 f i phobos64:range_460_2f1.obj
 0001:00041030       _D3std5range123__T5retroTS3std3uni83__T16SliceOverIndexedTS3std3uni36__T11Uint24ArrayTS3std3uni8GcPolicyZ11Uint24ArrayZ16SliceOverIndexedZ5retroFNaNbNfS3std3uni83__T16SliceOverIndexedTS3std3uni36__T11Uint24ArrayTS3std3uni8GcPolicyZ11Uint24ArrayZ16SliceOverIndexedZS3std5range123__T5retroTS3std3uni83__T16SliceOverIndexedTS3std3uni36__T11Uint24ArrayTS3std3uni8GcPolicyZ11Uint24ArrayZ16SliceOverIndexedZ5retroFS3std3uni83__T16SliceOverIndexedTS3std3uni36__T11Uint24ArrayTS3std3uni8GcPolicyZ11Uint24ArrayZ16SliceOverIndexedZ11__T6ResultZ6Result11__T6ResultZ6Result5frontMFNaNbNdNfZk 0000000140042030 f i phobos64:range_460_2f1.obj
 0001:00041050       _D3std5range123__T5retroTS3std3uni83__T16SliceOverIndexedTS3std3uni36__T11Uint24ArrayTS3std3uni8GcPolicyZ11Uint24ArrayZ16SliceOverIndexedZ5retroFNaNbNfS3std3uni83__T16SliceOverIndexedTS3std3uni36__T11Uint24ArrayTS3std3uni8GcPolicyZ11Uint24ArrayZ16SliceOverIndexedZS3std5range123__T5retroTS3std3uni83__T16SliceOverIndexedTS3std3uni36__T11Uint24ArrayTS3std3uni8GcPolicyZ11Uint24ArrayZ16SliceOverIndexedZ5retroFS3std3uni83__T16SliceOverIndexedTS3std3uni36__T11Uint24ArrayTS3std3uni8GcPolicyZ11Uint24ArrayZ16SliceOverIndexedZ11__T6ResultZ6Result11__T6ResultZ6Result8popFrontMFNaNbNfZv 0000000140042050 f i phobos64:range_460_2f1.obj
 0001:00041070       _D3std5range123__T5retroTS3std3uni83__T16SliceOverIndexedTS3std3uni36__T11Uint24ArrayTS3std3uni8GcPolicyZ11Uint24ArrayZ16SliceOverIndexedZ5retroFNaNbNfS3std3uni83__T16SliceOverIndexedTS3std3uni36__T11Uint24ArrayTS3std3uni8GcPolicyZ11Uint24ArrayZ16SliceOverIndexedZS3std5range123__T5retroTS3std3uni83__T16SliceOverIndexedTS3std3uni36__T11Uint24ArrayTS3std3uni8GcPolicyZ11Uint24ArrayZ16SliceOverIndexedZ5retroFS3std3uni83__T16SliceOverIndexedTS3std3uni36__T11Uint24ArrayTS3std3uni8GcPolicyZ11Uint24ArrayZ16SliceOverIndexedZ11__T6ResultZ6Result11__T6ResultZ6Result4backMFNaNbNdNfZk 0000000140042070 f i phobos64:range_460_2f1.obj
 0001:00041090       _D3std5range123__T5retroTS3std3uni83__T16SliceOverIndexedTS3std3uni36__T11Uint24ArrayTS3std3uni8GcPolicyZ11Uint24ArrayZ16SliceOverIndexedZ5retroFNaNbNfS3std3uni83__T16SliceOverIndexedTS3std3uni36__T11Uint24ArrayTS3std3uni8GcPolicyZ11Uint24ArrayZ16SliceOverIndexedZS3std5range123__T5retroTS3std3uni83__T16SliceOverIndexedTS3std3uni36__T11Uint24ArrayTS3std3uni8GcPolicyZ11Uint24ArrayZ16SliceOverIndexedZ5retroFS3std3uni83__T16SliceOverIndexedTS3std3uni36__T11Uint24ArrayTS3std3uni8GcPolicyZ11Uint24ArrayZ16SliceOverIndexedZ11__T6ResultZ6Result11__T6ResultZ6Result7popBackMFNaNbNfZv 0000000140042090 f i phobos64:range_460_2f1.obj
 0001:000410b0       _D3std5range123__T5retroTS3std3uni83__T16SliceOverIndexedTS3std3uni36__T11Uint24ArrayTS3std3uni8GcPolicyZ11Uint24ArrayZ16SliceOverIndexedZ5retroFNaNbNfS3std3uni83__T16SliceOverIndexedTS3std3uni36__T11Uint24ArrayTS3std3uni8GcPolicyZ11Uint24ArrayZ16SliceOverIndexedZS3std5range123__T5retroTS3std3uni83__T16SliceOverIndexedTS3std3uni36__T11Uint24ArrayTS3std3uni8GcPolicyZ11Uint24ArrayZ16SliceOverIndexedZ5retroFS3std3uni83__T16SliceOverIndexedTS3std3uni36__T11Uint24ArrayTS3std3uni8GcPolicyZ11Uint24ArrayZ16SliceOverIndexedZ11__T6ResultZ6Result11__T6ResultZ6Result9moveFrontMFNaNbNfZk 00000001400420b0 f i phobos64:range_460_2f1.obj
 0001:000410e0       _D3std5range123__T5retroTS3std3uni83__T16SliceOverIndexedTS3std3uni36__T11Uint24ArrayTS3std3uni8GcPolicyZ11Uint24ArrayZ16SliceOverIndexedZ5retroFNaNbNfS3std3uni83__T16SliceOverIndexedTS3std3uni36__T11Uint24ArrayTS3std3uni8GcPolicyZ11Uint24ArrayZ16SliceOverIndexedZS3std5range123__T5retroTS3std3uni83__T16SliceOverIndexedTS3std3uni36__T11Uint24ArrayTS3std3uni8GcPolicyZ11Uint24ArrayZ16SliceOverIndexedZ5retroFS3std3uni83__T16SliceOverIndexedTS3std3uni36__T11Uint24ArrayTS3std3uni8GcPolicyZ11Uint24ArrayZ16SliceOverIndexedZ11__T6ResultZ6Result11__T6ResultZ6Result8moveBackMFNaNbNfZk 00000001400420e0 f i phobos64:range_460_2f1.obj
 0001:00041110       _D3std5range123__T5retroTS3std3uni83__T16SliceOverIndexedTS3std3uni36__T11Uint24ArrayTS3std3uni8GcPolicyZ11Uint24ArrayZ16SliceOverIndexedZ5retroFNaNbNfS3std3uni83__T16SliceOverIndexedTS3std3uni36__T11Uint24ArrayTS3std3uni8GcPolicyZ11Uint24ArrayZ16SliceOverIndexedZS3std5range123__T5retroTS3std3uni83__T16SliceOverIndexedTS3std3uni36__T11Uint24ArrayTS3std3uni8GcPolicyZ11Uint24ArrayZ16SliceOverIndexedZ5retroFS3std3uni83__T16SliceOverIndexedTS3std3uni36__T11Uint24ArrayTS3std3uni8GcPolicyZ11Uint24ArrayZ16SliceOverIndexedZ11__T6ResultZ6Result11__T6ResultZ6Result5frontMFNaNdNfkZv 0000000140042110 f i phobos64:range_460_2f1.obj
 0001:00041130       _D3std5range123__T5retroTS3std3uni83__T16SliceOverIndexedTS3std3uni36__T11Uint24ArrayTS3std3uni8GcPolicyZ11Uint24ArrayZ16SliceOverIndexedZ5retroFNaNbNfS3std3uni83__T16SliceOverIndexedTS3std3uni36__T11Uint24ArrayTS3std3uni8GcPolicyZ11Uint24ArrayZ16SliceOverIndexedZS3std5range123__T5retroTS3std3uni83__T16SliceOverIndexedTS3std3uni36__T11Uint24ArrayTS3std3uni8GcPolicyZ11Uint24ArrayZ16SliceOverIndexedZ5retroFS3std3uni83__T16SliceOverIndexedTS3std3uni36__T11Uint24ArrayTS3std3uni8GcPolicyZ11Uint24ArrayZ16SliceOverIndexedZ11__T6ResultZ6Result11__T6ResultZ6Result4backMFNaNdNfkZv 0000000140042130 f i phobos64:range_460_2f1.obj
 0001:00041150       _D3std5range123__T5retroTS3std3uni83__T16SliceOverIndexedTS3std3uni36__T11Uint24ArrayTS3std3uni8GcPolicyZ11Uint24ArrayZ16SliceOverIndexedZ5retroFNaNbNfS3std3uni83__T16SliceOverIndexedTS3std3uni36__T11Uint24ArrayTS3std3uni8GcPolicyZ11Uint24ArrayZ16SliceOverIndexedZS3std5range123__T5retroTS3std3uni83__T16SliceOverIndexedTS3std3uni36__T11Uint24ArrayTS3std3uni8GcPolicyZ11Uint24ArrayZ16SliceOverIndexedZ5retroFS3std3uni83__T16SliceOverIndexedTS3std3uni36__T11Uint24ArrayTS3std3uni8GcPolicyZ11Uint24ArrayZ16SliceOverIndexedZ11__T6ResultZ6Result11__T6ResultZ6Result7opIndexMFNaNbNfmZk 0000000140042150 f i phobos64:range_460_2f1.obj
 0001:00041180       _D3std5range123__T5retroTS3std3uni83__T16SliceOverIndexedTS3std3uni36__T11Uint24ArrayTS3std3uni8GcPolicyZ11Uint24ArrayZ16SliceOverIndexedZ5retroFNaNbNfS3std3uni83__T16SliceOverIndexedTS3std3uni36__T11Uint24ArrayTS3std3uni8GcPolicyZ11Uint24ArrayZ16SliceOverIndexedZS3std5range123__T5retroTS3std3uni83__T16SliceOverIndexedTS3std3uni36__T11Uint24ArrayTS3std3uni8GcPolicyZ11Uint24ArrayZ16SliceOverIndexedZ5retroFS3std3uni83__T16SliceOverIndexedTS3std3uni36__T11Uint24ArrayTS3std3uni8GcPolicyZ11Uint24ArrayZ16SliceOverIndexedZ11__T6ResultZ6Result11__T6ResultZ6Result13opIndexAssignMFNaNfkmZv 0000000140042180 f i phobos64:range_460_2f1.obj
 0001:000411c0       _D3std5range123__T5retroTS3std3uni83__T16SliceOverIndexedTS3std3uni36__T11Uint24ArrayTS3std3uni8GcPolicyZ11Uint24ArrayZ16SliceOverIndexedZ5retroFNaNbNfS3std3uni83__T16SliceOverIndexedTS3std3uni36__T11Uint24ArrayTS3std3uni8GcPolicyZ11Uint24ArrayZ16SliceOverIndexedZS3std5range123__T5retroTS3std3uni83__T16SliceOverIndexedTS3std3uni36__T11Uint24ArrayTS3std3uni8GcPolicyZ11Uint24ArrayZ16SliceOverIndexedZ5retroFS3std3uni83__T16SliceOverIndexedTS3std3uni36__T11Uint24ArrayTS3std3uni8GcPolicyZ11Uint24ArrayZ16SliceOverIndexedZ11__T6ResultZ6Result11__T6ResultZ6Result6moveAtMFNaNbNfmZk 00000001400421c0 f i phobos64:range_460_2f1.obj
 0001:00041210       _D3std5range123__T5retroTS3std3uni83__T16SliceOverIndexedTS3std3uni36__T11Uint24ArrayTS3std3uni8GcPolicyZ11Uint24ArrayZ16SliceOverIndexedZ5retroFNaNbNfS3std3uni83__T16SliceOverIndexedTS3std3uni36__T11Uint24ArrayTS3std3uni8GcPolicyZ11Uint24ArrayZ16SliceOverIndexedZS3std5range123__T5retroTS3std3uni83__T16SliceOverIndexedTS3std3uni36__T11Uint24ArrayTS3std3uni8GcPolicyZ11Uint24ArrayZ16SliceOverIndexedZ5retroFS3std3uni83__T16SliceOverIndexedTS3std3uni36__T11Uint24ArrayTS3std3uni8GcPolicyZ11Uint24ArrayZ16SliceOverIndexedZ11__T6ResultZ6Result11__T6ResultZ6Result7opSliceMFNaNbNfmmZS3std5range123__T5retroTS3std3uni83__T16SliceOverIndexedTS3std3uni36__T11Uint24ArrayTS3std3uni8GcPolicyZ11Uint24ArrayZ16SliceOverIndexedZ5retroFS3std3uni83__T16SliceOverIndexedTS3std3uni36__T11Uint24ArrayTS3std3uni8GcPolicyZ11Uint24ArrayZ16SliceOverIndexedZ11__T6ResultZ6Result 0000000140042210 f i phobos64:range_460_2f1.obj
 0001:00041290       _D3std5range123__T5retroTS3std3uni83__T16SliceOverIndexedTS3std3uni36__T11Uint24ArrayTS3std3uni8GcPolicyZ11Uint24ArrayZ16SliceOverIndexedZ5retroFNaNbNfS3std3uni83__T16SliceOverIndexedTS3std3uni36__T11Uint24ArrayTS3std3uni8GcPolicyZ11Uint24ArrayZ16SliceOverIndexedZS3std5range123__T5retroTS3std3uni83__T16SliceOverIndexedTS3std3uni36__T11Uint24ArrayTS3std3uni8GcPolicyZ11Uint24ArrayZ16SliceOverIndexedZ5retroFS3std3uni83__T16SliceOverIndexedTS3std3uni36__T11Uint24ArrayTS3std3uni8GcPolicyZ11Uint24ArrayZ16SliceOverIndexedZ11__T6ResultZ6Result11__T6ResultZ6Result6lengthMFNaNbNdNfZm 0000000140042290 f i phobos64:range_460_2f1.obj
 0001:000412b0       _D3std5range123__T5retroTS3std3uni83__T16SliceOverIndexedTS3std3uni36__T11Uint24ArrayTS3std3uni8GcPolicyZ11Uint24ArrayZ16SliceOverIndexedZ5retroFNaNbNfS3std3uni83__T16SliceOverIndexedTS3std3uni36__T11Uint24ArrayTS3std3uni8GcPolicyZ11Uint24ArrayZ16SliceOverIndexedZS3std5range123__T5retroTS3std3uni83__T16SliceOverIndexedTS3std3uni36__T11Uint24ArrayTS3std3uni8GcPolicyZ11Uint24ArrayZ16SliceOverIndexedZ5retroFS3std3uni83__T16SliceOverIndexedTS3std3uni36__T11Uint24ArrayTS3std3uni8GcPolicyZ11Uint24ArrayZ16SliceOverIndexedZ11__T6ResultZ6Result11__T6ResultZ6Result11__xopEqualsFKxS3std5range123__T5retroTS3std3uni83__T16SliceOverIndexedTS3std3uni36__T11Uint24ArrayTS3std3uni8GcPolicyZ11Uint24ArrayZ16SliceOverIndexedZ5retroFS3std3uni83__T16SliceOverIndexedTS3std3uni36__T11Uint24ArrayTS3std3uni8GcPolicyZ11Uint24ArrayZ16SliceOverIndexedZ11__T6ResultZ6ResultKxS3std5range123__T5retroTS3std3uni83__T16SliceOverIndexedTS3std3uni36__T11Uint24ArrayTS3std3uni8GcPolicyZ11Uint24ArrayZ16SliceOverIndexedZ5retroFS3std3uni83__T16SliceOverIndexedTS3std3uni36__T11Uint24ArrayTS3std3uni8GcPolicyZ11Uint24ArrayZ16SliceOverIndexedZ11__T6ResultZ6ResultZb 00000001400422b0 f i phobos64:range_460_2f1.obj
 0001:000412d0       _D3std6format70__T14formattedWriteTS3std5array17__T8AppenderTAyaZ8AppenderTaTAyaTAyaZ14formattedWriteFNaNfS3std5array17__T8AppenderTAyaZ8AppenderxAaAyaAyaZk 00000001400422d0 f i phobos64:format_184_13da.obj
 0001:000417a0       _D3std6format70__T14formattedWriteTS3std5array17__T8AppenderTAyaZ8AppenderTaTAyaTAyaZ14formattedWriteFNaNfS3std5array17__T8AppenderTAyaZ8AppenderxAaAyaAyaZk9__lambda6FNaNbNeZPFNaNbNfS3std5array17__T8AppenderTAyaZ8AppenderPxvKS3std6format18__T10FormatSpecTaZ10FormatSpecZv 00000001400427a0 f i phobos64:format_184_13da.obj
 0001:000417b0       _D3std6format70__T14formattedWriteTS3std5array17__T8AppenderTAyaZ8AppenderTaTAyaTAyaZ14formattedWriteFNaNfS3std5array17__T8AppenderTAyaZ8AppenderxAaAyaAyaZk18__T9__lambda7TAyaZ9__lambda7FNaNbNeKAyaZxPv 00000001400427b0 f i phobos64:format_184_13da.obj
 0001:000417c0       _D3std6format70__T14formattedWriteTS3std5array17__T8AppenderTAyaZ8AppenderTaTAyaTAyaZ14formattedWriteFNaNfS3std5array17__T8AppenderTAyaZ8AppenderxAaAyaAyaZk9__lambda8FNaNbNeZPFNaNbNfS3std5array17__T8AppenderTAyaZ8AppenderPxvKS3std6format18__T10FormatSpecTaZ10FormatSpecZv 00000001400427c0 f i phobos64:format_184_13da.obj
 0001:000417d0       _D3std6format70__T14formattedWriteTS3std5array17__T8AppenderTAyaZ8AppenderTaTAyaTAyaZ14formattedWriteFNaNfS3std5array17__T8AppenderTAyaZ8AppenderxAaAyaAyaZk18__T9__lambda9TAyaZ9__lambda9FNaNbNeKAyaZxPv 00000001400427d0 f i phobos64:format_184_13da.obj
 0001:000417e0       _D3std6format70__T14formattedWriteTS3std5array17__T8AppenderTAyaZ8AppenderTaTAyaTAyaZ14formattedWriteFNaNfS3std5array17__T8AppenderTAyaZ8AppenderxAaAyaAyaZk13__dgliteral10MFNaNfZAya 00000001400427e0 f i phobos64:format_184_13da.obj
 0001:00041830       _D3std6format68__T14formattedWriteTS3std5array17__T8AppenderTAyaZ8AppenderTaTAyaTkZ14formattedWriteFNaNfS3std5array17__T8AppenderTAyaZ8AppenderxAaAyakZk 0000000140042830 f i phobos64:format_177_1303.obj
 0001:00041ca0       _D3std6format68__T14formattedWriteTS3std5array17__T8AppenderTAyaZ8AppenderTaTAyaTkZ14formattedWriteFNaNfS3std5array17__T8AppenderTAyaZ8AppenderxAaAyakZk9__lambda6FNaNbNeZPFNaNbNfS3std5array17__T8AppenderTAyaZ8AppenderPxvKS3std6format18__T10FormatSpecTaZ10FormatSpecZv 0000000140042ca0 f i phobos64:format_177_1303.obj
 0001:00041cb0       _D3std6format68__T14formattedWriteTS3std5array17__T8AppenderTAyaZ8AppenderTaTAyaTkZ14formattedWriteFNaNfS3std5array17__T8AppenderTAyaZ8AppenderxAaAyakZk18__T9__lambda7TAyaZ9__lambda7FNaNbNeKAyaZxPv 0000000140042cb0 f i phobos64:format_177_1303.obj
 0001:00041cc0       _D3std6format68__T14formattedWriteTS3std5array17__T8AppenderTAyaZ8AppenderTaTAyaTkZ14formattedWriteFNaNfS3std5array17__T8AppenderTAyaZ8AppenderxAaAyakZk9__lambda8FNaNbNeZPFNaNbNfS3std5array17__T8AppenderTAyaZ8AppenderPxvKS3std6format18__T10FormatSpecTaZ10FormatSpecZv 0000000140042cc0 f i phobos64:format_177_1303.obj
 0001:00041cd0       _D3std6format68__T14formattedWriteTS3std5array17__T8AppenderTAyaZ8AppenderTaTAyaTkZ14formattedWriteFNaNfS3std5array17__T8AppenderTAyaZ8AppenderxAaAyakZk16__T9__lambda9TkZ9__lambda9FNaNbNeKkZxPv 0000000140042cd0 f i phobos64:format_177_1303.obj
 0001:00041ce0       _D3std6format68__T14formattedWriteTS3std5array17__T8AppenderTAyaZ8AppenderTaTAyaTkZ14formattedWriteFNaNfS3std5array17__T8AppenderTAyaZ8AppenderxAaAyakZk13__dgliteral10MFNaNfZAya 0000000140042ce0 f i phobos64:format_177_1303.obj
 0001:00041d30       _D3std6format72__T14formattedWriteTS3std5array17__T8AppenderTAyaZ8AppenderTaTAyaTkTAyaZ14formattedWriteFNaNfS3std5array17__T8AppenderTAyaZ8AppenderxAaAyakAyaZk 0000000140042d30 f i phobos64:format_18a_15e6.obj
 0001:00042260       _D3std6format72__T14formattedWriteTS3std5array17__T8AppenderTAyaZ8AppenderTaTAyaTkTAyaZ14formattedWriteFNaNfS3std5array17__T8AppenderTAyaZ8AppenderxAaAyakAyaZk9__lambda7FNaNbNeZPFNaNbNfS3std5array17__T8AppenderTAyaZ8AppenderPxvKS3std6format18__T10FormatSpecTaZ10FormatSpecZv 0000000140043260 f i phobos64:format_18a_15e6.obj
 0001:00042270       _D3std6format72__T14formattedWriteTS3std5array17__T8AppenderTAyaZ8AppenderTaTAyaTkTAyaZ14formattedWriteFNaNfS3std5array17__T8AppenderTAyaZ8AppenderxAaAyakAyaZk18__T9__lambda8TAyaZ9__lambda8FNaNbNeKAyaZxPv 0000000140043270 f i phobos64:format_18a_15e6.obj
 0001:00042280       _D3std6format72__T14formattedWriteTS3std5array17__T8AppenderTAyaZ8AppenderTaTAyaTkTAyaZ14formattedWriteFNaNfS3std5array17__T8AppenderTAyaZ8AppenderxAaAyakAyaZk9__lambda9FNaNbNeZPFNaNbNfS3std5array17__T8AppenderTAyaZ8AppenderPxvKS3std6format18__T10FormatSpecTaZ10FormatSpecZv 0000000140043280 f i phobos64:format_18a_15e6.obj
 0001:00042290       _D3std6format72__T14formattedWriteTS3std5array17__T8AppenderTAyaZ8AppenderTaTAyaTkTAyaZ14formattedWriteFNaNfS3std5array17__T8AppenderTAyaZ8AppenderxAaAyakAyaZk18__T10__lambda10TkZ10__lambda10FNaNbNeKkZxPv 0000000140043290 f i phobos64:format_18a_15e6.obj
 0001:000422a0       _D3std6format72__T14formattedWriteTS3std5array17__T8AppenderTAyaZ8AppenderTaTAyaTkTAyaZ14formattedWriteFNaNfS3std5array17__T8AppenderTAyaZ8AppenderxAaAyakAyaZk10__lambda11FNaNbNeZPFNaNbNfS3std5array17__T8AppenderTAyaZ8AppenderPxvKS3std6format18__T10FormatSpecTaZ10FormatSpecZv 00000001400432a0 f i phobos64:format_18a_15e6.obj
 0001:000422b0       _D3std6format72__T14formattedWriteTS3std5array17__T8AppenderTAyaZ8AppenderTaTAyaTkTAyaZ14formattedWriteFNaNfS3std5array17__T8AppenderTAyaZ8AppenderxAaAyakAyaZk20__T10__lambda12TAyaZ10__lambda12FNaNbNeKAyaZxPv 00000001400432b0 f i phobos64:format_18a_15e6.obj
 0001:000422c0       _D3std6format72__T14formattedWriteTS3std5array17__T8AppenderTAyaZ8AppenderTaTAyaTkTAyaZ14formattedWriteFNaNfS3std5array17__T8AppenderTAyaZ8AppenderxAaAyakAyaZk13__dgliteral13MFNaNfZAya 00000001400432c0 f i phobos64:format_18a_15e6.obj
 0001:00042310       _D3std6string21__T6formatTaTAyaTkTkZ6formatFNaNfxAaAyakkZAya 0000000140043310 f i phobos64:string_d9_b94.obj
 0001:000423d0       _D3std6string21__T6formatTaTAyaTkTkZ6formatFNaNfxAaAyakkZAya12__dgliteral6MFNaNfZC6object9Throwable 00000001400433d0 f i phobos64:string_d9_b94.obj
 0001:000424c0       _D3std5array55__T14arrayAllocImplVb0TAS3std3uni17CodepointIntervalTmZ14arrayAllocImplFNaNbmZAS3std3uni17CodepointInterval 00000001400434c0 f i phobos64:array_66b_1278.obj
 0001:00042500       _D3std5array55__T14arrayAllocImplVb0TAS3std3uni17CodepointIntervalTmZ14arrayAllocImplFNaNbmZAS3std3uni17CodepointInterval9__lambda3MFNbNfZPS3std3uni17CodepointInterval 0000000140043500 f i phobos64:array_66b_1278.obj
 0001:00042530       _D3std5range20__T3putTDFAxaZvTAxaZ3putFKDFAxaZvAxaZv 0000000140043530 f i phobos64:range_3cf_1111.obj
 0001:00042550       _D3std6format29__T11formatValueTDFAxaZvTkTaZ11formatValueFDFAxaZvkKS3std6format18__T10FormatSpecTaZ10FormatSpecZv 0000000140043550 f i phobos64:format_161_131a.obj
 0001:00042700       _D3std6format29__T11formatValueTDFAxaZvTkTaZ11formatValueFDFAxaZvkKS3std6format18__T10FormatSpecTaZ10FormatSpecZv16__T9__lambda4TkZ9__lambda4FNaNbNeKkZAxa 0000000140043700 f i phobos64:format_161_131a.obj
 0001:00042720       _D3std6format29__T11formatValueTDFAxaZvTkTaZ11formatValueFDFAxaZvkKS3std6format18__T10FormatSpecTaZ10FormatSpecZv12__dgliteral5MFNaNbNfZAya 0000000140043720 f i phobos64:format_161_131a.obj
 0001:00042740       _D3std9algorithm292__T11TimSortImplS673std10functional39__T9binaryFunVAyaa9_612e61203c20622e61Z9binaryFunTS3std3uni38__T13InversionListTS3std3uni8GcPolicyZ13InversionList127__T9IntervalsTS3std3uni83__T16SliceOverIndexedTS3std3uni36__T11Uint24ArrayTS3std3uni8GcPolicyZ11Uint24ArrayZ16SliceOverIndexedZ9IntervalsZ24__T12gallopSearchVb1Vb1Z223__T12gallopSearchTS3std3uni38__T13InversionListTS3std3uni8GcPolicyZ13InversionList127__T9IntervalsTS3std3uni83__T16SliceOverIndexedTS3std3uni36__T11Uint24ArrayTS3std3uni8GcPolicyZ11Uint24ArrayZ16SliceOverIndexedZ9IntervalsZ12gallopSearchFNfS3std3uni38__T13InversionListTS3std3uni8GcPolicyZ13InversionList127__T9IntervalsTS3std3uni83__T16SliceOverIndexedTS3std3uni36__T11Uint24ArrayTS3std3uni8GcPolicyZ11Uint24ArrayZ16SliceOverIndexedZ9IntervalsS3std3uni17CodepointIntervalZm 0000000140043740 f i phobos64:algorithm_27f1_17c1.obj
 0001:00042840       _D3std9algorithm244__T4copyTS3std3uni38__T13InversionListTS3std3uni8GcPolicyZ13InversionList127__T9IntervalsTS3std3uni83__T16SliceOverIndexedTS3std3uni36__T11Uint24ArrayTS3std3uni8GcPolicyZ11Uint24ArrayZ16SliceOverIndexedZ9IntervalsTAS3std3uni17CodepointIntervalZ4copyFNaNfS3std3uni38__T13InversionListTS3std3uni8GcPolicyZ13InversionList127__T9IntervalsTS3std3uni83__T16SliceOverIndexedTS3std3uni36__T11Uint24ArrayTS3std3uni8GcPolicyZ11Uint24ArrayZ16SliceOverIndexedZ9IntervalsAS3std3uni17CodepointIntervalZAS3std3uni17CodepointInterval 0000000140043840 f i phobos64:algorithm_27ed_1c95.obj
 0001:00042890       _D3std9algorithm244__T4copyTS3std3uni38__T13InversionListTS3std3uni8GcPolicyZ13InversionList127__T9IntervalsTS3std3uni83__T16SliceOverIndexedTS3std3uni36__T11Uint24ArrayTS3std3uni8GcPolicyZ11Uint24ArrayZ16SliceOverIndexedZ9IntervalsTAS3std3uni17CodepointIntervalZ4copyFNaNfS3std3uni38__T13InversionListTS3std3uni8GcPolicyZ13InversionList127__T9IntervalsTS3std3uni83__T16SliceOverIndexedTS3std3uni36__T11Uint24ArrayTS3std3uni8GcPolicyZ11Uint24ArrayZ16SliceOverIndexedZ9IntervalsAS3std3uni17CodepointIntervalZAS3std3uni17CodepointInterval11genericImplFNfS3std3uni38__T13InversionListTS3std3uni8GcPolicyZ13InversionList127__T9IntervalsTS3std3uni83__T16SliceOverIndexedTS3std3uni36__T11Uint24ArrayTS3std3uni8GcPolicyZ11Uint24ArrayZ16SliceOverIndexedZ9IntervalsAS3std3uni17CodepointIntervalZAS3std3uni17CodepointInterval 0000000140043890 f i phobos64:algorithm_27ed_1c95.obj
 0001:00042940       _D3std9algorithm217__T7reverseTS3std3uni38__T13InversionListTS3std3uni8GcPolicyZ13InversionList127__T9IntervalsTS3std3uni83__T16SliceOverIndexedTS3std3uni36__T11Uint24ArrayTS3std3uni8GcPolicyZ11Uint24ArrayZ16SliceOverIndexedZ9IntervalsZ7reverseFNfS3std3uni38__T13InversionListTS3std3uni8GcPolicyZ13InversionList127__T9IntervalsTS3std3uni83__T16SliceOverIndexedTS3std3uni36__T11Uint24ArrayTS3std3uni8GcPolicyZ11Uint24ArrayZ16SliceOverIndexedZ9IntervalsZv 0000000140043940 f i phobos64:algorithm_27e9_15e8.obj
 0001:000429d0       _D3std9algorithm292__T11TimSortImplS673std10functional39__T9binaryFunVAyaa9_612e61203c20622e61Z9binaryFunTS3std3uni38__T13InversionListTS3std3uni8GcPolicyZ13InversionList127__T9IntervalsTS3std3uni83__T16SliceOverIndexedTS3std3uni36__T11Uint24ArrayTS3std3uni8GcPolicyZ11Uint24ArrayZ16SliceOverIndexedZ9IntervalsZ24__T12gallopSearchVb1Vb0Z48__T12gallopSearchTAS3std3uni17CodepointIntervalZ12gallopSearchFAS3std3uni17CodepointIntervalS3std3uni17CodepointIntervalZm 00000001400439d0 f i phobos64:algorithm_27f0_ce9.obj
 0001:00042a90       _D3std9algorithm292__T11TimSortImplS673std10functional39__T9binaryFunVAyaa9_612e61203c20622e61Z9binaryFunTS3std3uni38__T13InversionListTS3std3uni8GcPolicyZ13InversionList127__T9IntervalsTS3std3uni83__T16SliceOverIndexedTS3std3uni36__T11Uint24ArrayTS3std3uni8GcPolicyZ11Uint24ArrayZ16SliceOverIndexedZ9IntervalsZ24__T12gallopSearchVb0Vb1Z48__T12gallopSearchTAS3std3uni17CodepointIntervalZ12gallopSearchFAS3std3uni17CodepointIntervalS3std3uni17CodepointIntervalZm 0000000140043a90 f i phobos64:algorithm_27ee_ce9.obj
 0001:00042b50       _D3std10functional39__T9binaryFunVAyaa9_612e61203c20622e61Z72__T9binaryFunTS3std3uni17CodepointIntervalTS3std3uni17CodepointIntervalZ9binaryFunFNfS3std3uni17CodepointIntervalS3std3uni17CodepointIntervalZb 0000000140043b50 f i phobos64:functional_794_1240.obj
 0001:00042ba0       _D3std5array57__T18uninitializedArrayTAS3std3uni17CodepointIntervalTyiZ18uninitializedArrayFNaNbyiZAS3std3uni17CodepointInterval 0000000140043ba0 f i phobos64:array_665_1534.obj
 0001:00042bc0       _D3std9algorithm38__T4moveTS3std3uni17CodepointIntervalZ4moveFNaNbKS3std3uni17CodepointIntervalZS3std3uni17CodepointInterval 0000000140043bc0 f i phobos64:algorithm_27e7_913.obj
 0001:00042bf0       _D3std9algorithm292__T11TimSortImplS673std10functional39__T9binaryFunVAyaa9_612e61203c20622e61Z9binaryFunTS3std3uni38__T13InversionListTS3std3uni8GcPolicyZ13InversionList127__T9IntervalsTS3std3uni83__T16SliceOverIndexedTS3std3uni36__T11Uint24ArrayTS3std3uni8GcPolicyZ11Uint24ArrayZ16SliceOverIndexedZ9IntervalsZ24__T12gallopSearchVb0Vb0Z223__T12gallopSearchTS3std3uni38__T13InversionListTS3std3uni8GcPolicyZ13InversionList127__T9IntervalsTS3std3uni83__T16SliceOverIndexedTS3std3uni36__T11Uint24ArrayTS3std3uni8GcPolicyZ11Uint24ArrayZ16SliceOverIndexedZ9IntervalsZ12gallopSearchFS3std3uni38__T13InversionListTS3std3uni8GcPolicyZ13InversionList127__T9IntervalsTS3std3uni83__T16SliceOverIndexedTS3std3uni36__T11Uint24ArrayTS3std3uni8GcPolicyZ11Uint24ArrayZ16SliceOverIndexedZ9IntervalsS3std3uni17CodepointIntervalZm 0000000140043bf0 f i phobos64:algorithm_27ef_17c1.obj
 0001:00042cf0       _D3std5range218__T6moveAtTS3std3uni38__T13InversionListTS3std3uni8GcPolicyZ13InversionList127__T9IntervalsTS3std3uni83__T16SliceOverIndexedTS3std3uni36__T11Uint24ArrayTS3std3uni8GcPolicyZ11Uint24ArrayZ16SliceOverIndexedZ9IntervalsTmZ6moveAtFNfS3std3uni38__T13InversionListTS3std3uni8GcPolicyZ13InversionList127__T9IntervalsTS3std3uni83__T16SliceOverIndexedTS3std3uni36__T11Uint24ArrayTS3std3uni8GcPolicyZ11Uint24ArrayZ16SliceOverIndexedZ9IntervalsmZS3std3uni17CodepointInterval 0000000140043cf0 f i phobos64:range_438_17c9.obj
 0001:00042d30       _D3std9algorithm292__T11TimSortImplS673std10functional39__T9binaryFunVAyaa9_612e61203c20622e61Z9binaryFunTS3std3uni38__T13InversionListTS3std3uni8GcPolicyZ13InversionList127__T9IntervalsTS3std3uni83__T16SliceOverIndexedTS3std3uni36__T11Uint24ArrayTS3std3uni8GcPolicyZ11Uint24ArrayZ16SliceOverIndexedZ9IntervalsZ24__T12gallopSearchVb0Vb1Z223__T12gallopSearchTS3std3uni38__T13InversionListTS3std3uni8GcPolicyZ13InversionList127__T9IntervalsTS3std3uni83__T16SliceOverIndexedTS3std3uni36__T11Uint24ArrayTS3std3uni8GcPolicyZ11Uint24ArrayZ16SliceOverIndexedZ9IntervalsZ12gallopSearchFS3std3uni38__T13InversionListTS3std3uni8GcPolicyZ13InversionList127__T9IntervalsTS3std3uni83__T16SliceOverIndexedTS3std3uni36__T11Uint24ArrayTS3std3uni8GcPolicyZ11Uint24ArrayZ16SliceOverIndexedZ9IntervalsS3std3uni17CodepointIntervalZm 0000000140043d30 f i phobos64:algorithm_27eb_17c1.obj
 0001:00042e30       _D3std9algorithm292__T11TimSortImplS673std10functional39__T9binaryFunVAyaa9_612e61203c20622e61Z9binaryFunTS3std3uni38__T13InversionListTS3std3uni8GcPolicyZ13InversionList127__T9IntervalsTS3std3uni83__T16SliceOverIndexedTS3std3uni36__T11Uint24ArrayTS3std3uni8GcPolicyZ11Uint24ArrayZ16SliceOverIndexedZ9IntervalsZ24__T12gallopSearchVb1Vb0Z223__T12gallopSearchTS3std3uni38__T13InversionListTS3std3uni8GcPolicyZ13InversionList127__T9IntervalsTS3std3uni83__T16SliceOverIndexedTS3std3uni36__T11Uint24ArrayTS3std3uni8GcPolicyZ11Uint24ArrayZ16SliceOverIndexedZ9IntervalsZ12gallopSearchFS3std3uni38__T13InversionListTS3std3uni8GcPolicyZ13InversionList127__T9IntervalsTS3std3uni83__T16SliceOverIndexedTS3std3uni36__T11Uint24ArrayTS3std3uni8GcPolicyZ11Uint24ArrayZ16SliceOverIndexedZ9IntervalsS3std3uni17CodepointIntervalZm 0000000140043e30 f i phobos64:algorithm_27ec_17c1.obj
 0001:00042f30       _D3std5range247__T11SortedRangeTS3std3uni38__T13InversionListTS3std3uni8GcPolicyZ13InversionList127__T9IntervalsTS3std3uni83__T16SliceOverIndexedTS3std3uni36__T11Uint24ArrayTS3std3uni8GcPolicyZ11Uint24ArrayZ16SliceOverIndexedZ9IntervalsVAyaa9_612e61203c20622e61Z11SortedRange6__ctorMFNaNbNcNfS3std3uni38__T13InversionListTS3std3uni8GcPolicyZ13InversionList127__T9IntervalsTS3std3uni83__T16SliceOverIndexedTS3std3uni36__T11Uint24ArrayTS3std3uni8GcPolicyZ11Uint24ArrayZ16SliceOverIndexedZ9IntervalsZS3std5range247__T11SortedRangeTS3std3uni38__T13InversionListTS3std3uni8GcPolicyZ13InversionList127__T9IntervalsTS3std3uni83__T16SliceOverIndexedTS3std3uni36__T11Uint24ArrayTS3std3uni8GcPolicyZ11Uint24ArrayZ16SliceOverIndexedZ9IntervalsVAyaa9_612e61203c20622e61Z11SortedRange 0000000140043f30 f i phobos64:range_437_1a37.obj
 0001:00042f50       _D3std5range247__T11SortedRangeTS3std3uni38__T13InversionListTS3std3uni8GcPolicyZ13InversionList127__T9IntervalsTS3std3uni83__T16SliceOverIndexedTS3std3uni36__T11Uint24ArrayTS3std3uni8GcPolicyZ11Uint24ArrayZ16SliceOverIndexedZ9IntervalsVAyaa9_612e61203c20622e61Z11SortedRange5emptyMFNaNbNdNfZb 0000000140043f50 f i phobos64:range_437_1a37.obj
 0001:00042f70       _D3std5range247__T11SortedRangeTS3std3uni38__T13InversionListTS3std3uni8GcPolicyZ13InversionList127__T9IntervalsTS3std3uni83__T16SliceOverIndexedTS3std3uni36__T11Uint24ArrayTS3std3uni8GcPolicyZ11Uint24ArrayZ16SliceOverIndexedZ9IntervalsVAyaa9_612e61203c20622e61Z11SortedRange4saveMFNaNbNdNfZS3std5range247__T11SortedRangeTS3std3uni38__T13InversionListTS3std3uni8GcPolicyZ13InversionList127__T9IntervalsTS3std3uni83__T16SliceOverIndexedTS3std3uni36__T11Uint24ArrayTS3std3uni8GcPolicyZ11Uint24ArrayZ16SliceOverIndexedZ9IntervalsVAyaa9_612e61203c20622e61Z11SortedRange 0000000140043f70 f i phobos64:range_437_1a37.obj
 0001:00042fc0       _D3std5range247__T11SortedRangeTS3std3uni38__T13InversionListTS3std3uni8GcPolicyZ13InversionList127__T9IntervalsTS3std3uni83__T16SliceOverIndexedTS3std3uni36__T11Uint24ArrayTS3std3uni8GcPolicyZ11Uint24ArrayZ16SliceOverIndexedZ9IntervalsVAyaa9_612e61203c20622e61Z11SortedRange5frontMFNdNfZS3std3uni17CodepointInterval 0000000140043fc0 f i phobos64:range_437_1a37.obj
 0001:00042ff0       _D3std5range247__T11SortedRangeTS3std3uni38__T13InversionListTS3std3uni8GcPolicyZ13InversionList127__T9IntervalsTS3std3uni83__T16SliceOverIndexedTS3std3uni36__T11Uint24ArrayTS3std3uni8GcPolicyZ11Uint24ArrayZ16SliceOverIndexedZ9IntervalsVAyaa9_612e61203c20622e61Z11SortedRange8popFrontMFNaNbNfZv 0000000140043ff0 f i phobos64:range_437_1a37.obj
 0001:00043010       _D3std5range247__T11SortedRangeTS3std3uni38__T13InversionListTS3std3uni8GcPolicyZ13InversionList127__T9IntervalsTS3std3uni83__T16SliceOverIndexedTS3std3uni36__T11Uint24ArrayTS3std3uni8GcPolicyZ11Uint24ArrayZ16SliceOverIndexedZ9IntervalsVAyaa9_612e61203c20622e61Z11SortedRange4backMFNdNfZS3std3uni17CodepointInterval 0000000140044010 f i phobos64:range_437_1a37.obj
 0001:00043040       _D3std5range247__T11SortedRangeTS3std3uni38__T13InversionListTS3std3uni8GcPolicyZ13InversionList127__T9IntervalsTS3std3uni83__T16SliceOverIndexedTS3std3uni36__T11Uint24ArrayTS3std3uni8GcPolicyZ11Uint24ArrayZ16SliceOverIndexedZ9IntervalsVAyaa9_612e61203c20622e61Z11SortedRange7popBackMFNaNbNfZv 0000000140044040 f i phobos64:range_437_1a37.obj
 0001:00043060       _D3std5range247__T11SortedRangeTS3std3uni38__T13InversionListTS3std3uni8GcPolicyZ13InversionList127__T9IntervalsTS3std3uni83__T16SliceOverIndexedTS3std3uni36__T11Uint24ArrayTS3std3uni8GcPolicyZ11Uint24ArrayZ16SliceOverIndexedZ9IntervalsVAyaa9_612e61203c20622e61Z11SortedRange7opIndexMFNfmZS3std3uni17CodepointInterval 0000000140044060 f i phobos64:range_437_1a37.obj
 0001:00043090       _D3std5range247__T11SortedRangeTS3std3uni38__T13InversionListTS3std3uni8GcPolicyZ13InversionList127__T9IntervalsTS3std3uni83__T16SliceOverIndexedTS3std3uni36__T11Uint24ArrayTS3std3uni8GcPolicyZ11Uint24ArrayZ16SliceOverIndexedZ9IntervalsVAyaa9_612e61203c20622e61Z11SortedRange7opSliceMFNaNbNfmmZS3std5range247__T11SortedRangeTS3std3uni38__T13InversionListTS3std3uni8GcPolicyZ13InversionList127__T9IntervalsTS3std3uni83__T16SliceOverIndexedTS3std3uni36__T11Uint24ArrayTS3std3uni8GcPolicyZ11Uint24ArrayZ16SliceOverIndexedZ9IntervalsVAyaa9_612e61203c20622e61Z11SortedRange 0000000140044090 f i phobos64:range_437_1a37.obj
 0001:000430e0       _D3std5range247__T11SortedRangeTS3std3uni38__T13InversionListTS3std3uni8GcPolicyZ13InversionList127__T9IntervalsTS3std3uni83__T16SliceOverIndexedTS3std3uni36__T11Uint24ArrayTS3std3uni8GcPolicyZ11Uint24ArrayZ16SliceOverIndexedZ9IntervalsVAyaa9_612e61203c20622e61Z11SortedRange6lengthMFNaNbNdNfZm 00000001400440e0 f i phobos64:range_437_1a37.obj
 0001:00043100       _D3std5range247__T11SortedRangeTS3std3uni38__T13InversionListTS3std3uni8GcPolicyZ13InversionList127__T9IntervalsTS3std3uni83__T16SliceOverIndexedTS3std3uni36__T11Uint24ArrayTS3std3uni8GcPolicyZ11Uint24ArrayZ16SliceOverIndexedZ9IntervalsVAyaa9_612e61203c20622e61Z11SortedRange7releaseMFNaNbZS3std3uni38__T13InversionListTS3std3uni8GcPolicyZ13InversionList127__T9IntervalsTS3std3uni83__T16SliceOverIndexedTS3std3uni36__T11Uint24ArrayTS3std3uni8GcPolicyZ11Uint24ArrayZ16SliceOverIndexedZ9Intervals 0000000140044100 f i phobos64:range_437_1a37.obj
 0001:00043140       _D3std5range247__T11SortedRangeTS3std3uni38__T13InversionListTS3std3uni8GcPolicyZ13InversionList127__T9IntervalsTS3std3uni83__T16SliceOverIndexedTS3std3uni36__T11Uint24ArrayTS3std3uni8GcPolicyZ11Uint24ArrayZ16SliceOverIndexedZ9IntervalsVAyaa9_612e61203c20622e61Z11SortedRange11__xopEqualsFKxS3std5range247__T11SortedRangeTS3std3uni38__T13InversionListTS3std3uni8GcPolicyZ13InversionList127__T9IntervalsTS3std3uni83__T16SliceOverIndexedTS3std3uni36__T11Uint24ArrayTS3std3uni8GcPolicyZ11Uint24ArrayZ16SliceOverIndexedZ9IntervalsVAyaa9_612e61203c20622e61Z11SortedRangeKxS3std5range247__T11SortedRangeTS3std3uni38__T13InversionListTS3std3uni8GcPolicyZ13InversionList127__T9IntervalsTS3std3uni83__T16SliceOverIndexedTS3std3uni36__T11Uint24ArrayTS3std3uni8GcPolicyZ11Uint24ArrayZ16SliceOverIndexedZ9IntervalsVAyaa9_612e61203c20622e61Z11SortedRangeZb 0000000140044140 f i phobos64:range_437_1a37.obj
 0001:00043190       _D3std5range147__T11SortedRangeTS3std3uni83__T16SliceOverIndexedTS3std3uni36__T11Uint24ArrayTS3std3uni8GcPolicyZ11Uint24ArrayZ16SliceOverIndexedVAyaa5_61203c2062Z11SortedRange12__T3geqTkTiZ3geqMFNaNbNfkiZb 0000000140044190 f i phobos64:range_454_506.obj
 0001:000431b0       _D3std5range145__T11SortedRangeTS3std3uni83__T16SliceOverIndexedTS3std3uni36__T11Uint24ArrayTS3std3uni8GcPolicyZ11Uint24ArrayZ16SliceOverIndexedVAyaa4_613c3d62Z11SortedRange12__T3geqTkTkZ3geqMFNaNbNfkkZb 00000001400441b0 f i phobos64:range_480_57b.obj
 0001:000431d0       _D3std4conv18__T6toImplTAyaTPaZ6toImplFNaPaZAya 00000001400441d0 f i phobos64:conv_29a1_792.obj
 0001:00043220       _D3std3uni124__T16SliceOverIndexedTS3std3uni69__T19PackedArrayViewImplTS3std3uni19__T9BitPackedTkVm8Z9BitPackedVm8Z19PackedArrayViewImplZ16SliceOverIndexed7opIndexMxFNaNbNfmZS3std3uni19__T9BitPackedTkVm8Z9BitPacked 0000000140044220 f i phobos64:uni_bee_1688.obj
 0001:00043250       _D3std3uni124__T16SliceOverIndexedTS3std3uni69__T19PackedArrayViewImplTS3std3uni19__T9BitPackedTkVm8Z9BitPackedVm8Z19PackedArrayViewImplZ16SliceOverIndexed13opIndexAssignMFNaNbNfS3std3uni19__T9BitPackedTkVm8Z9BitPackedmZv 0000000140044250 f i phobos64:uni_bee_1688.obj
 0001:00043280       _D3std3uni124__T16SliceOverIndexedTS3std3uni69__T19PackedArrayViewImplTS3std3uni19__T9BitPackedTkVm8Z9BitPackedVm8Z19PackedArrayViewImplZ16SliceOverIndexed7opSliceMFNaNbNfmmZS3std3uni124__T16SliceOverIndexedTS3std3uni69__T19PackedArrayViewImplTS3std3uni19__T9BitPackedTkVm8Z9BitPackedVm8Z19PackedArrayViewImplZ16SliceOverIndexed 0000000140044280 f i phobos64:uni_bee_1688.obj
 0001:000432c0       _D3std3uni124__T16SliceOverIndexedTS3std3uni69__T19PackedArrayViewImplTS3std3uni19__T9BitPackedTkVm8Z9BitPackedVm8Z19PackedArrayViewImplZ16SliceOverIndexed7opSliceMFNaNbNfZS3std3uni124__T16SliceOverIndexedTS3std3uni69__T19PackedArrayViewImplTS3std3uni19__T9BitPackedTkVm8Z9BitPackedVm8Z19PackedArrayViewImplZ16SliceOverIndexed 00000001400442c0 f i phobos64:uni_bee_1688.obj
 0001:000432f0       _D3std3uni124__T16SliceOverIndexedTS3std3uni69__T19PackedArrayViewImplTS3std3uni19__T9BitPackedTkVm8Z9BitPackedVm8Z19PackedArrayViewImplZ16SliceOverIndexed6lengthMxFNaNbNdNfZm 00000001400442f0 f i phobos64:uni_bee_1688.obj
 0001:00043300       _D3std3uni124__T16SliceOverIndexedTS3std3uni69__T19PackedArrayViewImplTS3std3uni19__T9BitPackedTkVm8Z9BitPackedVm8Z19PackedArrayViewImplZ16SliceOverIndexed8opDollarMxFNaNbNfZm 0000000140044300 f i phobos64:uni_bee_1688.obj
 0001:00043320       _D3std3uni124__T16SliceOverIndexedTS3std3uni69__T19PackedArrayViewImplTS3std3uni19__T9BitPackedTkVm8Z9BitPackedVm8Z19PackedArrayViewImplZ16SliceOverIndexed5emptyMxFNaNbNdNfZb 0000000140044320 f i phobos64:uni_bee_1688.obj
 0001:00043340       _D3std3uni124__T16SliceOverIndexedTS3std3uni69__T19PackedArrayViewImplTS3std3uni19__T9BitPackedTkVm8Z9BitPackedVm8Z19PackedArrayViewImplZ16SliceOverIndexed5frontMxFNaNbNdNfZS3std3uni19__T9BitPackedTkVm8Z9BitPacked 0000000140044340 f i phobos64:uni_bee_1688.obj
 0001:00043360       _D3std3uni124__T16SliceOverIndexedTS3std3uni69__T19PackedArrayViewImplTS3std3uni19__T9BitPackedTkVm8Z9BitPackedVm8Z19PackedArrayViewImplZ16SliceOverIndexed5frontMFNaNbNdNfS3std3uni19__T9BitPackedTkVm8Z9BitPackedZv 0000000140044360 f i phobos64:uni_bee_1688.obj
 0001:00043380       _D3std3uni124__T16SliceOverIndexedTS3std3uni69__T19PackedArrayViewImplTS3std3uni19__T9BitPackedTkVm8Z9BitPackedVm8Z19PackedArrayViewImplZ16SliceOverIndexed4backMxFNaNbNdNfZS3std3uni19__T9BitPackedTkVm8Z9BitPacked 0000000140044380 f i phobos64:uni_bee_1688.obj
 0001:000433a0       _D3std3uni124__T16SliceOverIndexedTS3std3uni69__T19PackedArrayViewImplTS3std3uni19__T9BitPackedTkVm8Z9BitPackedVm8Z19PackedArrayViewImplZ16SliceOverIndexed4backMFNaNbNdNfS3std3uni19__T9BitPackedTkVm8Z9BitPackedZv 00000001400443a0 f i phobos64:uni_bee_1688.obj
 0001:000433d0       _D3std3uni124__T16SliceOverIndexedTS3std3uni69__T19PackedArrayViewImplTS3std3uni19__T9BitPackedTkVm8Z9BitPackedVm8Z19PackedArrayViewImplZ16SliceOverIndexed4saveMNgFNaNbNdNfZNgS3std3uni124__T16SliceOverIndexedTS3std3uni69__T19PackedArrayViewImplTS3std3uni19__T9BitPackedTkVm8Z9BitPackedVm8Z19PackedArrayViewImplZ16SliceOverIndexed 00000001400443d0 f i phobos64:uni_bee_1688.obj
 0001:000433f0       _D3std3uni124__T16SliceOverIndexedTS3std3uni69__T19PackedArrayViewImplTS3std3uni19__T9BitPackedTkVm8Z9BitPackedVm8Z19PackedArrayViewImplZ16SliceOverIndexed8popFrontMFNaNbNfZv 00000001400443f0 f i phobos64:uni_bee_1688.obj
 0001:00043400       _D3std3uni124__T16SliceOverIndexedTS3std3uni69__T19PackedArrayViewImplTS3std3uni19__T9BitPackedTkVm8Z9BitPackedVm8Z19PackedArrayViewImplZ16SliceOverIndexed7popBackMFNaNbNfZv 0000000140044400 f i phobos64:uni_bee_1688.obj
 0001:00043410       _D3std3uni124__T16SliceOverIndexedTS3std3uni69__T19PackedArrayViewImplTS3std3uni19__T9BitPackedTkVm8Z9BitPackedVm8Z19PackedArrayViewImplZ16SliceOverIndexed11__xopEqualsFKxS3std3uni124__T16SliceOverIndexedTS3std3uni69__T19PackedArrayViewImplTS3std3uni19__T9BitPackedTkVm8Z9BitPackedVm8Z19PackedArrayViewImplZ16SliceOverIndexedKxS3std3uni124__T16SliceOverIndexedTS3std3uni69__T19PackedArrayViewImplTS3std3uni19__T9BitPackedTkVm8Z9BitPackedVm8Z19PackedArrayViewImplZ16SliceOverIndexedZb 0000000140044410 f i phobos64:uni_bee_1688.obj
 0001:00043430       _D3std3uni124__T16sliceOverIndexedTS3std3uni69__T19PackedArrayViewImplTS3std3uni19__T9BitPackedTkVm8Z9BitPackedVm8Z19PackedArrayViewImplZ16sliceOverIndexedFNaNbNfmmPS3std3uni69__T19PackedArrayViewImplTS3std3uni19__T9BitPackedTkVm8Z9BitPackedVm8Z19PackedArrayViewImplZS3std3uni124__T16SliceOverIndexedTS3std3uni69__T19PackedArrayViewImplTS3std3uni19__T9BitPackedTkVm8Z9BitPackedVm8Z19PackedArrayViewImplZ16SliceOverIndexed 0000000140044430 f i phobos64:uni_bed_16a8.obj
 0001:00043450       _D3std3uni25__T13replicateBitsVm8Vm8Z13replicateBitsFNaNbNfmZm 0000000140044450 f i phobos64:uni_9d9_7bb.obj
 0001:00043470       _D3std3uni69__T19PackedArrayViewImplTS3std3uni19__T9BitPackedTkVm8Z9BitPackedVm8Z19PackedArrayViewImpl116__T8opEqualsTxS3std3uni69__T19PackedArrayViewImplTS3std3uni19__T9BitPackedTkVm8Z9BitPackedVm8Z19PackedArrayViewImplZ8opEqualsMxFNaNbNeKxS3std3uni69__T19PackedArrayViewImplTS3std3uni19__T9BitPackedTkVm8Z9BitPackedVm8Z19PackedArrayViewImplZb 0000000140044470 f i phobos64:uni_bf0_15fd.obj
 0001:00043530       _D3std3uni140__T10MultiArrayTS3std3uni19__T9BitPackedTkVm8Z9BitPackedTS3std3uni20__T9BitPackedTkVm13Z9BitPackedTS3std3uni19__T9BitPackedTbVi1Z9BitPackedZ10MultiArray15__T7raw_ptrVm0Z7raw_ptrMNgFNaNbNdNfZPNgm 0000000140044530 f i phobos64:uni_ae6_442.obj
 0001:00043550       _D3std3uni71__T19PackedArrayViewImplTS3std3uni20__T9BitPackedTkVm13Z9BitPackedVm16Z19PackedArrayViewImpl118__T8opEqualsTxS3std3uni71__T19PackedArrayViewImplTS3std3uni20__T9BitPackedTkVm13Z9BitPackedVm16Z19PackedArrayViewImplZ8opEqualsMxFNaNbNeKxS3std3uni71__T19PackedArrayViewImplTS3std3uni20__T9BitPackedTkVm13Z9BitPackedVm16Z19PackedArrayViewImplZb 0000000140044550 f i phobos64:uni_bf8_1658.obj
 0001:00043610       _D3std3uni126__T16SliceOverIndexedTS3std3uni71__T19PackedArrayViewImplTS3std3uni20__T9BitPackedTkVm13Z9BitPackedVm16Z19PackedArrayViewImplZ16SliceOverIndexed7opIndexMxFNaNbNfmZS3std3uni20__T9BitPackedTkVm13Z9BitPacked 0000000140044610 f i phobos64:uni_ae8_16e3.obj
 0001:00043640       _D3std3uni126__T16SliceOverIndexedTS3std3uni71__T19PackedArrayViewImplTS3std3uni20__T9BitPackedTkVm13Z9BitPackedVm16Z19PackedArrayViewImplZ16SliceOverIndexed13opIndexAssignMFNaNbNfS3std3uni20__T9BitPackedTkVm13Z9BitPackedmZv 0000000140044640 f i phobos64:uni_ae8_16e3.obj
 0001:00043670       _D3std3uni126__T16SliceOverIndexedTS3std3uni71__T19PackedArrayViewImplTS3std3uni20__T9BitPackedTkVm13Z9BitPackedVm16Z19PackedArrayViewImplZ16SliceOverIndexed7opSliceMFNaNbNfmmZS3std3uni126__T16SliceOverIndexedTS3std3uni71__T19PackedArrayViewImplTS3std3uni20__T9BitPackedTkVm13Z9BitPackedVm16Z19PackedArrayViewImplZ16SliceOverIndexed 0000000140044670 f i phobos64:uni_ae8_16e3.obj
 0001:000436b0       _D3std3uni126__T16SliceOverIndexedTS3std3uni71__T19PackedArrayViewImplTS3std3uni20__T9BitPackedTkVm13Z9BitPackedVm16Z19PackedArrayViewImplZ16SliceOverIndexed7opSliceMFNaNbNfZS3std3uni126__T16SliceOverIndexedTS3std3uni71__T19PackedArrayViewImplTS3std3uni20__T9BitPackedTkVm13Z9BitPackedVm16Z19PackedArrayViewImplZ16SliceOverIndexed 00000001400446b0 f i phobos64:uni_ae8_16e3.obj
 0001:000436e0       _D3std3uni126__T16SliceOverIndexedTS3std3uni71__T19PackedArrayViewImplTS3std3uni20__T9BitPackedTkVm13Z9BitPackedVm16Z19PackedArrayViewImplZ16SliceOverIndexed6lengthMxFNaNbNdNfZm 00000001400446e0 f i phobos64:uni_ae8_16e3.obj
 0001:000436f0       _D3std3uni126__T16SliceOverIndexedTS3std3uni71__T19PackedArrayViewImplTS3std3uni20__T9BitPackedTkVm13Z9BitPackedVm16Z19PackedArrayViewImplZ16SliceOverIndexed8opDollarMxFNaNbNfZm 00000001400446f0 f i phobos64:uni_ae8_16e3.obj
 0001:00043710       _D3std3uni126__T16SliceOverIndexedTS3std3uni71__T19PackedArrayViewImplTS3std3uni20__T9BitPackedTkVm13Z9BitPackedVm16Z19PackedArrayViewImplZ16SliceOverIndexed5emptyMxFNaNbNdNfZb 0000000140044710 f i phobos64:uni_ae8_16e3.obj
 0001:00043730       _D3std3uni126__T16SliceOverIndexedTS3std3uni71__T19PackedArrayViewImplTS3std3uni20__T9BitPackedTkVm13Z9BitPackedVm16Z19PackedArrayViewImplZ16SliceOverIndexed5frontMxFNaNbNdNfZS3std3uni20__T9BitPackedTkVm13Z9BitPacked 0000000140044730 f i phobos64:uni_ae8_16e3.obj
 0001:00043750       _D3std3uni126__T16SliceOverIndexedTS3std3uni71__T19PackedArrayViewImplTS3std3uni20__T9BitPackedTkVm13Z9BitPackedVm16Z19PackedArrayViewImplZ16SliceOverIndexed5frontMFNaNbNdNfS3std3uni20__T9BitPackedTkVm13Z9BitPackedZv 0000000140044750 f i phobos64:uni_ae8_16e3.obj
 0001:00043770       _D3std3uni126__T16SliceOverIndexedTS3std3uni71__T19PackedArrayViewImplTS3std3uni20__T9BitPackedTkVm13Z9BitPackedVm16Z19PackedArrayViewImplZ16SliceOverIndexed4backMxFNaNbNdNfZS3std3uni20__T9BitPackedTkVm13Z9BitPacked 0000000140044770 f i phobos64:uni_ae8_16e3.obj
 0001:00043790       _D3std3uni126__T16SliceOverIndexedTS3std3uni71__T19PackedArrayViewImplTS3std3uni20__T9BitPackedTkVm13Z9BitPackedVm16Z19PackedArrayViewImplZ16SliceOverIndexed4backMFNaNbNdNfS3std3uni20__T9BitPackedTkVm13Z9BitPackedZv 0000000140044790 f i phobos64:uni_ae8_16e3.obj
 0001:000437c0       _D3std3uni126__T16SliceOverIndexedTS3std3uni71__T19PackedArrayViewImplTS3std3uni20__T9BitPackedTkVm13Z9BitPackedVm16Z19PackedArrayViewImplZ16SliceOverIndexed4saveMNgFNaNbNdNfZNgS3std3uni126__T16SliceOverIndexedTS3std3uni71__T19PackedArrayViewImplTS3std3uni20__T9BitPackedTkVm13Z9BitPackedVm16Z19PackedArrayViewImplZ16SliceOverIndexed 00000001400447c0 f i phobos64:uni_ae8_16e3.obj
 0001:000437e0       _D3std3uni126__T16SliceOverIndexedTS3std3uni71__T19PackedArrayViewImplTS3std3uni20__T9BitPackedTkVm13Z9BitPackedVm16Z19PackedArrayViewImplZ16SliceOverIndexed8popFrontMFNaNbNfZv 00000001400447e0 f i phobos64:uni_ae8_16e3.obj
 0001:000437f0       _D3std3uni126__T16SliceOverIndexedTS3std3uni71__T19PackedArrayViewImplTS3std3uni20__T9BitPackedTkVm13Z9BitPackedVm16Z19PackedArrayViewImplZ16SliceOverIndexed7popBackMFNaNbNfZv 00000001400447f0 f i phobos64:uni_ae8_16e3.obj
 0001:00043800       _D3std3uni126__T16SliceOverIndexedTS3std3uni71__T19PackedArrayViewImplTS3std3uni20__T9BitPackedTkVm13Z9BitPackedVm16Z19PackedArrayViewImplZ16SliceOverIndexed11__xopEqualsFKxS3std3uni126__T16SliceOverIndexedTS3std3uni71__T19PackedArrayViewImplTS3std3uni20__T9BitPackedTkVm13Z9BitPackedVm16Z19PackedArrayViewImplZ16SliceOverIndexedKxS3std3uni126__T16SliceOverIndexedTS3std3uni71__T19PackedArrayViewImplTS3std3uni20__T9BitPackedTkVm13Z9BitPackedVm16Z19PackedArrayViewImplZ16SliceOverIndexedZb 0000000140044800 f i phobos64:uni_ae8_16e3.obj
 0001:00043820       _D3std3uni126__T16sliceOverIndexedTS3std3uni71__T19PackedArrayViewImplTS3std3uni20__T9BitPackedTkVm13Z9BitPackedVm16Z19PackedArrayViewImplZ16sliceOverIndexedFNaNbNfmmPS3std3uni71__T19PackedArrayViewImplTS3std3uni20__T9BitPackedTkVm13Z9BitPackedVm16Z19PackedArrayViewImplZS3std3uni126__T16SliceOverIndexedTS3std3uni71__T19PackedArrayViewImplTS3std3uni20__T9BitPackedTkVm13Z9BitPackedVm16Z19PackedArrayViewImplZ16SliceOverIndexed 0000000140044820 f i phobos64:uni_ae7_1703.obj
 0001:00043840       _D3std3uni26__T13replicateBitsVm4Vm16Z13replicateBitsFNaNbNfmZm 0000000140044840 f i phobos64:uni_9be_7e6.obj
 0001:00043860       _D3std3uni140__T10MultiArrayTS3std3uni19__T9BitPackedTkVm8Z9BitPackedTS3std3uni20__T9BitPackedTkVm13Z9BitPackedTS3std3uni19__T9BitPackedTbVi1Z9BitPackedZ10MultiArray15__T7raw_ptrVm1Z7raw_ptrMNgFNaNbNdZPNgm 0000000140044860 f i phobos64:uni_ad0_3f2.obj
 0001:00043880       _D3std3uni69__T19PackedArrayViewImplTS3std3uni19__T9BitPackedTbVi1Z9BitPackedVm1Z19PackedArrayViewImpl116__T8opEqualsTxS3std3uni69__T19PackedArrayViewImplTS3std3uni19__T9BitPackedTbVi1Z9BitPackedVm1Z19PackedArrayViewImplZ8opEqualsMxFNaNbNeKxS3std3uni69__T19PackedArrayViewImplTS3std3uni19__T9BitPackedTbVi1Z9BitPackedVm1Z19PackedArrayViewImplZb 0000000140044880 f i phobos64:uni_bf5_153a.obj
 0001:00043940       _D3std3uni124__T16SliceOverIndexedTS3std3uni69__T19PackedArrayViewImplTS3std3uni19__T9BitPackedTbVi1Z9BitPackedVm1Z19PackedArrayViewImplZ16SliceOverIndexed7opIndexMxFNaNbNfmZS3std3uni19__T9BitPackedTbVi1Z9BitPacked 0000000140044940 f i phobos64:uni_a73_15c5.obj
 0001:00043970       _D3std3uni124__T16SliceOverIndexedTS3std3uni69__T19PackedArrayViewImplTS3std3uni19__T9BitPackedTbVi1Z9BitPackedVm1Z19PackedArrayViewImplZ16SliceOverIndexed13opIndexAssignMFNaNbNfS3std3uni19__T9BitPackedTbVi1Z9BitPackedmZv 0000000140044970 f i phobos64:uni_a73_15c5.obj
 0001:000439a0       _D3std3uni124__T16SliceOverIndexedTS3std3uni69__T19PackedArrayViewImplTS3std3uni19__T9BitPackedTbVi1Z9BitPackedVm1Z19PackedArrayViewImplZ16SliceOverIndexed7opSliceMFNaNbNfmmZS3std3uni124__T16SliceOverIndexedTS3std3uni69__T19PackedArrayViewImplTS3std3uni19__T9BitPackedTbVi1Z9BitPackedVm1Z19PackedArrayViewImplZ16SliceOverIndexed 00000001400449a0 f i phobos64:uni_a73_15c5.obj
 0001:000439e0       _D3std3uni124__T16SliceOverIndexedTS3std3uni69__T19PackedArrayViewImplTS3std3uni19__T9BitPackedTbVi1Z9BitPackedVm1Z19PackedArrayViewImplZ16SliceOverIndexed7opSliceMFNaNbNfZS3std3uni124__T16SliceOverIndexedTS3std3uni69__T19PackedArrayViewImplTS3std3uni19__T9BitPackedTbVi1Z9BitPackedVm1Z19PackedArrayViewImplZ16SliceOverIndexed 00000001400449e0 f i phobos64:uni_a73_15c5.obj
 0001:00043a10       _D3std3uni124__T16SliceOverIndexedTS3std3uni69__T19PackedArrayViewImplTS3std3uni19__T9BitPackedTbVi1Z9BitPackedVm1Z19PackedArrayViewImplZ16SliceOverIndexed6lengthMxFNaNbNdNfZm 0000000140044a10 f i phobos64:uni_a73_15c5.obj
 0001:00043a20       _D3std3uni124__T16SliceOverIndexedTS3std3uni69__T19PackedArrayViewImplTS3std3uni19__T9BitPackedTbVi1Z9BitPackedVm1Z19PackedArrayViewImplZ16SliceOverIndexed8opDollarMxFNaNbNfZm 0000000140044a20 f i phobos64:uni_a73_15c5.obj
 0001:00043a40       _D3std3uni124__T16SliceOverIndexedTS3std3uni69__T19PackedArrayViewImplTS3std3uni19__T9BitPackedTbVi1Z9BitPackedVm1Z19PackedArrayViewImplZ16SliceOverIndexed5emptyMxFNaNbNdNfZb 0000000140044a40 f i phobos64:uni_a73_15c5.obj
 0001:00043a60       _D3std3uni124__T16SliceOverIndexedTS3std3uni69__T19PackedArrayViewImplTS3std3uni19__T9BitPackedTbVi1Z9BitPackedVm1Z19PackedArrayViewImplZ16SliceOverIndexed5frontMxFNaNbNdNfZS3std3uni19__T9BitPackedTbVi1Z9BitPacked 0000000140044a60 f i phobos64:uni_a73_15c5.obj
 0001:00043a80       _D3std3uni124__T16SliceOverIndexedTS3std3uni69__T19PackedArrayViewImplTS3std3uni19__T9BitPackedTbVi1Z9BitPackedVm1Z19PackedArrayViewImplZ16SliceOverIndexed5frontMFNaNbNdNfS3std3uni19__T9BitPackedTbVi1Z9BitPackedZv 0000000140044a80 f i phobos64:uni_a73_15c5.obj
 0001:00043aa0       _D3std3uni124__T16SliceOverIndexedTS3std3uni69__T19PackedArrayViewImplTS3std3uni19__T9BitPackedTbVi1Z9BitPackedVm1Z19PackedArrayViewImplZ16SliceOverIndexed4backMxFNaNbNdNfZS3std3uni19__T9BitPackedTbVi1Z9BitPacked 0000000140044aa0 f i phobos64:uni_a73_15c5.obj
 0001:00043ac0       _D3std3uni124__T16SliceOverIndexedTS3std3uni69__T19PackedArrayViewImplTS3std3uni19__T9BitPackedTbVi1Z9BitPackedVm1Z19PackedArrayViewImplZ16SliceOverIndexed4backMFNaNbNdNfS3std3uni19__T9BitPackedTbVi1Z9BitPackedZv 0000000140044ac0 f i phobos64:uni_a73_15c5.obj
 0001:00043af0       _D3std3uni124__T16SliceOverIndexedTS3std3uni69__T19PackedArrayViewImplTS3std3uni19__T9BitPackedTbVi1Z9BitPackedVm1Z19PackedArrayViewImplZ16SliceOverIndexed4saveMNgFNaNbNdNfZNgS3std3uni124__T16SliceOverIndexedTS3std3uni69__T19PackedArrayViewImplTS3std3uni19__T9BitPackedTbVi1Z9BitPackedVm1Z19PackedArrayViewImplZ16SliceOverIndexed 0000000140044af0 f i phobos64:uni_a73_15c5.obj
 0001:00043b10       _D3std3uni124__T16SliceOverIndexedTS3std3uni69__T19PackedArrayViewImplTS3std3uni19__T9BitPackedTbVi1Z9BitPackedVm1Z19PackedArrayViewImplZ16SliceOverIndexed8popFrontMFNaNbNfZv 0000000140044b10 f i phobos64:uni_a73_15c5.obj
 0001:00043b20       _D3std3uni124__T16SliceOverIndexedTS3std3uni69__T19PackedArrayViewImplTS3std3uni19__T9BitPackedTbVi1Z9BitPackedVm1Z19PackedArrayViewImplZ16SliceOverIndexed7popBackMFNaNbNfZv 0000000140044b20 f i phobos64:uni_a73_15c5.obj
 0001:00043b30       _D3std3uni124__T16SliceOverIndexedTS3std3uni69__T19PackedArrayViewImplTS3std3uni19__T9BitPackedTbVi1Z9BitPackedVm1Z19PackedArrayViewImplZ16SliceOverIndexed11__xopEqualsFKxS3std3uni124__T16SliceOverIndexedTS3std3uni69__T19PackedArrayViewImplTS3std3uni19__T9BitPackedTbVi1Z9BitPackedVm1Z19PackedArrayViewImplZ16SliceOverIndexedKxS3std3uni124__T16SliceOverIndexedTS3std3uni69__T19PackedArrayViewImplTS3std3uni19__T9BitPackedTbVi1Z9BitPackedVm1Z19PackedArrayViewImplZ16SliceOverIndexedZb 0000000140044b30 f i phobos64:uni_a73_15c5.obj
 0001:00043b50       _D3std3uni26__T13replicateBitsVm64Vm1Z13replicateBitsFNaNbNfmZm 0000000140044b50 f i phobos64:uni_a74_7e6.obj
 0001:00043b60       _D3std3uni124__T16sliceOverIndexedTS3std3uni69__T19PackedArrayViewImplTS3std3uni19__T9BitPackedTbVi1Z9BitPackedVm1Z19PackedArrayViewImplZ16sliceOverIndexedFNaNbNfmmPS3std3uni69__T19PackedArrayViewImplTS3std3uni19__T9BitPackedTbVi1Z9BitPackedVm1Z19PackedArrayViewImplZS3std3uni124__T16SliceOverIndexedTS3std3uni69__T19PackedArrayViewImplTS3std3uni19__T9BitPackedTbVi1Z9BitPackedVm1Z19PackedArrayViewImplZ16SliceOverIndexed 0000000140044b60 f i phobos64:uni_a72_15e5.obj
 0001:00043b80       _D3std3uni140__T10MultiArrayTS3std3uni19__T9BitPackedTkVm8Z9BitPackedTS3std3uni20__T9BitPackedTkVm13Z9BitPackedTS3std3uni19__T9BitPackedTbVi1Z9BitPackedZ10MultiArray15__T7raw_ptrVm2Z7raw_ptrMNgFNaNbNdZPNgm 0000000140044b80 f i phobos64:uni_ad2_3f3.obj
 0001:00043ba0       _D3std4conv9__T2toTiZ9__T2toTmZ2toFNaNfmZi 0000000140044ba0 f i phobos64:conv_29e8_37a.obj
 0001:00043bc0       _D3std6format61__T11formatValueTS3std5array17__T8AppenderTAyaZ8AppenderTmTaZ11formatValueFNaNfS3std5array17__T8AppenderTAyaZ8AppendermKS3std6format18__T10FormatSpecTaZ10FormatSpecZv 0000000140044bc0 f i phobos64:format_12f_f3a.obj
 0001:00043d90       _D3std6format61__T11formatValueTS3std5array17__T8AppenderTAyaZ8AppenderTmTaZ11formatValueFNaNfS3std5array17__T8AppenderTAyaZ8AppendermKS3std6format18__T10FormatSpecTaZ10FormatSpecZv16__T9__lambda4TmZ9__lambda4FNaNbNeKmZAxa 0000000140044d90 f i phobos64:format_12f_f3a.obj
 0001:00043db0       _D3std6format61__T11formatValueTS3std5array17__T8AppenderTAyaZ8AppenderTmTaZ11formatValueFNaNfS3std5array17__T8AppenderTAyaZ8AppendermKS3std6format18__T10FormatSpecTaZ10FormatSpecZv12__dgliteral5MFNaNbNfZAya 0000000140044db0 f i phobos64:format_12f_f3a.obj
 0001:00043dd0       _D3std5range127__T9moveFrontTS3std3uni83__T16SliceOverIndexedTS3std3uni36__T11Uint24ArrayTS3std3uni8GcPolicyZ11Uint24ArrayZ16SliceOverIndexedZ9moveFrontFNaNbNfS3std3uni83__T16SliceOverIndexedTS3std3uni36__T11Uint24ArrayTS3std3uni8GcPolicyZ11Uint24ArrayZ16SliceOverIndexedZk 0000000140044dd0 f i phobos64:range_462_1282.obj
 0001:00043df0       _D3std5range126__T8moveBackTS3std3uni83__T16SliceOverIndexedTS3std3uni36__T11Uint24ArrayTS3std3uni8GcPolicyZ11Uint24ArrayZ16SliceOverIndexedZ8moveBackFNaNbNfS3std3uni83__T16SliceOverIndexedTS3std3uni36__T11Uint24ArrayTS3std3uni8GcPolicyZ11Uint24ArrayZ16SliceOverIndexedZk 0000000140044df0 f i phobos64:range_461_11ea.obj
 0001:00043e10       _D3std5range126__T6moveAtTS3std3uni83__T16SliceOverIndexedTS3std3uni36__T11Uint24ArrayTS3std3uni8GcPolicyZ11Uint24ArrayZ16SliceOverIndexedTmZ6moveAtFNaNbNfS3std3uni83__T16SliceOverIndexedTS3std3uni36__T11Uint24ArrayTS3std3uni8GcPolicyZ11Uint24ArrayZ16SliceOverIndexedmZk 0000000140044e10 f i phobos64:range_465_139f.obj
 0001:00043e30       _D3std6format20__T9getNthIntTAyaTkZ9getNthIntFNaNfkAyakZi 0000000140044e30 f i phobos64:format_17a_8aa.obj
 0001:00043ee0       _D3std6format24__T9getNthIntTAyaTkTAyaZ9getNthIntFNaNfkAyakAyaZi 0000000140044ee0 f i phobos64:format_18e_b8d.obj
 0001:00043fb0       _D3std6format70__T14formattedWriteTS3std5array17__T8AppenderTAyaZ8AppenderTaTAyaTkTkZ14formattedWriteFNaNfS3std5array17__T8AppenderTAyaZ8AppenderxAaAyakkZk 0000000140044fb0 f i phobos64:format_17d_150f.obj
 0001:00044460       _D3std6format70__T14formattedWriteTS3std5array17__T8AppenderTAyaZ8AppenderTaTAyaTkTkZ14formattedWriteFNaNfS3std5array17__T8AppenderTAyaZ8AppenderxAaAyakkZk9__lambda7FNaNbNeZPFNaNbNfS3std5array17__T8AppenderTAyaZ8AppenderPxvKS3std6format18__T10FormatSpecTaZ10FormatSpecZv 0000000140045460 f i phobos64:format_17d_150f.obj
 0001:00044470       _D3std6format70__T14formattedWriteTS3std5array17__T8AppenderTAyaZ8AppenderTaTAyaTkTkZ14formattedWriteFNaNfS3std5array17__T8AppenderTAyaZ8AppenderxAaAyakkZk18__T9__lambda8TAyaZ9__lambda8FNaNbNeKAyaZxPv 0000000140045470 f i phobos64:format_17d_150f.obj
 0001:00044480       _D3std6format70__T14formattedWriteTS3std5array17__T8AppenderTAyaZ8AppenderTaTAyaTkTkZ14formattedWriteFNaNfS3std5array17__T8AppenderTAyaZ8AppenderxAaAyakkZk9__lambda9FNaNbNeZPFNaNbNfS3std5array17__T8AppenderTAyaZ8AppenderPxvKS3std6format18__T10FormatSpecTaZ10FormatSpecZv 0000000140045480 f i phobos64:format_17d_150f.obj
 0001:00044490       _D3std6format70__T14formattedWriteTS3std5array17__T8AppenderTAyaZ8AppenderTaTAyaTkTkZ14formattedWriteFNaNfS3std5array17__T8AppenderTAyaZ8AppenderxAaAyakkZk18__T10__lambda10TkZ10__lambda10FNaNbNeKkZxPv 0000000140045490 f i phobos64:format_17d_150f.obj
 0001:000444a0       _D3std6format70__T14formattedWriteTS3std5array17__T8AppenderTAyaZ8AppenderTaTAyaTkTkZ14formattedWriteFNaNfS3std5array17__T8AppenderTAyaZ8AppenderxAaAyakkZk10__lambda11FNaNbNeZPFNaNbNfS3std5array17__T8AppenderTAyaZ8AppenderPxvKS3std6format18__T10FormatSpecTaZ10FormatSpecZv 00000001400454a0 f i phobos64:format_17d_150f.obj
 0001:000444b0       _D3std6format70__T14formattedWriteTS3std5array17__T8AppenderTAyaZ8AppenderTaTAyaTkTkZ14formattedWriteFNaNfS3std5array17__T8AppenderTAyaZ8AppenderxAaAyakkZk18__T10__lambda12TkZ10__lambda12FNaNbNeKkZxPv 00000001400454b0 f i phobos64:format_17d_150f.obj
 0001:000444c0       _D3std6format70__T14formattedWriteTS3std5array17__T8AppenderTAyaZ8AppenderTaTAyaTkTkZ14formattedWriteFNaNfS3std5array17__T8AppenderTAyaZ8AppenderxAaAyakkZk13__dgliteral13MFNaNfZAya 00000001400454c0 f i phobos64:format_17d_150f.obj
 0001:00044510       _D3std5range22__T5doPutTDFAxaZvTAxaZ5doPutFKDFAxaZvKAxaZv 0000000140045510 f i phobos64:range_3d0_11c4.obj
 0001:00044550       _D3std6format32__T14formatIntegralTDFAxaZvTmTaZ14formatIntegralFDFAxaZvxmKS3std6format18__T10FormatSpecTaZ10FormatSpeckmZv 0000000140045550 f i phobos64:format_163_14b8.obj
 0001:000445b0       _D3std5range19__T3putTDFAxaZvTxaZ3putFKDFAxaZvxaZv 00000001400455b0 f i phobos64:range_3b8_1059.obj
 0001:000445f0       _D3std9algorithm216__T6swapAtTS3std3uni38__T13InversionListTS3std3uni8GcPolicyZ13InversionList127__T9IntervalsTS3std3uni83__T16SliceOverIndexedTS3std3uni36__T11Uint24ArrayTS3std3uni8GcPolicyZ11Uint24ArrayZ16SliceOverIndexedZ9IntervalsZ6swapAtFNfS3std3uni38__T13InversionListTS3std3uni8GcPolicyZ13InversionList127__T9IntervalsTS3std3uni83__T16SliceOverIndexedTS3std3uni36__T11Uint24ArrayTS3std3uni8GcPolicyZ11Uint24ArrayZ16SliceOverIndexedZ9IntervalsmmZv 00000001400455f0 f i phobos64:algorithm_27ea_155c.obj
 0001:000446a0       _D3std5array56__T14arrayAllocImplVb0TAS3std3uni17CodepointIntervalTyiZ14arrayAllocImplFNaNbyiZAS3std3uni17CodepointInterval 00000001400456a0 f i phobos64:array_666_15af.obj
 0001:000446f0       _D3std5array56__T14arrayAllocImplVb0TAS3std3uni17CodepointIntervalTyiZ14arrayAllocImplFNaNbyiZAS3std3uni17CodepointInterval9__lambda3MFNaNbNfZPS3std3uni17CodepointInterval 00000001400456f0 f i phobos64:array_666_15af.obj
 0001:00044720       _D3std9algorithm214__T4moveTS3std3uni38__T13InversionListTS3std3uni8GcPolicyZ13InversionList127__T9IntervalsTS3std3uni83__T16SliceOverIndexedTS3std3uni36__T11Uint24ArrayTS3std3uni8GcPolicyZ11Uint24ArrayZ16SliceOverIndexedZ9IntervalsZ4moveFNaNbKS3std3uni38__T13InversionListTS3std3uni8GcPolicyZ13InversionList127__T9IntervalsTS3std3uni83__T16SliceOverIndexedTS3std3uni36__T11Uint24ArrayTS3std3uni8GcPolicyZ11Uint24ArrayZ16SliceOverIndexedZ9IntervalsZS3std3uni38__T13InversionListTS3std3uni8GcPolicyZ13InversionList127__T9IntervalsTS3std3uni83__T16SliceOverIndexedTS3std3uni36__T11Uint24ArrayTS3std3uni8GcPolicyZ11Uint24ArrayZ16SliceOverIndexedZ9Intervals 0000000140045720 f i phobos64:algorithm_2862_14a3.obj
 0001:00044750       _D3std10functional31__T9binaryFunVAyaa5_61203c2062Z18__T9binaryFunTkTiZ9binaryFunFNaNbNfkiZb 0000000140045750 f i phobos64:functional_797_777.obj
 0001:00044770       _D3std3uni124__T16SliceOverIndexedTS3std3uni69__T19PackedArrayViewImplTS3std3uni19__T9BitPackedTkVm8Z9BitPackedVm8Z19PackedArrayViewImplZ16SliceOverIndexed169__T8opEqualsTxS3std3uni124__T16SliceOverIndexedTS3std3uni69__T19PackedArrayViewImplTS3std3uni19__T9BitPackedTkVm8Z9BitPackedVm8Z19PackedArrayViewImplZ16SliceOverIndexedZ8opEqualsMxFNaNbNfKxS3std3uni124__T16SliceOverIndexedTS3std3uni69__T19PackedArrayViewImplTS3std3uni19__T9BitPackedTkVm8Z9BitPackedVm8Z19PackedArrayViewImplZ16SliceOverIndexedZb 0000000140045770 f i phobos64:uni_c08_1cbc.obj
 0001:00044830       _D3std3uni126__T16SliceOverIndexedTS3std3uni71__T19PackedArrayViewImplTS3std3uni20__T9BitPackedTkVm13Z9BitPackedVm16Z19PackedArrayViewImplZ16SliceOverIndexed171__T8opEqualsTxS3std3uni126__T16SliceOverIndexedTS3std3uni71__T19PackedArrayViewImplTS3std3uni20__T9BitPackedTkVm13Z9BitPackedVm16Z19PackedArrayViewImplZ16SliceOverIndexedZ8opEqualsMxFNaNbNfKxS3std3uni126__T16SliceOverIndexedTS3std3uni71__T19PackedArrayViewImplTS3std3uni20__T9BitPackedTkVm13Z9BitPackedVm16Z19PackedArrayViewImplZ16SliceOverIndexedZb 0000000140045830 f i phobos64:uni_bf9_1d17.obj
 0001:000448f0       _D3std3uni26__T13replicateBitsVm2Vm32Z13replicateBitsFNaNbNfmZm 00000001400458f0 f i phobos64:uni_9bf_7e2.obj
 0001:00044920       _D3std3uni124__T16SliceOverIndexedTS3std3uni69__T19PackedArrayViewImplTS3std3uni19__T9BitPackedTbVi1Z9BitPackedVm1Z19PackedArrayViewImplZ16SliceOverIndexed169__T8opEqualsTxS3std3uni124__T16SliceOverIndexedTS3std3uni69__T19PackedArrayViewImplTS3std3uni19__T9BitPackedTbVi1Z9BitPackedVm1Z19PackedArrayViewImplZ16SliceOverIndexedZ8opEqualsMxFNaNbNfKxS3std3uni124__T16SliceOverIndexedTS3std3uni69__T19PackedArrayViewImplTS3std3uni19__T9BitPackedTbVi1Z9BitPackedVm1Z19PackedArrayViewImplZ16SliceOverIndexedZb 0000000140045920 f i phobos64:uni_bf6_1bf9.obj
 0001:000449e0       _D3std4conv15__T6toImplTiTmZ6toImplFNaNfmZi 00000001400459e0 f i phobos64:conv_29e9_6a3.obj
 0001:00044a80       _D3std4conv15__T6toImplTiTmZ6toImplFNaNfmZi16__T9__lambda2TmZ9__lambda2FNaNbNeKmZi 0000000140045a80 f i phobos64:conv_29e9_6a3.obj
 0001:00044a90       _D3std6format20__T9getNthIntTkTAyaZ9getNthIntFNaNfkkAyaZi 0000000140045a90 f i phobos64:format_18f_8aa.obj
 0001:00044af0       _D3std6format22__T9getNthIntTAyaTkTkZ9getNthIntFNaNfkAyakkZi 0000000140045af0 f i phobos64:format_181_ab6.obj
 0001:00044ba0       _D3std6format30__T14formatUnsignedTDFAxaZvTaZ14formatUnsignedFDFAxaZvmKS3std6format18__T10FormatSpecTaZ10FormatSpeckbZv 0000000140045ba0 f i phobos64:format_164_124e.obj
 0001:00044f20       _D3std5range22__T5doPutTDFAxaZvTAxaZ5doPutFKDFAxaZvAxaZv 0000000140045f20 f i phobos64:range_3ba_11c4.obj
 0001:00044f60       _D3std3uni26__T13replicateBitsVm1Vm64Z13replicateBitsFNaNbNfmZm 0000000140045f60 f i phobos64:uni_9c0_7e6.obj
 0001:00044f70       _D3std5range19__T3putTDFAxaZvTAaZ3putFKDFAxaZvAaZv 0000000140045f70 f i phobos64:range_3c9_e99.obj
 0001:00044f90       _D3std5range18__T3putTDFAxaZvTaZ3putFKDFAxaZvaZv 0000000140045f90 f i phobos64:range_3c5_de1.obj
 0001:00044fd0       _D3std5range21__T5doPutTDFAxaZvTAaZ5doPutFKDFAxaZvKAaZv 0000000140045fd0 f i phobos64:range_3ca_f4c.obj
 0001:00045010       _D3std5range21__T5doPutTDFAxaZvTAaZ5doPutFKDFAxaZvAaZv 0000000140046010 f i phobos64:range_3c6_f4c.obj
 0001:000519c0       getErrno                   00000001400529c0 f   druntime64:errno_c.obj
 0001:000519e0       setErrno                   00000001400529e0 f   druntime64:errno_c.obj
 0001:00051a10       memcpy                     0000000140052a10 f   LIBCMT:memcpy.obj
 0001:00051a10       memmove                    0000000140052a10 f   LIBCMT:memcpy.obj
 0001:00051f78       _fprintf_l                 0000000140052f78 f   LIBCMT:fprintf.obj
 0001:00051f98       _fprintf_p                 0000000140052f98 f   LIBCMT:fprintf.obj
 0001:00051fbc       _fprintf_p_l               0000000140052fbc f   LIBCMT:fprintf.obj
 0001:00051fdc       _fprintf_s_l               0000000140052fdc f   LIBCMT:fprintf.obj
 0001:00051ffc       fprintf                    0000000140052ffc f   LIBCMT:fprintf.obj
 0001:00052124       fprintf_s                  0000000140053124 f   LIBCMT:fprintf.obj
 0001:00052148       free                       0000000140053148 f   LIBCMT:free.obj
 0001:00052380       mainCRTStartup             0000000140053380 f   LIBCMT:crt0.obj
 0001:00052394       _heap_alloc                0000000140053394 f i LIBCMT:malloc.obj
 0001:000523e4       malloc                     00000001400533e4 f   LIBCMT:malloc.obj
 0001:000524b0       memset                     00000001400534b0 f   LIBCMT:memset.obj
 0001:000526f0       memcmp                     00000001400536f0 f   LIBCMT:memcmp.obj
 0001:000527b8       _get_output_format         00000001400537b8 f   LIBCMT:outputformat.obj
 0001:000527c0       _set_output_format         00000001400537c0 f   LIBCMT:outputformat.obj
 0001:000527f4       wcslen                     00000001400537f4 f   LIBCMT:wcslen.obj
 0001:00052810       __initstdio                0000000140053810 f   LIBCMT:_file.obj
 0001:000528a8       __endstdio                 00000001400538a8 f   LIBCMT:_file.obj
 0001:000528d8       __iob_func                 00000001400538d8 f   LIBCMT:_file.obj
 0001:000528e0       _lock_file                 00000001400538e0 f   LIBCMT:_file.obj
 0001:00052948       _lock_file2                0000000140053948 f   LIBCMT:_file.obj
 0001:0005297c       _unlock_file               000000014005397c f   LIBCMT:_file.obj
 0001:000529cc       _unlock_file2              00000001400539cc f   LIBCMT:_file.obj
 0001:000529ec       _fflush_nolock             00000001400539ec f   LIBCMT:fflush.obj
 0001:00052a38       _flush                     0000000140053a38 f   LIBCMT:fflush.obj
 0001:00052ab4       _flushall                  0000000140053ab4 f   LIBCMT:fflush.obj
 0001:00052ac0       fflush                     0000000140053ac0 f   LIBCMT:fflush.obj
 0001:00052bec       _get_sys_err_msg           0000000140053bec f i LIBCMT:strerror.obj
 0001:00052c20       _invoke_watson_if_error    0000000140053c20 f i LIBCMT:strerror.obj
 0001:00052c54       strerror                   0000000140053c54 f   LIBCMT:strerror.obj
 0001:00052cf0       strerror_s                 0000000140053cf0 f   LIBCMT:strerror.obj
 0001:00052d90       strlen                     0000000140053d90 f   LIBCMT:strlen.obj
 0001:00052e38       realloc                    0000000140053e38 f   LIBCMT:realloc.obj
 0001:00052f0c       __doserrno                 0000000140053f0c f   LIBCMT:dosmap.obj
 0001:00052f2c       _dosmaperr                 0000000140053f2c f   LIBCMT:dosmap.obj
 0001:00052f7c       _errno                     0000000140053f7c f   LIBCMT:dosmap.obj
 0001:00052f9c       _get_doserrno              0000000140053f9c f   LIBCMT:dosmap.obj
 0001:00052fd8       _get_errno                 0000000140053fd8 f   LIBCMT:dosmap.obj
 0001:00053014       _get_errno_from_oserr      0000000140054014 f   LIBCMT:dosmap.obj
 0001:00053064       _set_doserrno              0000000140054064 f   LIBCMT:dosmap.obj
 0001:000530a0       _set_errno                 00000001400540a0 f   LIBCMT:dosmap.obj
 0001:000530dc       calloc                     00000001400540dc f   LIBCMT:calloc.obj
 0001:00053120       _snprintf                  0000000140054120 f   LIBCMT:snprintf.obj
 0001:000531d4       _snprintf_l                00000001400541d4 f   LIBCMT:snprintf.obj
 0001:000531f4       _beginthreadex             00000001400541f4 f   LIBCMT:threadex.obj
 0001:0005333c       _endthreadex               000000014005433c f   LIBCMT:threadex.obj
 0001:000535b0       _fpmath                    00000001400545b0 f   LIBCMT:fpinit.obj
 0001:000535b8       __setfflag                 00000001400545b8 f   LIBCMT:fpinit.obj
 0001:000535c8       _cfltcvt_init              00000001400545c8 f   LIBCMT:fpinit.obj
 0001:00053650       ??0_LocaleUpdate@@QEAA@PEAUlocaleinfo_struct@@@Z 0000000140054650 f i LIBCMT:strtod.obj
 0001:000536f8       ??1_LocaleUpdate@@QEAA@XZ  00000001400546f8 f i LIBCMT:strtod.obj
 0001:0005370c       ?GetLocaleT@_LocaleUpdate@@QEAAPEAUlocaleinfo_struct@@XZ 000000014005470c f i LIBCMT:strtod.obj
 0001:00053710       _strtod_l                  0000000140054710 f   LIBCMT:strtod.obj
 0001:00053864       strtod                     0000000140054864 f   LIBCMT:strtod.obj
 0001:0005386c       __isa_available_init       000000014005486c f   LIBCMT:cpu_disp.obj
 0001:00053a10       ?_invalid_parameter@@YAXPEBG00I_K@Z 0000000140054a10 f   LIBCMT:invarg.obj
 0001:00053a18       ?_invoke_watson@@YAXPEBG00I_K@Z 0000000140054a18 f   LIBCMT:invarg.obj
 0001:00053a2c       _call_reportfault          0000000140054a2c f   LIBCMT:invarg.obj
 0001:00053b20       _get_invalid_parameter_handler 0000000140054b20 f   LIBCMT:invarg.obj
 0001:00053b30       _initp_misc_invarg         0000000140054b30 f   LIBCMT:invarg.obj
 0001:00053b38       _invalid_parameter         0000000140054b38 f   LIBCMT:invarg.obj
 0001:00053ba0       _invalid_parameter_noinfo  0000000140054ba0 f   LIBCMT:invarg.obj
 0001:00053bc0       _invalid_parameter_noinfo_noreturn 0000000140054bc0 f   LIBCMT:invarg.obj
 0001:00053bf0       _invoke_watson             0000000140054bf0 f   LIBCMT:invarg.obj
 0001:00053c2c       _set_invalid_parameter_handler 0000000140054c2c f   LIBCMT:invarg.obj
 0001:00053c68       _fileno                    0000000140054c68 f   LIBCMT:fileno.obj
 0001:00053c90       _vfprintf_l                0000000140054c90 f   LIBCMT:vfprintf.obj
 0001:00053cb4       _vfprintf_p                0000000140054cb4 f   LIBCMT:vfprintf.obj
 0001:00053cd8       _vfprintf_p_l              0000000140054cd8 f   LIBCMT:vfprintf.obj
 0001:00053cfc       _vfprintf_s_l              0000000140054cfc f   LIBCMT:vfprintf.obj
 0001:00053d20       vfprintf                   0000000140054d20 f   LIBCMT:vfprintf.obj
 0001:00053d44       vfprintf_helper            0000000140054d44 f   LIBCMT:vfprintf.obj
 0001:00053e84       vfprintf_s                 0000000140054e84 f   LIBCMT:vfprintf.obj
 0001:00053ea8       _ftbuf                     0000000140054ea8 f   LIBCMT:_sftbuf.obj
 0001:00053ee0       _stbuf                     0000000140054ee0 f   LIBCMT:_sftbuf.obj
 0001:00053fb0       _output_l                  0000000140054fb0 f   LIBCMT:output.obj
 0001:000549c0       get_int64_arg              00000001400559c0 f i LIBCMT:output.obj
 0001:000549cc       get_int_arg                00000001400559cc f i LIBCMT:output.obj
 0001:000549d8       get_short_arg              00000001400559d8 f i LIBCMT:output.obj
 0001:00054b14       __C_specific_handler       0000000140055b14 f   LIBCMT:chandler.obj
 0001:00054cf8       _ioinit                    0000000140055cf8 f   LIBCMT:ioinit.obj
 0001:00055028       _ioterm                    0000000140056028 f   LIBCMT:ioinit.obj
 0001:0005509c       _get_heap_handle           000000014005609c f   LIBCMT:heapinit.obj
 0001:000550a4       _heap_init                 00000001400560a4 f   LIBCMT:heapinit.obj
 0001:000550c4       _heap_term                 00000001400560c4 f   LIBCMT:heapinit.obj
 0001:000550d0       ?__CxxUnhandledExceptionFilter@@YAJPEAU_EXCEPTION_POINTERS@@@Z 00000001400560d0 f   LIBCMT:unhandld.obj
 0001:00055108       __CxxSetUnhandledExceptionFilter 0000000140056108 f   LIBCMT:unhandld.obj
 0001:00055120       _XcptFilter                0000000140056120 f   LIBCMT:winxfltr.obj
 0001:000552ec       __CppXcptFilter            00000001400562ec f   LIBCMT:winxfltr.obj
 0001:00055330       __get_flsindex             0000000140056330 f   LIBCMT:tidtable.obj
 0001:00055338       __threadhandle             0000000140056338 f   LIBCMT:tidtable.obj
 0001:00055340       __threadid                 0000000140056340 f   LIBCMT:tidtable.obj
 0001:00055348       _freefls                   0000000140056348 f   LIBCMT:tidtable.obj
 0001:0005547c       _freeptd                   000000014005647c f   LIBCMT:tidtable.obj
 0001:000554b8       _getptd                    00000001400564b8 f   LIBCMT:tidtable.obj
 0001:000554dc       _getptd_noexit             00000001400564dc f   LIBCMT:tidtable.obj
 0001:00055560       _initptd                   0000000140056560 f   LIBCMT:tidtable.obj
 0001:00055624       _mtinit                    0000000140056624 f   LIBCMT:tidtable.obj
 0001:000556a4       _mtterm                    00000001400566a4 f   LIBCMT:tidtable.obj
 0001:000556c8       __copy_path_to_wide_string 00000001400566c8 f   LIBCMT:crt0dat.obj
 0001:000557c8       __copy_to_char             00000001400567c8 f   LIBCMT:crt0dat.obj
 0001:000558e0       __crtCorExitProcess        00000001400568e0 f   LIBCMT:crt0dat.obj
 0001:00055924       __crtExitProcess           0000000140056924 f   LIBCMT:crt0dat.obj
 0001:0005593c       __freeCrtMemory            000000014005693c f   LIBCMT:crt0dat.obj
 0001:00055a84       _amsg_exit                 0000000140056a84 f   LIBCMT:crt0dat.obj
 0001:00055aac       _c_exit                    0000000140056aac f   LIBCMT:crt0dat.obj
 0001:00055abc       _cexit                     0000000140056abc f   LIBCMT:crt0dat.obj
 0001:00055acc       _cinit                     0000000140056acc f   LIBCMT:crt0dat.obj
 0001:00055b64       _exit                      0000000140056b64 f   LIBCMT:crt0dat.obj
 0001:00055b70       _exit_app                  0000000140056b70 f   LIBCMT:crt0dat.obj
 0001:00055b7c       _get_pgmptr                0000000140056b7c f   LIBCMT:crt0dat.obj
 0001:00055bb4       _get_wpgmptr               0000000140056bb4 f   LIBCMT:crt0dat.obj
 0001:00055bec       _init_pointers             0000000140056bec f   LIBCMT:crt0dat.obj
 0001:00055c98       _initterm_e                0000000140056c98 f   LIBCMT:crt0dat.obj
 0001:00055cd4       _lockexit                  0000000140056cd4 f   LIBCMT:crt0dat.obj
 0001:00055ce0       _unlockexit                0000000140056ce0 f   LIBCMT:crt0dat.obj
 0001:00055e84       exit                       0000000140056e84 f   LIBCMT:crt0dat.obj
 0001:00055e90       _set_pgmptr                0000000140056e90 f i LIBCMT:stdargv.obj
 0001:00055e98       _setargv                   0000000140056e98 f   LIBCMT:stdargv.obj
 0001:00056154       _setenvp                   0000000140057154 f   LIBCMT:stdenvp.obj
 0001:00056288       _FF_MSGBANNER              0000000140057288 f   LIBCMT:crt0msg.obj
 0001:000562cc       _GET_RTERRMSG              00000001400572cc f   LIBCMT:crt0msg.obj
 0001:000562fc       _NMSG_WRITE                00000001400572fc f   LIBCMT:crt0msg.obj
 0001:0005656c       __set_app_type             000000014005756c f   LIBCMT:errmode.obj
 0001:00056574       _set_error_mode            0000000140057574 f   LIBCMT:errmode.obj
 0001:000565b4       __security_init_cookie     00000001400575b4 f   LIBCMT:gs_support.obj
 0001:00056660       _RTC_Initialize            0000000140057660 f   LIBCMT:initsect.obj
 0001:00056698       _RTC_Terminate             0000000140057698 f   LIBCMT:initsect.obj
 0001:000566d0       __crtGetEnvironmentStringsA 00000001400576d0 f   LIBCMT:a_env.obj
 0001:000567c4       ?_query_new_handler@@YAP6AH_K@ZXZ 00000001400577c4 f   LIBCMT:handler.obj
 0001:000567d4       ?_set_new_handler@@YAP6AH_K@ZH@Z 00000001400577d4 f   LIBCMT:handler.obj
 0001:000567dc       ?_set_new_handler@@YAP6AH_K@ZP6AH0@Z@Z 00000001400577dc f   LIBCMT:handler.obj
 0001:0005682c       _callnewh                  000000014005782c f   LIBCMT:handler.obj
 0001:00056860       _initp_heap_handler        0000000140057860 f   LIBCMT:handler.obj
 0001:00056868       _fcloseall                 0000000140057868 f   LIBCMT:closeall.obj
 0001:00056910       _lock                      0000000140057910 f   LIBCMT:mlock.obj
 0001:00056954       _lockerr_exit              0000000140057954 f   LIBCMT:mlock.obj
 0001:00056980       _mtdeletelocks             0000000140057980 f   LIBCMT:mlock.obj
 0001:00056a08       _mtinitlocknum             0000000140057a08 f   LIBCMT:mlock.obj
 0001:00056ac8       _mtinitlocks               0000000140057ac8 f   LIBCMT:mlock.obj
 0001:00056b2c       _unlock                    0000000140057b2c f   LIBCMT:mlock.obj
 0001:00056b44       _calloc_crt                0000000140057b44 f   LIBCMT:crtheap.obj
 0001:00056bc4       _malloc_crt                0000000140057bc4 f   LIBCMT:crtheap.obj
 0001:00056c40       _realloc_crt               0000000140057c40 f   LIBCMT:crtheap.obj
 0001:00056cc4       _recalloc_crt              0000000140057cc4 f   LIBCMT:crtheap.obj
 0001:00056d48       _set_malloc_crt_max_wait   0000000140057d48 f   LIBCMT:crtheap.obj
 0001:00056d58       wait_a_bit                 0000000140057d58 f i LIBCMT:crtheap.obj
 0001:00056d80       _commit                    0000000140057d80 f   LIBCMT:commit.obj
 0001:00056e58       _write                     0000000140057e58 f   LIBCMT:write.obj
 0001:00056f3c       _write_nolock              0000000140057f3c f   LIBCMT:write.obj
 0001:00057730       __sys_errlist              0000000140058730 f   LIBCMT:syserr.obj
 0001:00057738       __sys_nerr                 0000000140058738 f   LIBCMT:syserr.obj
 0001:00057740       strcpy_s                   0000000140058740 f   LIBCMT:strcpy_s.obj
 0001:000577a4       strncpy_s                  00000001400587a4 f   LIBCMT:strncpy_s.obj
 0001:00057860       _calloc_impl               0000000140058860 f   LIBCMT:calloc_impl.obj
 0001:000578fc       _flsbuf                    00000001400588fc f   LIBCMT:_flsbuf.obj
 0001:00057a88       _vsnprintf                 0000000140058a88 f   LIBCMT:vsnprint.obj
 0001:00057aa0       _vsnprintf_l               0000000140058aa0 f   LIBCMT:vsnprint.obj
 0001:00057ba4       __crtCaptureCurrentContext 0000000140058ba4 f   LIBCMT:winapisupp.obj
 0001:00057c14       __crtCapturePreviousContext 0000000140058c14 f   LIBCMT:winapisupp.obj
 0001:00057c88       __crtCloseThreadpoolTimer  0000000140058c88 f   LIBCMT:winapisupp.obj
 0001:00057ca4       __crtCloseThreadpoolWait   0000000140058ca4 f   LIBCMT:winapisupp.obj
 0001:00057cc0       __crtCreateEventExW        0000000140058cc0 f   LIBCMT:winapisupp.obj
 0001:00057cec       __crtCreateSemaphoreExW    0000000140058cec f   LIBCMT:winapisupp.obj
 0001:00057d08       __crtCreateSymbolicLinkW   0000000140058d08 f   LIBCMT:winapisupp.obj
 0001:00057d38       __crtCreateThreadpoolTimer 0000000140058d38 f   LIBCMT:winapisupp.obj
 0001:00057d50       __crtCreateThreadpoolWait  0000000140058d50 f   LIBCMT:winapisupp.obj
 0001:00057d68       __crtFlsAlloc              0000000140058d68 f   LIBCMT:winapisupp.obj
 0001:00057d84       __crtFlsFree               0000000140058d84 f   LIBCMT:winapisupp.obj
 0001:00057da0       __crtFlsGetValue           0000000140058da0 f   LIBCMT:winapisupp.obj
 0001:00057dbc       __crtFlsSetValue           0000000140058dbc f   LIBCMT:winapisupp.obj
 0001:00057dd8       __crtFlushProcessWriteBuffers 0000000140058dd8 f   LIBCMT:winapisupp.obj
 0001:00057df4       __crtFreeLibraryWhenCallbackReturns 0000000140058df4 f   LIBCMT:winapisupp.obj
 0001:00057e10       __crtGetCurrentProcessorNumber 0000000140058e10 f   LIBCMT:winapisupp.obj
 0001:00057e28       __crtGetFileInformationByHandleEx 0000000140058e28 f   LIBCMT:winapisupp.obj
 0001:00057e58       __crtGetLogicalProcessorInformation 0000000140058e58 f   LIBCMT:winapisupp.obj
 0001:00057e88       __crtGetShowWindowMode     0000000140058e88 f   LIBCMT:winapisupp.obj
 0001:00057eb4       __crtGetTickCount64        0000000140058eb4 f   LIBCMT:winapisupp.obj
 0001:00057edc       __crtInitializeCriticalSectionEx 0000000140058edc f   LIBCMT:winapisupp.obj
 0001:00057f08       __crtIsPackagedApp         0000000140058f08 f   LIBCMT:winapisupp.obj
 0001:00057f54       __crtLoadWinApiPointers    0000000140058f54 f   LIBCMT:winapisupp.obj
 0001:00058350       __crtSetFileInformationByHandle 0000000140059350 f   LIBCMT:winapisupp.obj
 0001:00058380       __crtSetThreadStackGuarantee 0000000140059380 f   LIBCMT:winapisupp.obj
 0001:00058398       __crtSetThreadpoolTimer    0000000140059398 f   LIBCMT:winapisupp.obj
 0001:000583b4       __crtSetThreadpoolWait     00000001400593b4 f   LIBCMT:winapisupp.obj
 0001:000583d0       __crtSetUnhandledExceptionFilter 00000001400593d0 f   LIBCMT:winapisupp.obj
 0001:000583d8       __crtSleep                 00000001400593d8 f   LIBCMT:winapisupp.obj
 0001:000583e0       __crtTerminateProcess      00000001400593e0 f   LIBCMT:winapisupp.obj
 0001:00058400       __crtUnhandledException    0000000140059400 f   LIBCMT:winapisupp.obj
 0001:00058420       __crtWaitForThreadpoolTimerCallbacks 0000000140059420 f   LIBCMT:winapisupp.obj
 0001:0005843c       ?strrchr@@YAPEADPEADH@Z    000000014005943c f i LIBCMT:cvt.obj
 0001:00058444       _cfltcvt                   0000000140059444 f   LIBCMT:cvt.obj
 0001:00058468       _cfltcvt_l                 0000000140059468 f   LIBCMT:cvt.obj
 0001:000584e8       _cftoa                     00000001400594e8 f   LIBCMT:cvt.obj
 0001:00058504       _cftoa_l                   0000000140059504 f   LIBCMT:cvt.obj
 0001:000588b4       _cftoe                     00000001400598b4 f   LIBCMT:cvt.obj
 0001:00058acc       _cftoe_l                   0000000140059acc f   LIBCMT:cvt.obj
 0001:00058bc4       _cftof                     0000000140059bc4 f   LIBCMT:cvt.obj
 0001:00058d3c       _cftof_l                   0000000140059d3c f   LIBCMT:cvt.obj
 0001:00058e10       _cftog                     0000000140059e10 f   LIBCMT:cvt.obj
 0001:00058e2c       _cftog_l                   0000000140059e2c f   LIBCMT:cvt.obj
 0001:00058f60       _cropzeros                 0000000140059f60 f   LIBCMT:cvt.obj
 0001:00058f68       _cropzeros_l               0000000140059f68 f   LIBCMT:cvt.obj
 0001:00059000       _fassign                   000000014005a000 f   LIBCMT:cvt.obj
 0001:00059008       _fassign_l                 000000014005a008 f   LIBCMT:cvt.obj
 0001:00059048       _forcdecpt                 000000014005a048 f   LIBCMT:cvt.obj
 0001:00059050       _forcdecpt_l               000000014005a050 f   LIBCMT:cvt.obj
 0001:000590d0       _positive                  000000014005a0d0 f   LIBCMT:cvt.obj
 0001:00059118       _initp_misc_cfltcvt_tab    000000014005a118 f   LIBCMT:cmiscdat.obj
 0001:00059154       _fltin2                    000000014005a154 f   LIBCMT:cfin.obj
 0001:00059218       __addlocaleref             000000014005a218 f   LIBCMT:localref.obj
 0001:000592a4       __freetlocinfo             000000014005a2a4 f   LIBCMT:localref.obj
 0001:0005943c       __removelocaleref          000000014005a43c f   LIBCMT:localref.obj
 0001:000594e0       __updatetlocinfo           000000014005a4e0 f   LIBCMT:localref.obj
 0001:00059558       _updatetlocinfoEx_nolock   000000014005a558 f   LIBCMT:localref.obj
 0001:000595bc       __initmbctable             000000014005a5bc f   LIBCMT:mbctype.obj
 0001:00059914       __updatetmbcinfo           000000014005a914 f   LIBCMT:mbctype.obj
 0001:000599d0       _getmbcp                   000000014005a9d0 f   LIBCMT:mbctype.obj
 0001:00059a0c       _setmbcp                   000000014005aa0c f   LIBCMT:mbctype.obj
 0001:00059c50       _setmbcp_nolock            000000014005ac50 f   LIBCMT:mbctype.obj
 0001:00059f00       _isctype                   000000014005af00 f   LIBCMT:isctype.obj
 0001:00059f24       _isctype_l                 000000014005af24 f   LIBCMT:isctype.obj
 0001:0005a000       __GSHandlerCheck           000000014005b000 f   LIBCMT:gshandler.obj
 0001:0005a020       __GSHandlerCheckCommon     000000014005b020 f   LIBCMT:gshandler.obj
 0001:0005a0a0       __security_check_cookie    000000014005b0a0 f   LIBCMT:amdsecgs.obj
 0001:0005a0c0       __crt_debugger_hook        000000014005b0c0 f   LIBCMT:dbghook.obj
 0001:0005a0c8       _output_s_l                000000014005b0c8 f   LIBCMT:outputs.obj
 0001:0005ac20       _output_p_l                000000014005bc20 f   LIBCMT:outputp.obj
 0001:0005bcf4       _validate_param_reuseA     000000014005ccf4 f   LIBCMT:outputp.obj
 0001:0005be18       get_crtdouble_arg          000000014005ce18 f i LIBCMT:outputp.obj
 0001:0005bf54       _isatty                    000000014005cf54 f   LIBCMT:isatty.obj
 0001:0005bfb4       __iswcsym                  000000014005cfb4 f i LIBCMT:_wctype.obj
 0001:0005bfe0       __iswcsymf                 000000014005cfe0 f i LIBCMT:_wctype.obj
 0001:0005c00c       _isleadbyte_l              000000014005d00c f i LIBCMT:_wctype.obj
 0001:0005c050       _iswalnum_l                000000014005d050 f i LIBCMT:_wctype.obj
 0001:0005c05c       _iswalpha_l                000000014005d05c f i LIBCMT:_wctype.obj
 0001:0005c068       _iswblank_l                000000014005d068 f i LIBCMT:_wctype.obj
 0001:0005c080       _iswcntrl_l                000000014005d080 f i LIBCMT:_wctype.obj
 0001:0005c08c       _iswcsym_l                 000000014005d08c f i LIBCMT:_wctype.obj
 0001:0005c0b8       _iswcsymf_l                000000014005d0b8 f i LIBCMT:_wctype.obj
 0001:0005c0e4       _iswdigit_l                000000014005d0e4 f i LIBCMT:_wctype.obj
 0001:0005c0f0       _iswgraph_l                000000014005d0f0 f i LIBCMT:_wctype.obj
 0001:0005c0fc       _iswlower_l                000000014005d0fc f i LIBCMT:_wctype.obj
 0001:0005c108       _iswprint_l                000000014005d108 f i LIBCMT:_wctype.obj
 0001:0005c114       _iswpunct_l                000000014005d114 f i LIBCMT:_wctype.obj
 0001:0005c120       _iswspace_l                000000014005d120 f i LIBCMT:_wctype.obj
 0001:0005c12c       _iswupper_l                000000014005d12c f i LIBCMT:_wctype.obj
 0001:0005c138       _iswxdigit_l               000000014005d138 f i LIBCMT:_wctype.obj
 0001:0005c144       isleadbyte                 000000014005d144 f i LIBCMT:_wctype.obj
 0001:0005c18c       iswalnum                   000000014005d18c f i LIBCMT:_wctype.obj
 0001:0005c198       iswalpha                   000000014005d198 f i LIBCMT:_wctype.obj
 0001:0005c1a4       iswascii                   000000014005d1a4 f i LIBCMT:_wctype.obj
 0001:0005c1b4       iswblank                   000000014005d1b4 f i LIBCMT:_wctype.obj
 0001:0005c1cc       iswcntrl                   000000014005d1cc f i LIBCMT:_wctype.obj
 0001:0005c1d8       iswdigit                   000000014005d1d8 f i LIBCMT:_wctype.obj
 0001:0005c1e4       iswgraph                   000000014005d1e4 f i LIBCMT:_wctype.obj
 0001:0005c1f0       iswlower                   000000014005d1f0 f i LIBCMT:_wctype.obj
 0001:0005c1fc       iswprint                   000000014005d1fc f i LIBCMT:_wctype.obj
 0001:0005c208       iswpunct                   000000014005d208 f i LIBCMT:_wctype.obj
 0001:0005c214       iswspace                   000000014005d214 f i LIBCMT:_wctype.obj
 0001:0005c220       iswupper                   000000014005d220 f i LIBCMT:_wctype.obj
 0001:0005c22c       iswxdigit                  000000014005d22c f i LIBCMT:_wctype.obj
 0001:0005c238       _get_printf_count_output   000000014005d238 f   LIBCMT:printf.obj
 0001:0005c250       _printf_l                  000000014005d250 f   LIBCMT:printf.obj
 0001:0005c274       _printf_p                  000000014005d274 f   LIBCMT:printf.obj
 0001:0005c29c       _printf_p_l                000000014005d29c f   LIBCMT:printf.obj
 0001:0005c2c0       _printf_s_l                000000014005d2c0 f   LIBCMT:printf.obj
 0001:0005c2e4       _set_printf_count_output   000000014005d2e4 f   LIBCMT:printf.obj
 0001:0005c30c       printf                     000000014005d30c f   LIBCMT:printf.obj
 0001:0005c3b8       printf_s                   000000014005d3b8 f   LIBCMT:printf.obj
 0001:0005c3e0       _wctomb_l                  000000014005d3e0 f   LIBCMT:wctomb.obj
 0001:0005c45c       _wctomb_s_l                000000014005d45c f   LIBCMT:wctomb.obj
 0001:0005c5e8       wctomb                     000000014005d5e8 f   LIBCMT:wctomb.obj
 0001:0005c63c       wctomb_s                   000000014005d63c f   LIBCMT:wctomb.obj
 0001:0005c660       _local_unwind              000000014005d660 f   LIBCMT:jmpuwind.obj
 0001:0005c690       _NLG_Notify                000000014005d690 f   LIBCMT:jmpuwind.obj
 0001:0005c6b0       __NLG_Dispatch2            000000014005d6b0 f   LIBCMT:jmpuwind.obj
 0001:0005c6c0       __NLG_Return2              000000014005d6c0 f   LIBCMT:jmpuwind.obj
 0001:0005c6d0       _FindPESection             000000014005d6d0 f   LIBCMT:pesect.obj
 0001:0005c720       _IsNonwritableInCurrentImage 000000014005d720 f   LIBCMT:pesect.obj
 0001:0005c770       _ValidateImageBase         000000014005d770 f   LIBCMT:pesect.obj
 0001:0005c7a0       ?_inconsistency@@YAXXZ     000000014005d7a0 f   LIBCMT:hooks.obj
 0001:0005c7c0       ?terminate@@YAXXZ          000000014005d7c0 f   LIBCMT:hooks.obj
 0001:0005c7e0       ?unexpected@@YAXXZ         000000014005d7e0 f   LIBCMT:hooks.obj
 0001:0005c800       _initp_eh_hooks            000000014005d800 f   LIBCMT:hooks.obj
 0001:0005c820       __onexitinit               000000014005d820 f   LIBCMT:onexit.obj
 0001:0005c864       _onexit                    000000014005d864 f   LIBCMT:onexit.obj
 0001:0005ca64       atexit                     000000014005da64 f   LIBCMT:onexit.obj
 0001:0005ca7c       __getlocaleinfo            000000014005da7c f   LIBCMT:inithelp.obj
 0001:0005cc64       _initp_misc_purevirt       000000014005dc64 f   LIBCMT:inithelp.obj
 0001:0005cc6c       __fpecode                  000000014005dc6c f   LIBCMT:winsig.obj
 0001:0005cc80       __get_sigabrt              000000014005dc80 f   LIBCMT:winsig.obj
 0001:0005cc90       __pxcptinfoptrs            000000014005dc90 f   LIBCMT:winsig.obj
 0001:0005cca4       _initp_misc_winsig         000000014005dca4 f   LIBCMT:winsig.obj
 0001:0005cd58       raise                      000000014005dd58 f   LIBCMT:winsig.obj
 0001:0005cfc8       signal                     000000014005dfc8 f   LIBCMT:winsig.obj
 0001:0005d254       _initp_misc_rand_s         000000014005e254 f   LIBCMT:rand_s.obj
 0001:0005d25c       rand_s                     000000014005e25c f   LIBCMT:rand_s.obj
 0001:0005d414       _ismbbalnum                000000014005e414 f   LIBCMT:ismbbyte.obj
 0001:0005d42c       _ismbbalnum_l              000000014005e42c f   LIBCMT:ismbbyte.obj
 0001:0005d448       _ismbbalpha                000000014005e448 f   LIBCMT:ismbbyte.obj
 0001:0005d460       _ismbbalpha_l              000000014005e460 f   LIBCMT:ismbbyte.obj
 0001:0005d47c       _ismbbblank                000000014005e47c f   LIBCMT:ismbbyte.obj
 0001:0005d498       _ismbbblank_l              000000014005e498 f   LIBCMT:ismbbyte.obj
 0001:0005d4b8       _ismbbgraph                000000014005e4b8 f   LIBCMT:ismbbyte.obj
 0001:0005d4d0       _ismbbgraph_l              000000014005e4d0 f   LIBCMT:ismbbyte.obj
 0001:0005d4ec       _ismbbkalnum               000000014005e4ec f   LIBCMT:ismbbyte.obj
 0001:0005d500       _ismbbkalnum_l             000000014005e500 f   LIBCMT:ismbbyte.obj
 0001:0005d518       _ismbbkana                 000000014005e518 f   LIBCMT:ismbbyte.obj
 0001:0005d520       _ismbbkana_l               000000014005e520 f   LIBCMT:ismbbyte.obj
 0001:0005d588       _ismbbkprint               000000014005e588 f   LIBCMT:ismbbyte.obj
 0001:0005d59c       _ismbbkprint_l             000000014005e59c f   LIBCMT:ismbbyte.obj
 0001:0005d5b4       _ismbbkpunct               000000014005e5b4 f   LIBCMT:ismbbyte.obj
 0001:0005d5c8       _ismbbkpunct_l             000000014005e5c8 f   LIBCMT:ismbbyte.obj
 0001:0005d5e0       _ismbblead                 000000014005e5e0 f   LIBCMT:ismbbyte.obj
 0001:0005d5f4       _ismbblead_l               000000014005e5f4 f   LIBCMT:ismbbyte.obj
 0001:0005d60c       _ismbbprint                000000014005e60c f   LIBCMT:ismbbyte.obj
 0001:0005d624       _ismbbprint_l              000000014005e624 f   LIBCMT:ismbbyte.obj
 0001:0005d640       _ismbbpunct                000000014005e640 f   LIBCMT:ismbbyte.obj
 0001:0005d654       _ismbbpunct_l              000000014005e654 f   LIBCMT:ismbbyte.obj
 0001:0005d66c       _ismbbtrail                000000014005e66c f   LIBCMT:ismbbyte.obj
 0001:0005d680       _ismbbtrail_l              000000014005e680 f   LIBCMT:ismbbyte.obj
 0001:0005d698       wcscat_s                   000000014005e698 f   LIBCMT:wcscat_s.obj
 0001:0005d720       wcscpy_s                   000000014005e720 f   LIBCMT:wcscpy_s.obj
 0001:0005d78c       wcsncpy_s                  000000014005e78c f   LIBCMT:wcsncpy_s.obj
 0001:0005d858       __crtMessageBoxW           000000014005e858 f   LIBCMT:crtmboxw.obj
 0001:0005dacc       __crtMessageBoxWaitThreadW 000000014005eacc f   LIBCMT:crtmboxw.obj
 0001:0005daf0       _fclose_nolock             000000014005eaf0 f   LIBCMT:fclose.obj
 0001:0005db6c       fclose                     000000014005eb6c f   LIBCMT:fclose.obj
 0001:0005dbd4       _recalloc                  000000014005ebd4 f   LIBCMT:recalloc.obj
 0001:0005dc5c       __lock_fhandle             000000014005ec5c f   LIBCMT:osfinfo.obj
 0001:0005dcf4       _alloc_osfhnd              000000014005ecf4 f   LIBCMT:osfinfo.obj
 0001:0005deec       _free_osfhnd               000000014005eeec f   LIBCMT:osfinfo.obj
 0001:0005df98       _get_osfhandle             000000014005ef98 f   LIBCMT:osfinfo.obj
 0001:0005e00c       _open_osfhandle            000000014005f00c f   LIBCMT:osfinfo.obj
 0001:0005e108       _set_osfhnd                000000014005f108 f   LIBCMT:osfinfo.obj
 0001:0005e1b8       _unlock_fhandle            000000014005f1b8 f   LIBCMT:osfinfo.obj
 0001:0005e1e4       _lseeki64                  000000014005f1e4 f   LIBCMT:lseeki64.obj
 0001:0005e2cc       _lseeki64_nolock           000000014005f2cc f   LIBCMT:lseeki64.obj
 0001:0005e360       _mbtowc_l                  000000014005f360 f   LIBCMT:mbtowc.obj
 0001:0005e4b4       mbtowc                     000000014005f4b4 f   LIBCMT:mbtowc.obj
 0001:0005e4bc       _putwch                    000000014005f4bc f   LIBCMT:putwch.obj
 0001:0005e4f0       _putwch_nolock             000000014005f4f0 f   LIBCMT:putwch.obj
 0001:0005e560       __chkstk                   000000014005f560 f   LIBCMT:chkstk.obj
 0001:0005e560       _alloca_probe              000000014005f560 f   LIBCMT:chkstk.obj
 0001:0005e5b0       _getbuf                    000000014005f5b0 f   LIBCMT:_getbuf.obj
 0001:0005e604       __isascii                  000000014005f604 f i LIBCMT:_ctype.obj
 0001:0005e610       __iscsym                   000000014005f610 f i LIBCMT:_ctype.obj
 0001:0005e638       __iscsymf                  000000014005f638 f i LIBCMT:_ctype.obj
 0001:0005e660       __toascii                  000000014005f660 f i LIBCMT:_ctype.obj
 0001:0005e668       _isalnum_l                 000000014005f668 f i LIBCMT:_ctype.obj
 0001:0005e6cc       _isalpha_l                 000000014005f6cc f i LIBCMT:_ctype.obj
 0001:0005e730       _isblank_l                 000000014005f730 f i LIBCMT:_ctype.obj
 0001:0005e7a0       _iscntrl_l                 000000014005f7a0 f i LIBCMT:_ctype.obj
 0001:0005e800       _iscsym_l                  000000014005f800 f i LIBCMT:_ctype.obj
 0001:0005e874       _iscsymf_l                 000000014005f874 f i LIBCMT:_ctype.obj
 0001:0005e8e8       _isdigit_l                 000000014005f8e8 f i LIBCMT:_ctype.obj
 0001:0005e948       _isgraph_l                 000000014005f948 f i LIBCMT:_ctype.obj
 0001:0005e9ac       _islower_l                 000000014005f9ac f i LIBCMT:_ctype.obj
 0001:0005ea0c       _isprint_l                 000000014005fa0c f i LIBCMT:_ctype.obj
 0001:0005ea70       _ispunct_l                 000000014005fa70 f i LIBCMT:_ctype.obj
 0001:0005ead0       _isspace_l                 000000014005fad0 f i LIBCMT:_ctype.obj
 0001:0005eb30       _isupper_l                 000000014005fb30 f i LIBCMT:_ctype.obj
 0001:0005eb90       _isxdigit_l                000000014005fb90 f i LIBCMT:_ctype.obj
 0001:0005ebf4       isalnum                    000000014005fbf4 f i LIBCMT:_ctype.obj
 0001:0005ec74       isalpha                    000000014005fc74 f i LIBCMT:_ctype.obj
 0001:0005ecf4       isblank                    000000014005fcf4 f i LIBCMT:_ctype.obj
 0001:0005ed24       iscntrl                    000000014005fd24 f i LIBCMT:_ctype.obj
 0001:0005eda0       isdigit                    000000014005fda0 f i LIBCMT:_ctype.obj
 0001:0005ee1c       isgraph                    000000014005fe1c f i LIBCMT:_ctype.obj
 0001:0005ee9c       islower                    000000014005fe9c f i LIBCMT:_ctype.obj
 0001:0005ef18       isprint                    000000014005ff18 f i LIBCMT:_ctype.obj
 0001:0005ef98       ispunct                    000000014005ff98 f i LIBCMT:_ctype.obj
 0001:0005f014       isspace                    0000000140060014 f i LIBCMT:_ctype.obj
 0001:0005f090       isupper                    0000000140060090 f i LIBCMT:_ctype.obj
 0001:0005f10c       isxdigit                   000000014006010c f i LIBCMT:_ctype.obj
 0001:0005f18c       _tolower                   000000014006018c f   LIBCMT:tolower.obj
 0001:0005f190       _tolower_l                 0000000140060190 f   LIBCMT:tolower.obj
 0001:0005f2e4       tolower                    00000001400602e4 f   LIBCMT:tolower.obj
 0001:0005f304       strrchr                    0000000140060304 f   LIBCMT:strrchr.obj
 0001:0005f448       _fptostr                   0000000140060448 f   LIBCMT:_fptostr.obj
 0001:0005f514       __crt_atoflt_l             0000000140060514 f   LIBCMT:atodbl.obj
 0001:0005f5e4       _atodbl                    00000001400605e4 f   LIBCMT:atodbl.obj
 0001:0005f5ec       _atodbl_l                  00000001400605ec f   LIBCMT:atodbl.obj
 0001:0005f6b4       _atoflt                    00000001400606b4 f   LIBCMT:atodbl.obj
 0001:0005f6c0       _atoflt_l                  00000001400606c0 f   LIBCMT:atodbl.obj
 0001:0005f6c8       _atoldbl                   00000001400606c8 f   LIBCMT:atodbl.obj
 0001:0005f6d0       _atoldbl_l                 00000001400606d0 f   LIBCMT:atodbl.obj
 0001:0005f79c       __dtold                    000000014006079c f   LIBCMT:cfout.obj
 0001:0005f86c       _fltout2                   000000014006086c f   LIBCMT:cfout.obj
 0001:0005f924       _fptrap                    0000000140060924 f   LIBCMT:crt0fp.obj
 0001:0005f930       _CopyMan                   0000000140060930 f i LIBCMT:intrncvt.obj
 0001:0005f948       _FillZeroMan               0000000140060948 f i LIBCMT:intrncvt.obj
 0001:0005f954       _IncMan                    0000000140060954 f i LIBCMT:intrncvt.obj
 0001:0005f9d0       _IsZeroMan                 00000001400609d0 f i LIBCMT:intrncvt.obj
 0001:0005f9ec       _RoundMan                  00000001400609ec f i LIBCMT:intrncvt.obj
 0001:0005fb24       _ShrMan                    0000000140060b24 f i LIBCMT:intrncvt.obj
 0001:0005fbd0       _ZeroTail                  0000000140060bd0 f i LIBCMT:intrncvt.obj
 0001:0005fc20       __addl                     0000000140060c20 f i LIBCMT:intrncvt.obj
 0001:0005fc3c       _ld12cvt                   0000000140060c3c f i LIBCMT:intrncvt.obj
 0001:000601e0       _ld12tod                   00000001400611e0 f   LIBCMT:intrncvt.obj
 0001:00060798       _ld12tof                   0000000140061798 f   LIBCMT:intrncvt.obj
 0001:00060d50       _ld12told                  0000000140061d50 f   LIBCMT:intrncvt.obj
 0001:00060e3c       __STRINGTOLD_L             0000000140061e3c f   LIBCMT:strgtold.obj
 0001:00060eb4       __ld12mul                  0000000140061eb4 f i LIBCMT:strgtold.obj
 0001:000611e4       __multtenpow12             00000001400621e4 f i LIBCMT:strgtold.obj
 0001:00061598       __shl_12                   0000000140062598 f i LIBCMT:strgtold.obj
 0001:000615c4       __shr_12                   00000001400625c4 f i LIBCMT:strgtold.obj
 0001:000615f0       __strgtold12_l             00000001400625f0 f   LIBCMT:strgtold.obj
 0001:00061e54       __free_lconv_mon           0000000140062e54 f   LIBCMT:initmon.obj
 0001:00061f60       __init_monetary            0000000140062f60 f   LIBCMT:initmon.obj
 0001:0006249c       __free_lconv_num           000000014006349c f   LIBCMT:initnum.obj
 0001:00062508       __init_numeric             0000000140063508 f   LIBCMT:initnum.obj
 0001:0006280c       __free_lc_time             000000014006380c f   LIBCMT:inittime.obj
 0001:00062c08       __init_time                0000000140063c08 f   LIBCMT:inittime.obj
 0001:00063824       localeconv                 0000000140064824 f   LIBCMT:lconv.obj
 0001:00063b64       _MallocaIsSizeInRange      0000000140064b64 f i LIBCMT:a_map.obj
 0001:00063b74       _MarkAllocaS               0000000140064b74 f i LIBCMT:a_map.obj
 0001:00063b84       __crtLCMapStringA          0000000140064b84 f   LIBCMT:a_map.obj
 0001:00063c1c       _freea                     0000000140064c1c f i LIBCMT:a_map.obj
 0001:00063db4       __crtGetStringTypeA        0000000140064db4 f   LIBCMT:a_str.obj
 0001:00063e30       __init_dummy               0000000140064e30 f   LIBCMT:wsetloca.obj
 0001:00063e34       _locterm                   0000000140064e34 f   LIBCMT:wsetloca.obj
 0001:00063e7c       ___setlc_active_func       0000000140064e7c f   LIBCMT:wsetloca.obj
 0001:00063e84       ___unguarded_readlc_active_add_func 0000000140064e84 f   LIBCMT:wsetloca.obj
 0001:00063e8c       __copy_locale_name         0000000140064e8c f   LIBCMT:wsetloca.obj
 0001:00063f10       __create_locale            0000000140064f10 f   LIBCMT:wsetloca.obj
 0001:00063f18       __free_locale              0000000140064f18 f   LIBCMT:wsetloca.obj
 0001:00063f20       __get_current_locale       0000000140064f20 f   LIBCMT:wsetloca.obj
 0001:00063f28       __lc_lctowcs               0000000140064f28 f   LIBCMT:wsetloca.obj
 0001:00063fcc       __lc_wcstolc               0000000140064fcc f   LIBCMT:wsetloca.obj
 0001:00064184       _configthreadlocale        0000000140065184 f   LIBCMT:wsetloca.obj
 0001:000642ac       _create_locale             00000001400652ac f   LIBCMT:wsetloca.obj
 0001:00064324       _expandlocale              0000000140065324 f   LIBCMT:wsetloca.obj
 0001:000646f8       _free_locale               00000001400656f8 f   LIBCMT:wsetloca.obj
 0001:00064794       _get_current_locale        0000000140065794 f   LIBCMT:wsetloca.obj
 0001:00064830       _wcreate_locale            0000000140065830 f   LIBCMT:wsetloca.obj
 0001:00064930       _wcscats                   0000000140065930 f   LIBCMT:wsetloca.obj
 0001:00064998       _wsetlocale                0000000140065998 f   LIBCMT:wsetloca.obj
 0001:000652b4       __raise_securityfailure    00000001400662b4 f   LIBCMT:gs_report.obj
 0001:00065300       __report_gsfailure         0000000140066300 f   LIBCMT:gs_report.obj
 0001:000653d4       __report_rangecheckfailure 00000001400663d4 f   LIBCMT:gs_report.obj
 0001:000653e8       __report_securityfailure   00000001400663e8 f   LIBCMT:gs_report.obj
 0001:00065484       __report_securityfailureEx 0000000140066484 f   LIBCMT:gs_report.obj
 0001:00065594       __pctype_func              0000000140066594 f   LIBCMT:ctype.obj
 0001:000655d0       __pwctype_func             00000001400665d0 f   LIBCMT:ctype.obj
 0001:00065814       _strtol_l                  0000000140066814 f   LIBCMT:strtol.obj
 0001:00065838       _strtoul_l                 0000000140066838 f   LIBCMT:strtol.obj
 0001:00065860       strtol                     0000000140066860 f   LIBCMT:strtol.obj
 0001:00065890       strtoul                    0000000140066890 f   LIBCMT:strtol.obj
 0001:000658c4       _iswctype_l                00000001400668c4 f   LIBCMT:iswctype.obj
 0001:000658cc       is_wctype                  00000001400668cc f   LIBCMT:iswctype.obj
 0001:000658d4       iswctype                   00000001400668d4 f   LIBCMT:iswctype.obj
 0001:0006593c       _vprintf_l                 000000014006693c f   LIBCMT:vprintf.obj
 0001:00065954       _vprintf_p                 0000000140066954 f   LIBCMT:vprintf.obj
 0001:0006596c       _vprintf_p_l               000000014006696c f   LIBCMT:vprintf.obj
 0001:00065984       _vprintf_s_l               0000000140066984 f   LIBCMT:vprintf.obj
 0001:0006599c       vprintf                    000000014006699c f   LIBCMT:vprintf.obj
 0001:000659b4       vprintf_helper             00000001400669b4 f   LIBCMT:vprintf.obj
 0001:00065a5c       vprintf_s                  0000000140066a5c f   LIBCMT:vprintf.obj
 0001:00065a74       ___lc_codepage_func        0000000140066a74 f   LIBCMT:initctyp.obj
 0001:00065aac       ___lc_collate_cp_func      0000000140066aac f   LIBCMT:initctyp.obj
 0001:00065ae4       ___lc_locale_name_func     0000000140066ae4 f   LIBCMT:initctyp.obj
 0001:00065b20       ___mb_cur_max_func         0000000140066b20 f   LIBCMT:initctyp.obj
 0001:00065b5c       ___mb_cur_max_l_func       0000000140066b5c f   LIBCMT:initctyp.obj
 0001:00065b70       __init_ctype               0000000140066b70 f   LIBCMT:initctyp.obj
 0001:00065f94       _set_abort_behavior        0000000140066f94 f   LIBCMT:abort.obj
 0001:00065fb0       abort                      0000000140066fb0 f   LIBCMT:abort.obj
 0001:00066008       _msize                     0000000140067008 f   LIBCMT:msize.obj
 0001:000661b0       __crtGetLocaleInfoA        00000001400671b0 f   LIBCMT:a_loc.obj
 0001:00066218       GetTableIndexFromLcid      0000000140067218 f   LIBCMT:winapinls.obj
 0001:0006625c       GetTableIndexFromLocaleName 000000014006725c f   LIBCMT:winapinls.obj
 0001:000662e8       __crtCompareStringEx       00000001400672e8 f   LIBCMT:winapinls.obj
 0001:00066378       __crtDownlevelLCIDToLocaleName 0000000140067378 f   LIBCMT:winapinls.obj
 0001:00066428       __crtDownlevelLocaleNameToLCID 0000000140067428 f   LIBCMT:winapinls.obj
 0001:00066468       __crtEnumSystemLocalesEx   0000000140067468 f   LIBCMT:winapinls.obj
 0001:000664ac       __crtGetDateFormatEx       00000001400674ac f   LIBCMT:winapinls.obj
 0001:00066528       __crtGetLocaleInfoEx       0000000140067528 f   LIBCMT:winapinls.obj
 0001:00066578       __crtGetTimeFormatEx       0000000140067578 f   LIBCMT:winapinls.obj
 0001:000665f0       __crtGetUserDefaultLocaleName 00000001400675f0 f   LIBCMT:winapinls.obj
 0001:00066634       __crtIsValidLocaleName     0000000140067634 f   LIBCMT:winapinls.obj
 0001:00066668       __crtLCMapStringEx         0000000140067668 f   LIBCMT:winapinls.obj
 0001:000666f8       __wcsnicmp_ascii           00000001400676f8 f   LIBCMT:winapinls.obj
 0001:00066750       _close                     0000000140067750 f   LIBCMT:close.obj
 0001:00066814       _close_nolock              0000000140067814 f   LIBCMT:close.obj
 0001:000668d0       _freebuf                   00000001400678d0 f   LIBCMT:_freebuf.obj
 0001:00066908       __termconout               0000000140067908 f   LIBCMT:initcon.obj
 0001:00066928       __initconout               0000000140067928 f   LIBCMT:initcon.obj
 0001:00066964       $I10_OUTPUT                0000000140067964 f   LIBCMT:x10fout.obj
 0001:0006743c       __add_12                   000000014006843c f i LIBCMT:x10fout.obj
 0001:000674b8       __mtold12                  00000001400684b8 f   LIBCMT:mantold.obj
 0001:000676dc       __init_collate             00000001400686dc f   LIBCMT:initcoll.obj
 0001:000676e0       wcscmp                     00000001400686e0 f   LIBCMT:wcscmp.obj
 0001:0006771c       wcscspn                    000000014006871c f   LIBCMT:wcscspn.obj
 0001:0006775c       wcsnlen                    000000014006875c f   LIBCMT:wcslen_s.obj
 0001:0006777c       wcsncmp                    000000014006877c f   LIBCMT:wcsncmp.obj
 0001:000677a8       wcspbrk                    00000001400687a8 f   LIBCMT:wcspbrk.obj
 0001:0006806c       __get_qualified_locale     000000014006906c f   LIBCMT:getqloc.obj
 0001:00068b68       __get_qualified_locale_downlevel 0000000140069b68 f   LIBCMT:getqloc_downlevel.obj
 0001:00068e00       _i64tow_s                  0000000140069e00 f   LIBCMT:xtows.obj
 0001:00068e24       _itow_s                    0000000140069e24 f   LIBCMT:xtows.obj
 0001:00068e4c       _ltow_s                    0000000140069e4c f   LIBCMT:xtows.obj
 0001:00068e70       _ui64tow_s                 0000000140069e70 f   LIBCMT:xtows.obj
 0001:00068e84       _ultow_s                   0000000140069e84 f   LIBCMT:xtows.obj
 0001:000690bc       _wtoi                      000000014006a0bc f   LIBCMT:wtox.obj
 0001:000690c8       _wtoi64                    000000014006a0c8 f   LIBCMT:wtox.obj
 0001:000690d4       _wtoi64_l                  000000014006a0d4 f   LIBCMT:wtox.obj
 0001:000690e4       _wtoi_l                    000000014006a0e4 f   LIBCMT:wtox.obj
 0001:000690f4       _wtol                      000000014006a0f4 f   LIBCMT:wtox.obj
 0001:00069100       _wtol_l                    000000014006a100 f   LIBCMT:wtox.obj
 0001:00069110       _wtoll                     000000014006a110 f   LIBCMT:wtox.obj
 0001:0006911c       _wtoll_l                   000000014006a11c f   LIBCMT:wtox.obj
 0001:0006912c       wcschr                     000000014006a12c f   LIBCMT:wcschr.obj
 0001:000691b8       _wcsicmp                   000000014006a1b8 f   LIBCMT:wcsicmp.obj
 0001:0006923c       _wcsicmp_l                 000000014006a23c f   LIBCMT:wcsicmp.obj
 0001:0006932c       _wcsnicmp                  000000014006a32c f   LIBCMT:wcsnicmp.obj
 0001:000693c4       _wcsnicmp_l                000000014006a3c4 f   LIBCMT:wcsnicmp.obj
 0001:000696c4       _wcstol_l                  000000014006a6c4 f   LIBCMT:wcstol.obj
 0001:000696cc       _wcstoul_l                 000000014006a6cc f   LIBCMT:wcstol.obj
 0001:000696d8       wcstol                     000000014006a6d8 f   LIBCMT:wcstol.obj
 0001:000696e0       wcstoul                    000000014006a6e0 f   LIBCMT:wcstol.obj
 0001:00069954       _wcstof_l                  000000014006a954 f   LIBCMT:wcstoq.obj
 0001:00069a64       _wcstoi64                  000000014006aa64 f   LIBCMT:wcstoq.obj
 0001:00069a94       _wcstoi64_l                000000014006aa94 f   LIBCMT:wcstoq.obj
 0001:00069ab8       _wcstoimax_l               000000014006aab8 f   LIBCMT:wcstoq.obj
 0001:00069adc       _wcstold_l                 000000014006aadc f   LIBCMT:wcstoq.obj
 0001:00069ae4       _wcstoll_l                 000000014006aae4 f   LIBCMT:wcstoq.obj
 0001:00069b08       _wcstoui64                 000000014006ab08 f   LIBCMT:wcstoq.obj
 0001:00069b3c       _wcstoui64_l               000000014006ab3c f   LIBCMT:wcstoq.obj
 0001:00069b64       _wcstoull_l                000000014006ab64 f   LIBCMT:wcstoq.obj
 0001:00069b8c       _wcstoumax_l               000000014006ab8c f   LIBCMT:wcstoq.obj
 0001:00069bb4       wcstof                     000000014006abb4 f   LIBCMT:wcstoq.obj
 0001:00069bbc       wcstoimax                  000000014006abbc f   LIBCMT:wcstoq.obj
 0001:00069bc4       wcstold                    000000014006abc4 f   LIBCMT:wcstoq.obj
 0001:00069bcc       wcstoll                    000000014006abcc f   LIBCMT:wcstoq.obj
 0001:00069bd4       wcstoull                   000000014006abd4 f   LIBCMT:wcstoq.obj
 0001:00069bdc       wcstoumax                  000000014006abdc f   LIBCMT:wcstoq.obj
 0001:00069be4       _towlower_l                000000014006abe4 f   LIBCMT:towlower.obj
 0001:00069cb0       towlower                   000000014006acb0 f   LIBCMT:towlower.obj
 0001:00069cb8       _wchartodigit              000000014006acb8 f   LIBCMT:wchtodig.obj
 0001:00069e50       _wcstod_l                  000000014006ae50 f   LIBCMT:wcstod.obj
 0001:00069f80       wcstod                     000000014006af80 f   LIBCMT:wcstod.obj
 0001:00069f88       __crtLCMapStringW          000000014006af88 f   LIBCMT:w_map.obj
 0001:00069fd4       _wfltin2                   000000014006afd4 f   LIBCMT:wcfin.obj
 0001:0006a09c       __WSTRINGTOLD_L            000000014006b09c f   LIBCMT:wstrgtold.obj
 0001:0006a114       __wstrgtold12_l            000000014006b114 f   LIBCMT:wstrgtold.obj
 0001:0006aa8e       CommandLineToArgvW         000000014006ba8e f   shell32:SHELL32.dll
 0001:0006aa94       LocalFree                  000000014006ba94 f   kernel32:KERNEL32.dll
 0001:0006aa9a       IsDebuggerPresent          000000014006ba9a f   kernel32:KERNEL32.dll
 0001:0006aaa0       WideCharToMultiByte        000000014006baa0 f   kernel32:KERNEL32.dll
 0001:0006aaa6       GetCommandLineW            000000014006baa6 f   kernel32:KERNEL32.dll
 0001:0006aaac       FreeLibrary                000000014006baac f   kernel32:KERNEL32.dll
 0001:0006aab2       MultiByteToWideChar        000000014006bab2 f   kernel32:KERNEL32.dll
 0001:0006aab8       LoadLibraryW               000000014006bab8 f   kernel32:KERNEL32.dll
 0001:0006aabe       GetConsoleWindow           000000014006babe f   kernel32:KERNEL32.dll
 0001:0006aac4       GetProcAddress             000000014006bac4 f   kernel32:KERNEL32.dll
 0001:0006aaca       DeleteCriticalSection      000000014006baca f   kernel32:KERNEL32.dll
 0001:0006aad0       InitializeCriticalSection  000000014006bad0 f   kernel32:KERNEL32.dll
 0001:0006aad6       EnterCriticalSection       000000014006bad6 f   kernel32:KERNEL32.dll
 0001:0006aadc       LeaveCriticalSection       000000014006badc f   kernel32:KERNEL32.dll
 0001:0006aae2       GetSystemInfo              000000014006bae2 f   kernel32:KERNEL32.dll
 0001:0006aae8       GetExitCodeThread          000000014006bae8 f   kernel32:KERNEL32.dll
 0001:0006aaee       WaitForSingleObject        000000014006baee f   kernel32:KERNEL32.dll
 0001:0006aaf4       CloseHandle                000000014006baf4 f   kernel32:KERNEL32.dll
 0001:0006aafa       GetCurrentProcess          000000014006bafa f   kernel32:KERNEL32.dll
 0001:0006ab00       LoadLibraryA               000000014006bb00 f   kernel32:KERNEL32.dll
 0001:0006ab06       QueryPerformanceFrequency  000000014006bb06 f   kernel32:KERNEL32.dll
 0001:0006ab0c       VirtualFree                000000014006bb0c f   kernel32:KERNEL32.dll
 0001:0006ab12       VirtualAlloc               000000014006bb12 f   kernel32:KERNEL32.dll
 0001:0006ab18       GetCurrentThread           000000014006bb18 f   kernel32:KERNEL32.dll
 0001:0006ab1e       RtlCaptureContext          000000014006bb1e f   kernel32:KERNEL32.dll
 0001:0006ab24       GetEnvironmentVariableA    000000014006bb24 f   kernel32:KERNEL32.dll
 0001:0006ab2a       DuplicateHandle            000000014006bb2a f   kernel32:KERNEL32.dll
 0001:0006ab30       GetCurrentThreadId         000000014006bb30 f   kernel32:KERNEL32.dll
 0001:0006ab36       TryEnterCriticalSection    000000014006bb36 f   kernel32:KERNEL32.dll
 0001:0006ab3c       ResumeThread               000000014006bb3c f   kernel32:KERNEL32.dll
 0001:0006ab42       QueryPerformanceCounter    000000014006bb42 f   kernel32:KERNEL32.dll
 0001:0006ab48       SwitchToThread             000000014006bb48 f   kernel32:KERNEL32.dll
 0001:0006ab4e       GetThreadContext           000000014006bb4e f   kernel32:KERNEL32.dll
 0001:0006ab54       SuspendThread              000000014006bb54 f   kernel32:KERNEL32.dll
 0001:0006ab5a       Sleep                      000000014006bb5a f   kernel32:KERNEL32.dll
 0001:0006ab60       GetLastError               000000014006bb60 f   kernel32:KERNEL32.dll
 0001:0006ab66       HeapFree                   000000014006bb66 f   kernel32:KERNEL32.dll
 0001:0006ab6c       GetCommandLineA            000000014006bb6c f   kernel32:KERNEL32.dll
 0001:0006ab72       HeapAlloc                  000000014006bb72 f   kernel32:KERNEL32.dll
 0001:0006ab78       HeapReAlloc                000000014006bb78 f   kernel32:KERNEL32.dll
 0001:0006ab7e       EncodePointer              000000014006bb7e f   kernel32:KERNEL32.dll
 0001:0006ab84       DecodePointer              000000014006bb84 f   kernel32:KERNEL32.dll
 0001:0006ab8a       CreateThread               000000014006bb8a f   kernel32:KERNEL32.dll
 0001:0006ab90       ExitThread                 000000014006bb90 f   kernel32:KERNEL32.dll
 0001:0006ab96       LoadLibraryExW             000000014006bb96 f   kernel32:KERNEL32.dll
 0001:0006ab9c       IsProcessorFeaturePresent  000000014006bb9c f   kernel32:KERNEL32.dll
 0001:0006aba2       RtlUnwindEx                000000014006bba2 f   kernel32:KERNEL32.dll
 0001:0006aba8       GetStdHandle               000000014006bba8 f   kernel32:KERNEL32.dll
 0001:0006abae       GetFileType                000000014006bbae f   kernel32:KERNEL32.dll
 0001:0006abb4       GetStartupInfoW            000000014006bbb4 f   kernel32:KERNEL32.dll
 0001:0006abba       GetProcessHeap             000000014006bbba f   kernel32:KERNEL32.dll
 0001:0006abc0       SetLastError               000000014006bbc0 f   kernel32:KERNEL32.dll
 0001:0006abc6       ExitProcess                000000014006bbc6 f   kernel32:KERNEL32.dll
 0001:0006abcc       GetModuleHandleExW         000000014006bbcc f   kernel32:KERNEL32.dll
 0001:0006abd2       AreFileApisANSI            000000014006bbd2 f   kernel32:KERNEL32.dll
 0001:0006abd8       GetModuleFileNameA         000000014006bbd8 f   kernel32:KERNEL32.dll
 0001:0006abde       WriteFile                  000000014006bbde f   kernel32:KERNEL32.dll
 0001:0006abe4       GetModuleFileNameW         000000014006bbe4 f   kernel32:KERNEL32.dll
 0001:0006abea       GetCurrentProcessId        000000014006bbea f   kernel32:KERNEL32.dll
 0001:0006abf0       GetSystemTimeAsFileTime    000000014006bbf0 f   kernel32:KERNEL32.dll
 0001:0006abf6       GetEnvironmentStringsW     000000014006bbf6 f   kernel32:KERNEL32.dll
 0001:0006abfc       FreeEnvironmentStringsW    000000014006bbfc f   kernel32:KERNEL32.dll
 0001:0006ac02       FatalAppExitA              000000014006bc02 f   kernel32:KERNEL32.dll
 0001:0006ac08       FlushFileBuffers           000000014006bc08 f   kernel32:KERNEL32.dll
 0001:0006ac0e       GetConsoleCP               000000014006bc0e f   kernel32:KERNEL32.dll
 0001:0006ac14       GetConsoleMode             000000014006bc14 f   kernel32:KERNEL32.dll
 0001:0006ac1a       RtlLookupFunctionEntry     000000014006bc1a f   kernel32:KERNEL32.dll
 0001:0006ac20       RtlVirtualUnwind           000000014006bc20 f   kernel32:KERNEL32.dll
 0001:0006ac26       UnhandledExceptionFilter   000000014006bc26 f   kernel32:KERNEL32.dll
 0001:0006ac2c       SetUnhandledExceptionFilter 000000014006bc2c f   kernel32:KERNEL32.dll
 0001:0006ac32       InitializeCriticalSectionAndSpinCount 000000014006bc32 f   kernel32:KERNEL32.dll
 0001:0006ac38       CreateEventW               000000014006bc38 f   kernel32:KERNEL32.dll
 0001:0006ac3e       TerminateProcess           000000014006bc3e f   kernel32:KERNEL32.dll
 0001:0006ac44       TlsAlloc                   000000014006bc44 f   kernel32:KERNEL32.dll
 0001:0006ac4a       TlsGetValue                000000014006bc4a f   kernel32:KERNEL32.dll
 0001:0006ac50       TlsSetValue                000000014006bc50 f   kernel32:KERNEL32.dll
 0001:0006ac56       TlsFree                    000000014006bc56 f   kernel32:KERNEL32.dll
 0001:0006ac5c       GetTickCount               000000014006bc5c f   kernel32:KERNEL32.dll
 0001:0006ac62       GetModuleHandleW           000000014006bc62 f   kernel32:KERNEL32.dll
 0001:0006ac68       CreateSemaphoreW           000000014006bc68 f   kernel32:KERNEL32.dll
 0001:0006ac6e       IsValidCodePage            000000014006bc6e f   kernel32:KERNEL32.dll
 0001:0006ac74       GetACP                     000000014006bc74 f   kernel32:KERNEL32.dll
 0001:0006ac7a       GetOEMCP                   000000014006bc7a f   kernel32:KERNEL32.dll
 0001:0006ac80       GetCPInfo                  000000014006bc80 f   kernel32:KERNEL32.dll
 0001:0006ac86       SetConsoleCtrlHandler      000000014006bc86 f   kernel32:KERNEL32.dll
 0001:0006ac8c       OutputDebugStringW         000000014006bc8c f   kernel32:KERNEL32.dll
 0001:0006ac92       SetStdHandle               000000014006bc92 f   kernel32:KERNEL32.dll
 0001:0006ac98       SetFilePointerEx           000000014006bc98 f   kernel32:KERNEL32.dll
 0001:0006ac9e       WriteConsoleW              000000014006bc9e f   kernel32:KERNEL32.dll
 0001:0006aca4       GetStringTypeW             000000014006bca4 f   kernel32:KERNEL32.dll
 0001:0006acaa       HeapSize                   000000014006bcaa f   kernel32:KERNEL32.dll
 0001:0006acb0       GetDateFormatW             000000014006bcb0 f   kernel32:KERNEL32.dll
 0001:0006acb6       GetTimeFormatW             000000014006bcb6 f   kernel32:KERNEL32.dll
 0001:0006acbc       CompareStringW             000000014006bcbc f   kernel32:KERNEL32.dll
 0001:0006acc2       LCMapStringW               000000014006bcc2 f   kernel32:KERNEL32.dll
 0001:0006acc8       GetLocaleInfoW             000000014006bcc8 f   kernel32:KERNEL32.dll
 0001:0006acce       IsValidLocale              000000014006bcce f   kernel32:KERNEL32.dll
 0001:0006acd4       GetUserDefaultLCID         000000014006bcd4 f   kernel32:KERNEL32.dll
 0001:0006acda       EnumSystemLocalesW         000000014006bcda f   kernel32:KERNEL32.dll
 0001:0006ace0       CreateFileW                000000014006bce0 f   kernel32:KERNEL32.dll
 0002:00000000       __xc_a                     0000000140075000     LIBCMT:crt0init.obj
 0002:00000110       __xc_z                     0000000140075110     LIBCMT:crt0init.obj
 0002:00000220       __xi_a                     0000000140075220     LIBCMT:crt0init.obj
 0002:00000568       __xi_z                     0000000140075568     LIBCMT:crt0init.obj
 0002:00000678       __xl_a                     0000000140075678     LIBCMT:tlssup.obj
 0002:00000680       __xl_z                     0000000140075680     LIBCMT:tlssup.obj
 0002:00000688       __xp_a                     0000000140075688     LIBCMT:crt0init.obj
 0002:000009c0       __xp_z                     00000001400759c0     LIBCMT:crt0init.obj
 0002:00000ad0       __xt_a                     0000000140075ad0     LIBCMT:crt0init.obj
 0002:00000be0       __xt_z                     0000000140075be0     LIBCMT:crt0init.obj
 0002:00000d30       ??_C@_0EA@FCLIIPNN@Visual?5C?$CL?$CL?5CRT?3?5Not?5enough?5memor@ 0000000140075d30     LIBCMT:strerror.obj
 0002:00000d70       ??_C@_0N@PPOMPGGK@RoInitialize?$AA@ 0000000140075d70     LIBCMT:threadex.obj
 0002:00000d80       ??_C@_1BI@IDAOOPDH@?$AAc?$AAo?$AAm?$AAb?$AAa?$AAs?$AAe?$AA?4?$AAd?$AAl?$AAl?$AA?$AA@ 0000000140075d80     LIBCMT:threadex.obj
 0002:00000d98       ??_C@_0P@LLFHBIJD@RoUninitialize?$AA@ 0000000140075d98     LIBCMT:threadex.obj
 0002:00000da8       _FPinit                    0000000140075da8     LIBCMT:fpinit.obj
 0002:00000db0       ?ProcessDetach@NativeDll@<CrtImplementationDetails>@@0IB 0000000140075db0     LIBCMT:strtod.obj
 0002:00000db4       ?ProcessAttach@NativeDll@<CrtImplementationDetails>@@0IB 0000000140075db4     LIBCMT:strtod.obj
 0002:00000db8       ?ThreadAttach@NativeDll@<CrtImplementationDetails>@@0IB 0000000140075db8     LIBCMT:strtod.obj
 0002:00000dbc       ?ThreadDetach@NativeDll@<CrtImplementationDetails>@@0IB 0000000140075dbc     LIBCMT:strtod.obj
 0002:00000dc0       ?ProcessVerifier@NativeDll@<CrtImplementationDetails>@@0IB 0000000140075dc0     LIBCMT:strtod.obj
 0002:00000dd0       __xmm@80000000000000008000000000000000 0000000140075dd0     LIBCMT:strtod.obj
 0002:00000de0       ??_C@_06OJHGLDPL@?$CInull?$CJ?$AA@ 0000000140075de0     LIBCMT:output.obj
 0002:00000de8       ??_C@_1O@CEDCILHN@?$AA?$CI?$AAn?$AAu?$AAl?$AAl?$AA?$CJ?$AA?$AA@ 0000000140075de8     LIBCMT:output.obj
 0002:00000e00       __lookuptable              0000000140075e00     LIBCMT:output.obj
 0002:00000e60       _XcptActTab                0000000140075e60     LIBCMT:winxfltr.obj
 0002:00000f20       _XcptActTabCount           0000000140075f20     LIBCMT:winxfltr.obj
 0002:00000f24       _XcptActTabSize            0000000140075f24     LIBCMT:winxfltr.obj
 0002:00000f28       _First_FPE_Indx            0000000140075f28     LIBCMT:winxfltr.obj
 0002:00000f2c       _Num_FPE                   0000000140075f2c     LIBCMT:winxfltr.obj
 0002:00000f30       ??_C@_1BI@BGOHAHKC@?$AAm?$AAs?$AAc?$AAo?$AAr?$AAe?$AAe?$AA?4?$AAd?$AAl?$AAl?$AA?$AA@ 0000000140075f30     LIBCMT:crt0dat.obj
 0002:00000f48       ??_C@_0P@MIGLKIOC@CorExitProcess?$AA@ 0000000140075f48     LIBCMT:crt0dat.obj
 0002:000010d0       ??_C@_1FK@PGACCAFB@?$AAR?$AA6?$AA0?$AA0?$AA2?$AA?$AN?$AA?6?$AA?9?$AA?5?$AAf?$AAl?$AAo?$AAa?$AAt?$AAi?$AAn?$AAg?$AA?5?$AAp?$AAo?$AAi?$AAn?$AAt?$AA?5?$AAs?$AAu?$AAp?$AAp?$AAo?$AAr?$AAt?$AA?5@ 00000001400760d0     LIBCMT:crt0msg.obj
 0002:00001130       ??_C@_1FE@LLNEDJMD@?$AAR?$AA6?$AA0?$AA0?$AA8?$AA?$AN?$AA?6?$AA?9?$AA?5?$AAn?$AAo?$AAt?$AA?5?$AAe?$AAn?$AAo?$AAu?$AAg?$AAh?$AA?5?$AAs?$AAp?$AAa?$AAc?$AAe?$AA?5?$AAf?$AAo?$AAr?$AA?5?$AAa?$AAr@ 0000000140076130     LIBCMT:crt0msg.obj
 0002:00001190       ??_C@_1FI@HONFMGBI@?$AAR?$AA6?$AA0?$AA0?$AA9?$AA?$AN?$AA?6?$AA?9?$AA?5?$AAn?$AAo?$AAt?$AA?5?$AAe?$AAn?$AAo?$AAu?$AAg?$AAh?$AA?5?$AAs?$AAp?$AAa?$AAc?$AAe?$AA?5?$AAf?$AAo?$AAr?$AA?5?$AAe?$AAn@ 0000000140076190     LIBCMT:crt0msg.obj
 0002:000011f0       ??_C@_1EG@BEHAGFJD@?$AAR?$AA6?$AA0?$AA1?$AA0?$AA?$AN?$AA?6?$AA?9?$AA?5?$AAa?$AAb?$AAo?$AAr?$AAt?$AA?$CI?$AA?$CJ?$AA?5?$AAh?$AAa?$AAs?$AA?5?$AAb?$AAe?$AAe?$AAn?$AA?5?$AAc?$AAa?$AAl?$AAl?$AAe?$AAd@ 00000001400761f0     LIBCMT:crt0msg.obj
 0002:00001240       ??_C@_1FI@LOGNIKDM@?$AAR?$AA6?$AA0?$AA1?$AA6?$AA?$AN?$AA?6?$AA?9?$AA?5?$AAn?$AAo?$AAt?$AA?5?$AAe?$AAn?$AAo?$AAu?$AAg?$AAh?$AA?5?$AAs?$AAp?$AAa?$AAc?$AAe?$AA?5?$AAf?$AAo?$AAr?$AA?5?$AAt?$AAh@ 0000000140076240     LIBCMT:crt0msg.obj
 0002:000012a0       ??_C@_1FK@BEOGODMC@?$AAR?$AA6?$AA0?$AA1?$AA7?$AA?$AN?$AA?6?$AA?9?$AA?5?$AAu?$AAn?$AAe?$AAx?$AAp?$AAe?$AAc?$AAt?$AAe?$AAd?$AA?5?$AAm?$AAu?$AAl?$AAt?$AAi?$AAt?$AAh?$AAr?$AAe?$AAa?$AAd?$AA?5@ 00000001400762a0     LIBCMT:crt0msg.obj
 0002:00001300       ??_C@_1EC@JIBHAOPH@?$AAR?$AA6?$AA0?$AA1?$AA8?$AA?$AN?$AA?6?$AA?9?$AA?5?$AAu?$AAn?$AAe?$AAx?$AAp?$AAe?$AAc?$AAt?$AAe?$AAd?$AA?5?$AAh?$AAe?$AAa?$AAp?$AA?5?$AAe?$AAr?$AAr?$AAo?$AAr?$AA?$AN?$AA?6@ 0000000140076300     LIBCMT:crt0msg.obj
 0002:00001350       ??_C@_1FC@ECHBIFBC@?$AAR?$AA6?$AA0?$AA1?$AA9?$AA?$AN?$AA?6?$AA?9?$AA?5?$AAu?$AAn?$AAa?$AAb?$AAl?$AAe?$AA?5?$AAt?$AAo?$AA?5?$AAo?$AAp?$AAe?$AAn?$AA?5?$AAc?$AAo?$AAn?$AAs?$AAo?$AAl?$AAe?$AA?5@ 0000000140076350     LIBCMT:crt0msg.obj
 0002:000013b0       ??_C@_1GK@FHCKBEFA@?$AAR?$AA6?$AA0?$AA2?$AA4?$AA?$AN?$AA?6?$AA?9?$AA?5?$AAn?$AAo?$AAt?$AA?5?$AAe?$AAn?$AAo?$AAu?$AAg?$AAh?$AA?5?$AAs?$AAp?$AAa?$AAc?$AAe?$AA?5?$AAf?$AAo?$AAr?$AA?5?$AA_?$AAo@ 00000001400763b0     LIBCMT:crt0msg.obj
 0002:00001420       ??_C@_1EM@MAADIHMB@?$AAR?$AA6?$AA0?$AA2?$AA5?$AA?$AN?$AA?6?$AA?9?$AA?5?$AAp?$AAu?$AAr?$AAe?$AA?5?$AAv?$AAi?$AAr?$AAt?$AAu?$AAa?$AAl?$AA?5?$AAf?$AAu?$AAn?$AAc?$AAt?$AAi?$AAo?$AAn?$AA?5?$AAc@ 0000000140076420     LIBCMT:crt0msg.obj
 0002:00001470       ??_C@_1GK@MCAAGJMO@?$AAR?$AA6?$AA0?$AA2?$AA6?$AA?$AN?$AA?6?$AA?9?$AA?5?$AAn?$AAo?$AAt?$AA?5?$AAe?$AAn?$AAo?$AAu?$AAg?$AAh?$AA?5?$AAs?$AAp?$AAa?$AAc?$AAe?$AA?5?$AAf?$AAo?$AAr?$AA?5?$AAs?$AAt@ 0000000140076470     LIBCMT:crt0msg.obj
 0002:000014e0       ??_C@_1GK@MFGOKLAG@?$AAR?$AA6?$AA0?$AA2?$AA7?$AA?$AN?$AA?6?$AA?9?$AA?5?$AAn?$AAo?$AAt?$AA?5?$AAe?$AAn?$AAo?$AAu?$AAg?$AAh?$AA?5?$AAs?$AAp?$AAa?$AAc?$AAe?$AA?5?$AAf?$AAo?$AAr?$AA?5?$AAl?$AAo@ 00000001400764e0     LIBCMT:crt0msg.obj
 0002:00001550       ??_C@_1EK@HHFLMAOL@?$AAR?$AA6?$AA0?$AA2?$AA8?$AA?$AN?$AA?6?$AA?9?$AA?5?$AAu?$AAn?$AAa?$AAb?$AAl?$AAe?$AA?5?$AAt?$AAo?$AA?5?$AAi?$AAn?$AAi?$AAt?$AAi?$AAa?$AAl?$AAi?$AAz?$AAe?$AA?5?$AAh?$AAe@ 0000000140076550     LIBCMT:crt0msg.obj
 0002:000015a0       ??_C@_1DO@BMFCDCD@?$AAR?$AA6?$AA0?$AA3?$AA0?$AA?$AN?$AA?6?$AA?9?$AA?5?$AAC?$AAR?$AAT?$AA?5?$AAn?$AAo?$AAt?$AA?5?$AAi?$AAn?$AAi?$AAt?$AAi?$AAa?$AAl?$AAi?$AAz?$AAe?$AAd?$AA?$AN?$AA?6?$AA?$AA@ 00000001400765a0     LIBCMT:crt0msg.obj
 0002:000015e0       ??_C@_1MG@ENCOOIDF@?$AAR?$AA6?$AA0?$AA3?$AA1?$AA?$AN?$AA?6?$AA?9?$AA?5?$AAA?$AAt?$AAt?$AAe?$AAm?$AAp?$AAt?$AA?5?$AAt?$AAo?$AA?5?$AAi?$AAn?$AAi?$AAt?$AAi?$AAa?$AAl?$AAi?$AAz?$AAe?$AA?5?$AAt@ 00000001400765e0     LIBCMT:crt0msg.obj
 0002:000016b0       ??_C@_1GG@GOPILAJP@?$AAR?$AA6?$AA0?$AA3?$AA2?$AA?$AN?$AA?6?$AA?9?$AA?5?$AAn?$AAo?$AAt?$AA?5?$AAe?$AAn?$AAo?$AAu?$AAg?$AAh?$AA?5?$AAs?$AAp?$AAa?$AAc?$AAe?$AA?5?$AAf?$AAo?$AAr?$AA?5?$AAl?$AAo@ 00000001400766b0     LIBCMT:crt0msg.obj
 0002:00001720       ??_C@_1BOO@KGEDBGAJ@?$AAR?$AA6?$AA0?$AA3?$AA3?$AA?$AN?$AA?6?$AA?9?$AA?5?$AAA?$AAt?$AAt?$AAe?$AAm?$AAp?$AAt?$AA?5?$AAt?$AAo?$AA?5?$AAu?$AAs?$AAe?$AA?5?$AAM?$AAS?$AAI?$AAL?$AA?5?$AAc?$AAo?$AAd@ 0000000140076720     LIBCMT:crt0msg.obj
 0002:00001910       ??_C@_1GG@MKFPEKFO@?$AAR?$AA6?$AA0?$AA3?$AA4?$AA?$AN?$AA?6?$AA?9?$AA?5?$AAi?$AAn?$AAc?$AAo?$AAn?$AAs?$AAi?$AAs?$AAt?$AAe?$AAn?$AAt?$AA?5?$AAo?$AAn?$AAe?$AAx?$AAi?$AAt?$AA?5?$AAb?$AAe?$AAg@ 0000000140076910     LIBCMT:crt0msg.obj
 0002:00001978       ??_C@_1BO@BFCDCGC@?$AAD?$AAO?$AAM?$AAA?$AAI?$AAN?$AA?5?$AAe?$AAr?$AAr?$AAo?$AAr?$AA?$AN?$AA?6?$AA?$AA@ 0000000140076978     LIBCMT:crt0msg.obj
 0002:00001998       ??_C@_1BK@KMOMNAAI@?$AAS?$AAI?$AAN?$AAG?$AA?5?$AAe?$AAr?$AAr?$AAo?$AAr?$AA?$AN?$AA?6?$AA?$AA@ 0000000140076998     LIBCMT:crt0msg.obj
 0002:000019b8       ??_C@_1BM@JBBEPPHI@?$AAT?$AAL?$AAO?$AAS?$AAS?$AA?5?$AAe?$AAr?$AAr?$AAo?$AAr?$AA?$AN?$AA?6?$AA?$AA@ 00000001400769b8     LIBCMT:crt0msg.obj
 0002:000019d4       ??_C@_15JNBOKNOG@?$AA?$AN?$AA?6?$AA?$AA@ 00000001400769d4     LIBCMT:crt0msg.obj
 0002:000019e0       ??_C@_1BO@BKOMIGKJ@?$AAr?$AAu?$AAn?$AAt?$AAi?$AAm?$AAe?$AA?5?$AAe?$AAr?$AAr?$AAo?$AAr?$AA?5?$AA?$AA@ 00000001400769e0     LIBCMT:crt0msg.obj
 0002:00001a00       ??_C@_1DE@JNGNBFGO@?$AAR?$AAu?$AAn?$AAt?$AAi?$AAm?$AAe?$AA?5?$AAE?$AAr?$AAr?$AAo?$AAr?$AA?$CB?$AA?6?$AA?6?$AAP?$AAr?$AAo?$AAg?$AAr?$AAa?$AAm?$AA?3?$AA?5?$AA?$AA@ 0000000140076a00     LIBCMT:crt0msg.obj
 0002:00001a38       ??_C@_1CO@EAEJAADC@?$AA?$DM?$AAp?$AAr?$AAo?$AAg?$AAr?$AAa?$AAm?$AA?5?$AAn?$AAa?$AAm?$AAe?$AA?5?$AAu?$AAn?$AAk?$AAn?$AAo?$AAw?$AAn?$AA?$DO?$AA?$AA@ 0000000140076a38     LIBCMT:crt0msg.obj
 0002:00001a68       ??_C@_17LGKOMLJ@?$AA?4?$AA?4?$AA?4?$AA?$AA@ 0000000140076a68     LIBCMT:crt0msg.obj
 0002:00001a70       ??_C@_15IABLJNFO@?$AA?6?$AA?6?$AA?$AA@ 0000000140076a70     LIBCMT:crt0msg.obj
 0002:00001a80       ??_C@_1EK@MBDPDCGA@?$AAM?$AAi?$AAc?$AAr?$AAo?$AAs?$AAo?$AAf?$AAt?$AA?5?$AAV?$AAi?$AAs?$AAu?$AAa?$AAl?$AA?5?$AAC?$AA?$CL?$AA?$CL?$AA?5?$AAR?$AAu?$AAn?$AAt?$AAi?$AAm?$AAe?$AA?5?$AAL?$AAi?$AAb@ 0000000140076a80     LIBCMT:crt0msg.obj
 0002:00001ad0       _sys_errlist               0000000140076ad0     LIBCMT:syserr.obj
 0002:00001c30       ??_C@_08INEPGKHH@No?5error?$AA@ 0000000140076c30     LIBCMT:syserr.obj
 0002:00001c40       ??_C@_0BI@BJFCGOHL@Operation?5not?5permitted?$AA@ 0000000140076c40     LIBCMT:syserr.obj
 0002:00001c58       ??_C@_0BK@FMDHKPNF@No?5such?5file?5or?5directory?$AA@ 0000000140076c58     LIBCMT:syserr.obj
 0002:00001c78       ??_C@_0BA@FKIAIBGA@No?5such?5process?$AA@ 0000000140076c78     LIBCMT:syserr.obj
 0002:00001c88       ??_C@_0BK@FJBOAFDK@Interrupted?5function?5call?$AA@ 0000000140076c88     LIBCMT:syserr.obj
 0002:00001ca8       ??_C@_0BD@KKNFOBBD@Input?1output?5error?$AA@ 0000000140076ca8     LIBCMT:syserr.obj
 0002:00001cc0       ??_C@_0BK@DPKMCKJ@No?5such?5device?5or?5address?$AA@ 0000000140076cc0     LIBCMT:syserr.obj
 0002:00001ce0       ??_C@_0BC@MFFGCDFL@Arg?5list?5too?5long?$AA@ 0000000140076ce0     LIBCMT:syserr.obj
 0002:00001cf8       ??_C@_0BC@HKPNECK@Exec?5format?5error?$AA@ 0000000140076cf8     LIBCMT:syserr.obj
 0002:00001d10       ??_C@_0BE@NFGDDCEF@Bad?5file?5descriptor?$AA@ 0000000140076d10     LIBCMT:syserr.obj
 0002:00001d28       ??_C@_0BD@LOHELEP@No?5child?5processes?$AA@ 0000000140076d28     LIBCMT:syserr.obj
 0002:00001d40       ??_C@_0CB@EPFKGNAK@Resource?5temporarily?5unavailable@ 0000000140076d40     LIBCMT:syserr.obj
 0002:00001d68       ??_C@_0BB@IMDKMPFB@Not?5enough?5space?$AA@ 0000000140076d68     LIBCMT:syserr.obj
 0002:00001d80       ??_C@_0BC@HFNFNKAI@Permission?5denied?$AA@ 0000000140076d80     LIBCMT:syserr.obj
 0002:00001d98       ??_C@_0M@LOEHLCJD@Bad?5address?$AA@ 0000000140076d98     LIBCMT:syserr.obj
 0002:00001da8       ??_C@_0O@NIPGCINC@Unknown?5error?$AA@ 0000000140076da8     LIBCMT:syserr.obj
 0002:00001db8       ??_C@_0BA@BIBLIOEK@Resource?5device?$AA@ 0000000140076db8     LIBCMT:syserr.obj
 0002:00001dc8       ??_C@_0M@NAAJNNGH@File?5exists?$AA@ 0000000140076dc8     LIBCMT:syserr.obj
 0002:00001dd8       ??_C@_0O@OAMDNOCP@Improper?5link?$AA@ 0000000140076dd8     LIBCMT:syserr.obj
 0002:00001de8       ??_C@_0P@NLEIANHE@No?5such?5device?$AA@ 0000000140076de8     LIBCMT:syserr.obj
 0002:00001df8       ??_C@_0BA@CJBACOOL@Not?5a?5directory?$AA@ 0000000140076df8     LIBCMT:syserr.obj
 0002:00001e08       ??_C@_0P@NDHGCGKE@Is?5a?5directory?$AA@ 0000000140076e08     LIBCMT:syserr.obj
 0002:00001e18       ??_C@_0BB@HMGGCEBG@Invalid?5argument?$AA@ 0000000140076e18     LIBCMT:syserr.obj
 0002:00001e30       ??_C@_0BO@IIFBODJE@Too?5many?5open?5files?5in?5system?$AA@ 0000000140076e30     LIBCMT:syserr.obj
 0002:00001e50       ??_C@_0BE@INBJMKGG@Too?5many?5open?5files?$AA@ 0000000140076e50     LIBCMT:syserr.obj
 0002:00001e68       ??_C@_0CE@ONOKNLPF@Inappropriate?5I?1O?5control?5operat@ 0000000140076e68     LIBCMT:syserr.obj
 0002:00001e90       ??_C@_0P@LFMMIPAE@File?5too?5large?$AA@ 0000000140076e90     LIBCMT:syserr.obj
 0002:00001ea0       ??_C@_0BI@FEALHKLD@No?5space?5left?5on?5device?$AA@ 0000000140076ea0     LIBCMT:syserr.obj
 0002:00001eb8       ??_C@_0N@FEHLOILP@Invalid?5seek?$AA@ 0000000140076eb8     LIBCMT:syserr.obj
 0002:00001ec8       ??_C@_0BG@DDBFNKBH@Read?9only?5file?5system?$AA@ 0000000140076ec8     LIBCMT:syserr.obj
 0002:00001ee0       ??_C@_0P@PKCJJLLM@Too?5many?5links?$AA@ 0000000140076ee0     LIBCMT:syserr.obj
 0002:00001ef0       ??_C@_0M@LHEPIIOM@Broken?5pipe?$AA@ 0000000140076ef0     LIBCMT:syserr.obj
 0002:00001f00       ??_C@_0N@MMJPGLJK@Domain?5error?$AA@ 0000000140076f00     LIBCMT:syserr.obj
 0002:00001f10       ??_C@_0BB@FCBJFCAJ@Result?5too?5large?$AA@ 0000000140076f10     LIBCMT:syserr.obj
 0002:00001f28       ??_C@_0BK@JAEBMJJM@Resource?5deadlock?5avoided?$AA@ 0000000140076f28     LIBCMT:syserr.obj
 0002:00001f48       ??_C@_0BC@BEDIHIDK@Filename?5too?5long?$AA@ 0000000140076f48     LIBCMT:syserr.obj
 0002:00001f60       ??_C@_0BD@CLHBCGPB@No?5locks?5available?$AA@ 0000000140076f60     LIBCMT:syserr.obj
 0002:00001f78       ??_C@_0BJ@IHEHINLI@Function?5not?5implemented?$AA@ 0000000140076f78     LIBCMT:syserr.obj
 0002:00001f98       ??_C@_0BE@ICMCHPHH@Directory?5not?5empty?$AA@ 0000000140076f98     LIBCMT:syserr.obj
 0002:00001fb0       ??_C@_0BG@KLEAJEFJ@Illegal?5byte?5sequence?$AA@ 0000000140076fb0     LIBCMT:syserr.obj
 0002:00001fc8       ??_C@_1BK@MGMFAEKH@?$AAk?$AAe?$AAr?$AAn?$AAe?$AAl?$AA3?$AA2?$AA?4?$AAd?$AAl?$AAl?$AA?$AA@ 0000000140076fc8     LIBCMT:winapisupp.obj
 0002:00001fe8       ??_C@_08KNHFBNJ@FlsAlloc?$AA@ 0000000140076fe8     LIBCMT:winapisupp.obj
 0002:00001ff8       ??_C@_07PEJMOBNF@FlsFree?$AA@ 0000000140076ff8     LIBCMT:winapisupp.obj
 0002:00002000       ??_C@_0M@GDNOONDI@FlsGetValue?$AA@ 0000000140077000     LIBCMT:winapisupp.obj
 0002:00002010       ??_C@_0M@JCPCPOEF@FlsSetValue?$AA@ 0000000140077010     LIBCMT:winapisupp.obj
 0002:00002020       ??_C@_0BM@HCFOFFN@InitializeCriticalSectionEx?$AA@ 0000000140077020     LIBCMT:winapisupp.obj
 0002:00002040       ??_C@_0P@DLHPPCNH@CreateEventExW?$AA@ 0000000140077040     LIBCMT:winapisupp.obj
 0002:00002050       ??_C@_0BD@KIEEOEEH@CreateSemaphoreExW?$AA@ 0000000140077050     LIBCMT:winapisupp.obj
 0002:00002068       ??_C@_0BI@BKLFFAPO@SetThreadStackGuarantee?$AA@ 0000000140077068     LIBCMT:winapisupp.obj
 0002:00002080       ??_C@_0BG@OGFAJCKC@CreateThreadpoolTimer?$AA@ 0000000140077080     LIBCMT:winapisupp.obj
 0002:00002098       ??_C@_0BD@LPLEMMDI@SetThreadpoolTimer?$AA@ 0000000140077098     LIBCMT:winapisupp.obj
 0002:000020b0       ??_C@_0CA@FMNJENH@WaitForThreadpoolTimerCallbacks?$AA@ 00000001400770b0     LIBCMT:winapisupp.obj
 0002:000020d0       ??_C@_0BF@DCFCCNOC@CloseThreadpoolTimer?$AA@ 00000001400770d0     LIBCMT:winapisupp.obj
 0002:000020e8       ??_C@_0BF@FLABGKKM@CreateThreadpoolWait?$AA@ 00000001400770e8     LIBCMT:winapisupp.obj
 0002:00002100       ??_C@_0BC@MGCOHNA@SetThreadpoolWait?$AA@ 0000000140077100     LIBCMT:winapisupp.obj
 0002:00002118       ??_C@_0BE@OCIOMIMP@CloseThreadpoolWait?$AA@ 0000000140077118     LIBCMT:winapisupp.obj
 0002:00002130       ??_C@_0BJ@LKGHFHBO@FlushProcessWriteBuffers?$AA@ 0000000140077130     LIBCMT:winapisupp.obj
 0002:00002150       ??_C@_0BP@KALKKPMO@FreeLibraryWhenCallbackReturns?$AA@ 0000000140077150     LIBCMT:winapisupp.obj
 0002:00002170       ??_C@_0BK@DFNBACLA@GetCurrentProcessorNumber?$AA@ 0000000140077170     LIBCMT:winapisupp.obj
 0002:00002190       ??_C@_0BP@KHGALBC@GetLogicalProcessorInformation?$AA@ 0000000140077190     LIBCMT:winapisupp.obj
 0002:000021b0       ??_C@_0BE@FKKLLFLM@CreateSymbolicLinkW?$AA@ 00000001400771b0     LIBCMT:winapisupp.obj
 0002:000021c8       ??_C@_0BJ@OHNKDLIJ@SetDefaultDllDirectories?$AA@ 00000001400771c8     LIBCMT:winapisupp.obj
 0002:000021e8       ??_C@_0BE@LJANKFHF@EnumSystemLocalesEx?$AA@ 00000001400771e8     LIBCMT:winapisupp.obj
 0002:00002200       ??_C@_0BA@IHGNDAEB@CompareStringEx?$AA@ 0000000140077200     LIBCMT:winapisupp.obj
 0002:00002210       ??_C@_0BA@EPCJIIPD@GetDateFormatEx?$AA@ 0000000140077210     LIBCMT:winapisupp.obj
 0002:00002220       ??_C@_0BA@ONOKGCMP@GetLocaleInfoEx?$AA@ 0000000140077220     LIBCMT:winapisupp.obj
 0002:00002230       ??_C@_0BA@CIJJKCJJ@GetTimeFormatEx?$AA@ 0000000140077230     LIBCMT:winapisupp.obj
 0002:00002240       ??_C@_0BJ@PBCCBIPI@GetUserDefaultLocaleName?$AA@ 0000000140077240     LIBCMT:winapisupp.obj
 0002:00002260       ??_C@_0BC@CELBKLLA@IsValidLocaleName?$AA@ 0000000140077260     LIBCMT:winapisupp.obj
 0002:00002278       ??_C@_0O@KKBNKAPF@LCMapStringEx?$AA@ 0000000140077278     LIBCMT:winapisupp.obj
 0002:00002288       ??_C@_0BE@JOGNEJCI@GetCurrentPackageId?$AA@ 0000000140077288     LIBCMT:winapisupp.obj
 0002:000022a0       ??_C@_0P@CDHHOHKP@GetTickCount64?$AA@ 00000001400772a0     LIBCMT:winapisupp.obj
 0002:000022b0       ??_C@_0BO@KPCLFDJJ@GetFileInformationByHandleExW?$AA@ 00000001400772b0     LIBCMT:winapisupp.obj
 0002:000022d0       ??_C@_0BM@MHIDLABK@SetFileInformationByHandleW?$AA@ 00000001400772d0     LIBCMT:winapisupp.obj
 0002:000022ec       ??_C@_05KLBDPFGC@e?$CL000?$AA@ 00000001400772ec     LIBCMT:cvt.obj
 0002:000022f8       __real@0000000000000000    00000001400772f8     LIBCMT:cvt.obj
 0002:00002320       ??_C@_1M@HPNHIDJI@?$AAj?$AAa?$AA?9?$AAJ?$AAP?$AA?$AA@ 0000000140077320     LIBCMT:mbctype.obj
 0002:00002330       ??_C@_1M@BIBDDEMK@?$AAz?$AAh?$AA?9?$AAC?$AAN?$AA?$AA@ 0000000140077330     LIBCMT:mbctype.obj
 0002:00002340       ??_C@_1M@JLOOOEGK@?$AAk?$AAo?$AA?9?$AAK?$AAR?$AA?$AA@ 0000000140077340     LIBCMT:mbctype.obj
 0002:00002350       ??_C@_1M@CLNBBOPM@?$AAz?$AAh?$AA?9?$AAT?$AAW?$AA?$AA@ 0000000140077350     LIBCMT:mbctype.obj
 0002:0000235c       ??_C@_03KOEHGMDN@Sun?$AA@  000000014007735c     LIBCMT:nlsdata.obj
 0002:00002360       ??_C@_03PDAGKDH@Mon?$AA@   0000000140077360     LIBCMT:nlsdata.obj
 0002:00002364       ??_C@_03NAGEINEP@Tue?$AA@  0000000140077364     LIBCMT:nlsdata.obj
 0002:00002368       ??_C@_03MHOMLAJA@Wed?$AA@  0000000140077368     LIBCMT:nlsdata.obj
 0002:0000236c       ??_C@_03IOFIKPDN@Thu?$AA@  000000014007736c     LIBCMT:nlsdata.obj
 0002:00002370       ??_C@_03IDIOELNC@Fri?$AA@  0000000140077370     LIBCMT:nlsdata.obj
 0002:00002374       ??_C@_03FEFJNEK@Sat?$AA@   0000000140077374     LIBCMT:nlsdata.obj
 0002:00002378       ??_C@_06OOPIFAJ@Sunday?$AA@ 0000000140077378     LIBCMT:nlsdata.obj
 0002:00002380       ??_C@_06JLEDEDGH@Monday?$AA@ 0000000140077380     LIBCMT:nlsdata.obj
 0002:00002388       ??_C@_07BAAGCFCM@Tuesday?$AA@ 0000000140077388     LIBCMT:nlsdata.obj
 0002:00002390       ??_C@_09DLIGFAKA@Wednesday?$AA@ 0000000140077390     LIBCMT:nlsdata.obj
 0002:000023a0       ??_C@_08HACCIKIA@Thursday?$AA@ 00000001400773a0     LIBCMT:nlsdata.obj
 0002:000023ac       ??_C@_06JECMNKMI@Friday?$AA@ 00000001400773ac     LIBCMT:nlsdata.obj
 0002:000023b8       ??_C@_08INBOOONO@Saturday?$AA@ 00000001400773b8     LIBCMT:nlsdata.obj
 0002:000023c4       ??_C@_03JIHJHPIE@Jan?$AA@  00000001400773c4     LIBCMT:nlsdata.obj
 0002:000023c8       ??_C@_03HJBDCHOM@Feb?$AA@  00000001400773c8     LIBCMT:nlsdata.obj
 0002:000023cc       ??_C@_03ODNJBKGA@Mar?$AA@  00000001400773cc     LIBCMT:nlsdata.obj
 0002:000023d0       ??_C@_03LEOLGMJP@Apr?$AA@  00000001400773d0     LIBCMT:nlsdata.obj
 0002:000023d4       ??_C@_03CNMDKL@May?$AA@    00000001400773d4     LIBCMT:nlsdata.obj
 0002:000023d8       ??_C@_03IDFGHECI@Jun?$AA@  00000001400773d8     LIBCMT:nlsdata.obj
 0002:000023dc       ??_C@_03LBGABGKK@Jul?$AA@  00000001400773dc     LIBCMT:nlsdata.obj
 0002:000023e0       ??_C@_03IFJFEIGA@Aug?$AA@  00000001400773e0     LIBCMT:nlsdata.obj
 0002:000023e4       ??_C@_03GGCAPAJC@Sep?$AA@  00000001400773e4     LIBCMT:nlsdata.obj
 0002:000023e8       ??_C@_03BMAOKBAD@Oct?$AA@  00000001400773e8     LIBCMT:nlsdata.obj
 0002:000023ec       ??_C@_03JPJOFNIA@Nov?$AA@  00000001400773ec     LIBCMT:nlsdata.obj
 0002:000023f0       ??_C@_03MKABNOCG@Dec?$AA@  00000001400773f0     LIBCMT:nlsdata.obj
 0002:000023f8       ??_C@_07CGJPFGJA@January?$AA@ 00000001400773f8     LIBCMT:nlsdata.obj
 0002:00002400       ??_C@_08GNJGEPFN@February?$AA@ 0000000140077400     LIBCMT:nlsdata.obj
 0002:0000240c       ??_C@_05HPCKOFNC@March?$AA@ 000000014007740c     LIBCMT:nlsdata.obj
 0002:00002414       ??_C@_05DMJDNLEJ@April?$AA@ 0000000140077414     LIBCMT:nlsdata.obj
 0002:0000241c       ??_C@_04CNLMGBGM@June?$AA@ 000000014007741c     LIBCMT:nlsdata.obj
 0002:00002424       ??_C@_04MIEPOIFP@July?$AA@ 0000000140077424     LIBCMT:nlsdata.obj
 0002:0000242c       ??_C@_06LBBHFDDG@August?$AA@ 000000014007742c     LIBCMT:nlsdata.obj
 0002:00002438       ??_C@_09BHHEALKD@September?$AA@ 0000000140077438     LIBCMT:nlsdata.obj
 0002:00002448       ??_C@_07JJNFCEND@October?$AA@ 0000000140077448     LIBCMT:nlsdata.obj
 0002:00002450       ??_C@_08HCHEGEOA@November?$AA@ 0000000140077450     LIBCMT:nlsdata.obj
 0002:00002460       ??_C@_08EDHMEBNP@December?$AA@ 0000000140077460     LIBCMT:nlsdata.obj
 0002:0000246c       ??_C@_02DEDBPAFC@AM?$AA@   000000014007746c     LIBCMT:nlsdata.obj
 0002:00002470       ??_C@_02CJNFDJBF@PM?$AA@   0000000140077470     LIBCMT:nlsdata.obj
 0002:00002478       ??_C@_08BPBNCDIB@MM?1dd?1yy?$AA@ 0000000140077478     LIBCMT:nlsdata.obj
 0002:00002488       ??_C@_0BE@CKGJFCPC@dddd?0?5MMMM?5dd?0?5yyyy?$AA@ 0000000140077488     LIBCMT:nlsdata.obj
 0002:000024a0       ??_C@_08JCCMCCIL@HH?3mm?3ss?$AA@ 00000001400774a0     LIBCMT:nlsdata.obj
 0002:000024b0       ??_C@_17MBGCMIPB@?$AAS?$AAu?$AAn?$AA?$AA@ 00000001400774b0     LIBCMT:nlsdata.obj
 0002:000024b8       ??_C@_17KBOMKBF@?$AAM?$AAo?$AAn?$AA?$AA@ 00000001400774b8     LIBCMT:nlsdata.obj
 0002:000024c0       ??_C@_17BMKGEGOJ@?$AAT?$AAu?$AAe?$AA?$AA@ 00000001400774c0     LIBCMT:nlsdata.obj
 0002:000024c8       ??_C@_17CJEDCEPE@?$AAW?$AAe?$AAd?$AA?$AA@ 00000001400774c8     LIBCMT:nlsdata.obj
 0002:000024d0       ??_C@_17PDPHAADD@?$AAT?$AAh?$AAu?$AA?$AA@ 00000001400774d0     LIBCMT:nlsdata.obj
 0002:000024d8       ??_C@_17HFOLPPLP@?$AAF?$AAr?$AAi?$AA?$AA@ 00000001400774d8     LIBCMT:nlsdata.obj
 0002:000024e0       ??_C@_17GGIBDPIH@?$AAS?$AAa?$AAt?$AA?$AA@ 00000001400774e0     LIBCMT:nlsdata.obj
 0002:000024e8       ??_C@_1O@IHNHDHPB@?$AAS?$AAu?$AAn?$AAd?$AAa?$AAy?$AA?$AA@ 00000001400774e8     LIBCMT:nlsdata.obj
 0002:000024f8       ??_C@_1O@MMNBFLIA@?$AAM?$AAo?$AAn?$AAd?$AAa?$AAy?$AA?$AA@ 00000001400774f8     LIBCMT:nlsdata.obj
 0002:00002508       ??_C@_1BA@ENFBFFEK@?$AAT?$AAu?$AAe?$AAs?$AAd?$AAa?$AAy?$AA?$AA@ 0000000140077508     LIBCMT:nlsdata.obj
 0002:00002518       ??_C@_1BE@EBOGMDOH@?$AAW?$AAe?$AAd?$AAn?$AAe?$AAs?$AAd?$AAa?$AAy?$AA?$AA@ 0000000140077518     LIBCMT:nlsdata.obj
 0002:00002530       ??_C@_1BC@HHMNLIHE@?$AAT?$AAh?$AAu?$AAr?$AAs?$AAd?$AAa?$AAy?$AA?$AA@ 0000000140077530     LIBCMT:nlsdata.obj
 0002:00002548       ??_C@_1O@PDICJHAG@?$AAF?$AAr?$AAi?$AAd?$AAa?$AAy?$AA?$AA@ 0000000140077548     LIBCMT:nlsdata.obj
 0002:00002558       ??_C@_1BC@ENMNNPAJ@?$AAS?$AAa?$AAt?$AAu?$AAr?$AAd?$AAa?$AAy?$AA?$AA@ 0000000140077558     LIBCMT:nlsdata.obj
 0002:00002570       ??_C@_17DKNBKCHM@?$AAJ?$AAa?$AAn?$AA?$AA@ 0000000140077570     LIBCMT:nlsdata.obj
 0002:00002578       ??_C@_17LMDJEKJN@?$AAF?$AAe?$AAb?$AA?$AA@ 0000000140077578     LIBCMT:nlsdata.obj
 0002:00002580       ??_C@_17CKNLEDEC@?$AAM?$AAa?$AAr?$AA?$AA@ 0000000140077580     LIBCMT:nlsdata.obj
 0002:00002588       ??_C@_17LFPOIHDD@?$AAA?$AAp?$AAr?$AA?$AA@ 0000000140077588     LIBCMT:nlsdata.obj
 0002:00002590       ??_C@_17PNNKMEED@?$AAM?$AAa?$AAy?$AA?$AA@ 0000000140077590     LIBCMT:nlsdata.obj
 0002:00002598       ??_C@_17KCJGOCPB@?$AAJ?$AAu?$AAn?$AA?$AA@ 0000000140077598     LIBCMT:nlsdata.obj
 0002:000025a0       ??_C@_17IJPCKHK@?$AAJ?$AAu?$AAl?$AA?$AA@ 00000001400775a0     LIBCMT:nlsdata.obj
 0002:000025a8       ??_C@_17ICPELBCN@?$AAA?$AAu?$AAg?$AA?$AA@ 00000001400775a8     LIBCMT:nlsdata.obj
 0002:000025b0       ??_C@_17HCHCOKMG@?$AAS?$AAe?$AAp?$AA?$AA@ 00000001400775b0     LIBCMT:nlsdata.obj
 0002:000025b8       ??_C@_17FNLKOI@?$AAO?$AAc?$AAt?$AA?$AA@ 00000001400775b8     LIBCMT:nlsdata.obj
 0002:000025c0       ??_C@_17BBDMLCIG@?$AAN?$AAo?$AAv?$AA?$AA@ 00000001400775c0     LIBCMT:nlsdata.obj
 0002:000025c8       ??_C@_17EGKACKIF@?$AAD?$AAe?$AAc?$AA?$AA@ 00000001400775c8     LIBCMT:nlsdata.obj
 0002:000025d0       ??_C@_1BA@EFMEIEBA@?$AAJ?$AAa?$AAn?$AAu?$AAa?$AAr?$AAy?$AA?$AA@ 00000001400775d0     LIBCMT:nlsdata.obj
 0002:000025e0       ??_C@_1BC@JGDDFFAM@?$AAF?$AAe?$AAb?$AAr?$AAu?$AAa?$AAr?$AAy?$AA?$AA@ 00000001400775e0     LIBCMT:nlsdata.obj
 0002:000025f8       ??_C@_1M@IKEENEDF@?$AAM?$AAa?$AAr?$AAc?$AAh?$AA?$AA@ 00000001400775f8     LIBCMT:nlsdata.obj
 0002:00002608       ??_C@_1M@GJNLMHFD@?$AAA?$AAp?$AAr?$AAi?$AAl?$AA?$AA@ 0000000140077608     LIBCMT:nlsdata.obj
 0002:00002618       ??_C@_19EPFLPGAP@?$AAJ?$AAu?$AAn?$AAe?$AA?$AA@ 0000000140077618     LIBCMT:nlsdata.obj
 0002:00002628       ??_C@_19BIFMLPCD@?$AAJ?$AAu?$AAl?$AAy?$AA?$AA@ 0000000140077628     LIBCMT:nlsdata.obj
 0002:00002638       ??_C@_1O@PAHLKOAC@?$AAA?$AAu?$AAg?$AAu?$AAs?$AAt?$AA?$AA@ 0000000140077638     LIBCMT:nlsdata.obj
 0002:00002648       ??_C@_1BE@DKAAMBJL@?$AAS?$AAe?$AAp?$AAt?$AAe?$AAm?$AAb?$AAe?$AAr?$AA?$AA@ 0000000140077648     LIBCMT:nlsdata.obj
 0002:00002660       ??_C@_1BA@EPANDLNG@?$AAO?$AAc?$AAt?$AAo?$AAb?$AAe?$AAr?$AA?$AA@ 0000000140077660     LIBCMT:nlsdata.obj
 0002:00002670       ??_C@_1BC@BGLIFPF@?$AAN?$AAo?$AAv?$AAe?$AAm?$AAb?$AAe?$AAr?$AA?$AA@ 0000000140077670     LIBCMT:nlsdata.obj
 0002:00002688       ??_C@_1BC@FEMKIFH@?$AAD?$AAe?$AAc?$AAe?$AAm?$AAb?$AAe?$AAr?$AA?$AA@ 0000000140077688     LIBCMT:nlsdata.obj
 0002:0000269c       ??_C@_15ODEHAHHF@?$AAA?$AAM?$AA?$AA@ 000000014007769c     LIBCMT:nlsdata.obj
 0002:000026a4       ??_C@_15CLMNNGEL@?$AAP?$AAM?$AA?$AA@ 00000001400776a4     LIBCMT:nlsdata.obj
 0002:000026b0       ??_C@_1BC@IEBCMHCM@?$AAM?$AAM?$AA?1?$AAd?$AAd?$AA?1?$AAy?$AAy?$AA?$AA@ 00000001400776b0     LIBCMT:nlsdata.obj
 0002:000026c8       ??_C@_1CI@KNAKOEBC@?$AAd?$AAd?$AAd?$AAd?$AA?0?$AA?5?$AAM?$AAM?$AAM?$AAM?$AA?5?$AAd?$AAd?$AA?0?$AA?5?$AAy?$AAy?$AAy?$AAy?$AA?$AA@ 00000001400776c8     LIBCMT:nlsdata.obj
 0002:000026f0       ??_C@_1BC@GDGBMEMK@?$AAH?$AAH?$AA?3?$AAm?$AAm?$AA?3?$AAs?$AAs?$AA?$AA@ 00000001400776f0     LIBCMT:nlsdata.obj
 0002:00002708       ??_C@_1M@BMHNFIME@?$AAe?$AAn?$AA?9?$AAU?$AAS?$AA?$AA@ 0000000140077708     LIBCMT:nlsdata.obj
 0002:00002720       __lookuptable_s            0000000140077720     LIBCMT:outputs.obj
 0002:00002780       ??_C@_1BK@GAEMIDIL@?$AAA?$AAD?$AAV?$AAA?$AAP?$AAI?$AA3?$AA2?$AA?4?$AAD?$AAL?$AAL?$AA?$AA@ 0000000140077780     LIBCMT:rand_s.obj
 0002:000027a0       ??_C@_0BC@JEAENNKH@SystemFunction036?$AA@ 00000001400777a0     LIBCMT:rand_s.obj
 0002:000027b8       ??_C@_1BG@GOEBHBDC@?$AAU?$AAS?$AAE?$AAR?$AA3?$AA2?$AA?4?$AAD?$AAL?$AAL?$AA?$AA@ 00000001400777b8     LIBCMT:crtmboxw.obj
 0002:000027d0       ??_C@_0M@DLDCCGNP@MessageBoxW?$AA@ 00000001400777d0     LIBCMT:crtmboxw.obj
 0002:000027e0       ??_C@_0BA@HNOPNCHB@GetActiveWindow?$AA@ 00000001400777e0     LIBCMT:crtmboxw.obj
 0002:000027f0       ??_C@_0BD@HHGDFDBJ@GetLastActivePopup?$AA@ 00000001400777f0     LIBCMT:crtmboxw.obj
 0002:00002808       ??_C@_0BK@DEKFELLI@GetUserObjectInformationW?$AA@ 0000000140077808     LIBCMT:crtmboxw.obj
 0002:00002828       ??_C@_0BI@DFKBFLJE@GetProcessWindowStation?$AA@ 0000000140077828     LIBCMT:crtmboxw.obj
 0002:00002840       __lc_category              0000000140077840     LIBCMT:wsetloca.obj
 0002:000028d0       ??_C@_1O@GIFLHMA@?$AAL?$AAC?$AA_?$AAA?$AAL?$AAL?$AA?$AA@ 00000001400778d0     LIBCMT:wsetloca.obj
 0002:000028e0       ??_C@_1BG@PPOMIBNJ@?$AAL?$AAC?$AA_?$AAC?$AAO?$AAL?$AAL?$AAA?$AAT?$AAE?$AA?$AA@ 00000001400778e0     LIBCMT:wsetloca.obj
 0002:000028f8       ??_C@_1BC@FFJGAPJM@?$AAL?$AAC?$AA_?$AAC?$AAT?$AAY?$AAP?$AAE?$AA?$AA@ 00000001400778f8     LIBCMT:wsetloca.obj
 0002:00002910       ??_C@_1BI@PCKFNJFB@?$AAL?$AAC?$AA_?$AAM?$AAO?$AAN?$AAE?$AAT?$AAA?$AAR?$AAY?$AA?$AA@ 0000000140077910     LIBCMT:wsetloca.obj
 0002:00002928       ??_C@_1BG@ENIEDKID@?$AAL?$AAC?$AA_?$AAN?$AAU?$AAM?$AAE?$AAR?$AAI?$AAC?$AA?$AA@ 0000000140077928     LIBCMT:wsetloca.obj
 0002:00002940       ??_C@_1BA@HAAOMIIG@?$AAL?$AAC?$AA_?$AAT?$AAI?$AAM?$AAE?$AA?$AA@ 0000000140077940     LIBCMT:wsetloca.obj
 0002:000029d0       ??_C@_15NBPDDFIP@?$AA?$DN?$AA?$DL?$AA?$AA@ 00000001400779d0     LIBCMT:wsetloca.obj
 0002:000029d8       ??_C@_13PJJBFPED@?$AA?$DL?$AA?$AA@ 00000001400779d8     LIBCMT:wsetloca.obj
 0002:000029dc       ??_C@_13NMPKAAJP@?$AA?$DN?$AA?$AA@ 00000001400779dc     LIBCMT:wsetloca.obj
 0002:000029e0       ??_C@_13FHBKNHDA@?$AAC?$AA?$AA@ 00000001400779e0     LIBCMT:wsetloca.obj
 0002:000029e8       ??_C@_17MBJJLFDM@?$AA_?$AA?4?$AA?0?$AA?$AA@ 00000001400779e8     LIBCMT:wsetloca.obj
 0002:000029f0       ??_C@_13ENNFDPBH@?$AA_?$AA?$AA@ 00000001400779f0     LIBCMT:wsetloca.obj
 0002:000029f4       ??_C@_13JOFGPIOO@?$AA?4?$AA?$AA@ 00000001400779f4     LIBCMT:wsetloca.obj
 0002:00002a10       __newctype                 0000000140077a10     LIBCMT:ctype.obj
 0002:00002d10       _wctype                    0000000140077d10     LIBCMT:ctype.obj
 0002:00002f20       __newclmap                 0000000140077f20     LIBCMT:ctype.obj
 0002:000030a0       __newcumap                 00000001400780a0     LIBCMT:ctype.obj
 0002:00003220       LcidToLocaleNameTable      0000000140078220     LIBCMT:winapinls.obj
 0002:00004060       LocaleNameToIndexTable     0000000140079060     LIBCMT:winapinls.obj
 0002:00004ea0       ??_C@_15EMKDOKLE@?$AAa?$AAr?$AA?$AA@ 0000000140079ea0     LIBCMT:winapinls.obj
 0002:00004ea8       ??_C@_15KNPADPLH@?$AAb?$AAg?$AA?$AA@ 0000000140079ea8     LIBCMT:winapinls.obj
 0002:00004eb0       ??_C@_15EDMHLDMO@?$AAc?$AAa?$AA?$AA@ 0000000140079eb0     LIBCMT:winapinls.obj
 0002:00004eb8       ??_C@_1O@BPEAJADD@?$AAz?$AAh?$AA?9?$AAC?$AAH?$AAS?$AA?$AA@ 0000000140079eb8     LIBCMT:winapinls.obj
 0002:00004ec8       ??_C@_15LJNHCMNK@?$AAc?$AAs?$AA?$AA@ 0000000140079ec8     LIBCMT:winapinls.obj
 0002:00004ed0       ??_C@_15FOMCIDHG@?$AAd?$AAa?$AA?$AA@ 0000000140079ed0     LIBCMT:winapinls.obj
 0002:00004ed8       ??_C@_15NBKABECB@?$AAd?$AAe?$AA?$AA@ 0000000140079ed8     LIBCMT:winapinls.obj
 0002:00004ee0       ??_C@_15GHPEIIAO@?$AAe?$AAl?$AA?$AA@ 0000000140079ee0     LIBCMT:winapinls.obj
 0002:00004ee8       ??_C@_15MNPNEAIF@?$AAe?$AAn?$AA?$AA@ 0000000140079ee8     LIBCMT:winapinls.obj
 0002:00004ef0       ??_C@_15GPIOMPMH@?$AAe?$AAs?$AA?$AA@ 0000000140079ef0     LIBCMT:winapinls.obj
 0002:00004ef8       ??_C@_15NGLOAKJC@?$AAf?$AAi?$AA?$AA@ 0000000140079ef8     LIBCMT:winapinls.obj
 0002:00004f00       ??_C@_15FBKGNKAM@?$AAf?$AAr?$AA?$AA@ 0000000140079f00     LIBCMT:winapinls.obj
 0002:00004f08       ??_C@_15KGGCNEFK@?$AAh?$AAe?$AA?$AA@ 0000000140079f08     LIBCMT:winapinls.obj
 0002:00004f10       ??_C@_15PGHLIDMF@?$AAh?$AAu?$AA?$AA@ 0000000140079f10     LIBCMT:winapinls.obj
 0002:00004f18       ??_C@_15BIEMAPLM@?$AAi?$AAs?$AA?$AA@ 0000000140079f18     LIBCMT:winapinls.obj
 0002:00004f20       ??_C@_15IFJLDHAF@?$AAi?$AAt?$AA?$AA@ 0000000140079f20     LIBCMT:winapinls.obj
 0002:00004f28       ??_C@_15GEMIOCAG@?$AAj?$AAa?$AA?$AA@ 0000000140079f28     LIBCMT:winapinls.obj
 0002:00004f30       ??_C@_15EPELEGJA@?$AAk?$AAo?$AA?$AA@ 0000000140079f30     LIBCMT:winapinls.obj
 0002:00004f38       ??_C@_15NDDHIMN@?$AAn?$AAl?$AA?$AA@ 0000000140079f38     LIBCMT:winapinls.obj
 0002:00004f40       ??_C@_15BPIGNHCD@?$AAn?$AAo?$AA?$AA@ 0000000140079f40     LIBCMT:winapinls.obj
 0002:00004f48       ??_C@_15DEOPBLCG@?$AAp?$AAl?$AA?$AA@ 0000000140079f48     LIBCMT:winapinls.obj
 0002:00004f50       ??_C@_15KBECGEFG@?$AAp?$AAt?$AA?$AA@ 0000000140079f50     LIBCMT:winapinls.obj
 0002:00004f58       ??_C@_15GLJCBFMD@?$AAr?$AAo?$AA?$AA@ 0000000140079f58     LIBCMT:winapinls.obj
 0002:00004f60       ??_C@_15FEDGKCDI@?$AAr?$AAu?$AA?$AA@ 0000000140079f60     LIBCMT:winapinls.obj
 0002:00004f68       ??_C@_15GLKMLLHM@?$AAh?$AAr?$AA?$AA@ 0000000140079f68     LIBCMT:winapinls.obj
 0002:00004f70       ??_C@_15CPKMFBDB@?$AAs?$AAk?$AA?$AA@ 0000000140079f70     LIBCMT:winapinls.obj
 0002:00004f78       ??_C@_15BAAIOGMK@?$AAs?$AAq?$AA?$AA@ 0000000140079f78     LIBCMT:winapinls.obj
 0002:00004f80       ??_C@_15INNPNOHD@?$AAs?$AAv?$AA?$AA@ 0000000140079f80     LIBCMT:winapinls.obj
 0002:00004f88       ??_C@_15CABMMOGH@?$AAt?$AAh?$AA?$AA@ 0000000140079f88     LIBCMT:winapinls.obj
 0002:00004f90       ??_C@_15BPLIHJJM@?$AAt?$AAr?$AA?$AA@ 0000000140079f90     LIBCMT:winapinls.obj
 0002:00004f98       ??_C@_15NEOEKKDJ@?$AAu?$AAr?$AA?$AA@ 0000000140079f98     LIBCMT:winapinls.obj
 0002:00004fa0       ??_C@_15NFICGAJK@?$AAi?$AAd?$AA?$AA@ 0000000140079fa0     LIBCMT:winapinls.obj
 0002:00004fa8       ??_C@_15PJPFLCCM@?$AAu?$AAk?$AA?$AA@ 0000000140079fa8     LIBCMT:winapinls.obj
 0002:00004fb0       ??_C@_15HPJPHDM@?$AAb?$AAe?$AA?$AA@ 0000000140079fb0     LIBCMT:winapinls.obj
 0002:00004fb8       ??_C@_15LCHLGJII@?$AAs?$AAl?$AA?$AA@ 0000000140079fb8     LIBCMT:winapinls.obj
 0002:00004fc0       ??_C@_15PCFJPHHO@?$AAe?$AAt?$AA?$AA@ 0000000140079fc0     LIBCMT:winapinls.obj
 0002:00004fc8       ??_C@_15HPFPGODN@?$AAl?$AAv?$AA?$AA@ 0000000140079fc8     LIBCMT:winapinls.obj
 0002:00004fd0       ??_C@_15NFFGKGLG@?$AAl?$AAt?$AA?$AA@ 0000000140079fd0     LIBCMT:winapinls.obj
 0002:00004fd8       ??_C@_15BDAKCCHN@?$AAf?$AAa?$AA?$AA@ 0000000140079fd8     LIBCMT:winapinls.obj
 0002:00004fe0       ??_C@_15NFGIAIAJ@?$AAv?$AAi?$AA?$AA@ 0000000140079fe0     LIBCMT:winapinls.obj
 0002:00004fe8       ??_C@_15LMKNDMHN@?$AAh?$AAy?$AA?$AA@ 0000000140079fe8     LIBCMT:winapinls.obj
 0002:00004ff0       ??_C@_15IJBHMCFL@?$AAa?$AAz?$AA?$AA@ 0000000140079ff0     LIBCMT:winapinls.obj
 0002:00004ff8       ??_C@_15EKOFJABL@?$AAe?$AAu?$AA?$AA@ 0000000140079ff8     LIBCMT:winapinls.obj
 0002:00005000       ??_C@_15BGHADCNK@?$AAm?$AAk?$AA?$AA@ 000000014007a000     LIBCMT:winapinls.obj
 0002:00005008       ??_C@_15JDNICKHM@?$AAa?$AAf?$AA?$AA@ 000000014007a008     LIBCMT:winapinls.obj
 0002:00005010       ??_C@_15KPJEDBKD@?$AAk?$AAa?$AA?$AA@ 000000014007a010     LIBCMT:winapinls.obj
 0002:00005018       ??_C@_15PDNFFFEO@?$AAf?$AAo?$AA?$AA@ 000000014007a018     LIBCMT:winapinls.obj
 0002:00005020       ??_C@_15OMLEGLOC@?$AAh?$AAi?$AA?$AA@ 000000014007a020     LIBCMT:winapinls.obj
 0002:00005028       ??_C@_15IDNNENKK@?$AAm?$AAs?$AA?$AA@ 000000014007a028     LIBCMT:winapinls.obj
 0002:00005030       ??_C@_15MACJNBMH@?$AAk?$AAk?$AA?$AA@ 000000014007a030     LIBCMT:winapinls.obj
 0002:00005038       ??_C@_15DKDJEOND@?$AAk?$AAy?$AA?$AA@ 000000014007a038     LIBCMT:winapinls.obj
 0002:00005040       ??_C@_15DFGDLJBG@?$AAs?$AAw?$AA?$AA@ 000000014007a040     LIBCMT:winapinls.obj
 0002:00005048       ??_C@_15BBFAICNG@?$AAu?$AAz?$AA?$AA@ 000000014007a048     LIBCMT:winapinls.obj
 0002:00005050       ??_C@_15DKNDCGEA@?$AAt?$AAt?$AA?$AA@ 000000014007a050     LIBCMT:winapinls.obj
 0002:00005058       ??_C@_15MGIFMDPL@?$AAp?$AAa?$AA?$AA@ 000000014007a058     LIBCMT:winapinls.obj
 0002:00005060       ??_C@_15HCNDBBA@?$AAg?$AAu?$AA?$AA@ 000000014007a060     LIBCMT:winapinls.obj
 0002:00005068       ??_C@_15FNBEIBON@?$AAt?$AAa?$AA?$AA@ 000000014007a068     LIBCMT:winapinls.obj
 0002:00005070       ??_C@_15NCHGBGLK@?$AAt?$AAe?$AA?$AA@ 000000014007a070     LIBCMT:winapinls.obj
 0002:00005078       ??_C@_15PHPHCBPF@?$AAk?$AAn?$AA?$AA@ 000000014007a078     LIBCMT:winapinls.obj
 0002:00005080       ??_C@_15DLGBCKMP@?$AAm?$AAr?$AA?$AA@ 000000014007a080     LIBCMT:winapinls.obj
 0002:00005088       ??_C@_15EABBLBFF@?$AAs?$AAa?$AA?$AA@ 000000014007a088     LIBCMT:winapinls.obj
 0002:00005090       ??_C@_15CBKOMCOI@?$AAm?$AAn?$AA?$AA@ 000000014007a090     LIBCMT:winapinls.obj
 0002:00005098       ??_C@_15CKDMCJAF@?$AAg?$AAl?$AA?$AA@ 000000014007a098     LIBCMT:winapinls.obj
 0002:000050a0       ??_C@_17CNJFBPG@?$AAk?$AAo?$AAk?$AA?$AA@ 000000014007a0a0     LIBCMT:winapinls.obj
 0002:000050a8       ??_C@_17FFBJICPL@?$AAs?$AAy?$AAr?$AA?$AA@ 000000014007a0a8     LIBCMT:winapinls.obj
 0002:000050b0       ??_C@_17KPNDCPAF@?$AAd?$AAi?$AAv?$AA?$AA@ 000000014007a0b0     LIBCMT:winapinls.obj
 0002:000050b8       ??_C@_11LOCGONAA@?$AA?$AA@ 000000014007a0b8     LIBCMT:winapinls.obj
 0002:000050c0       ??_C@_1M@OKAHONE@?$AAa?$AAr?$AA?9?$AAS?$AAA?$AA?$AA@ 000000014007a0c0     LIBCMT:winapinls.obj
 0002:000050d0       ??_C@_1M@FFFIGIGK@?$AAb?$AAg?$AA?9?$AAB?$AAG?$AA?$AA@ 000000014007a0d0     LIBCMT:winapinls.obj
 0002:000050e0       ??_C@_1M@BJNKEDC@?$AAc?$AAa?$AA?9?$AAE?$AAS?$AA?$AA@ 000000014007a0e0     LIBCMT:winapinls.obj
 0002:000050f0       ??_C@_1M@IJJHFJHA@?$AAc?$AAs?$AA?9?$AAC?$AAZ?$AA?$AA@ 000000014007a0f0     LIBCMT:winapinls.obj
 0002:00005100       ??_C@_1M@CLPEOBGI@?$AAd?$AAa?$AA?9?$AAD?$AAK?$AA?$AA@ 000000014007a100     LIBCMT:winapinls.obj
 0002:00005110       ??_C@_1M@MCMADGCB@?$AAd?$AAe?$AA?9?$AAD?$AAE?$AA?$AA@ 000000014007a110     LIBCMT:winapinls.obj
 0002:00005120       ??_C@_1M@OOCKEMAM@?$AAe?$AAl?$AA?9?$AAG?$AAR?$AA?$AA@ 000000014007a120     LIBCMT:winapinls.obj
 0002:00005130       ??_C@_1M@DDNJFGID@?$AAf?$AAi?$AA?9?$AAF?$AAI?$AA?$AA@ 000000014007a130     LIBCMT:winapinls.obj
 0002:00005140       ??_C@_1M@GLIPPMAC@?$AAf?$AAr?$AA?9?$AAF?$AAR?$AA?$AA@ 000000014007a140     LIBCMT:winapinls.obj
 0002:00005150       ??_C@_1M@GFMCHPE@?$AAh?$AAe?$AA?9?$AAI?$AAL?$AA?$AA@ 000000014007a150     LIBCMT:winapinls.obj
 0002:00005160       ??_C@_1M@MHLPGNKM@?$AAh?$AAu?$AA?9?$AAH?$AAU?$AA?$AA@ 000000014007a160     LIBCMT:winapinls.obj
 0002:00005170       ??_C@_1M@LPDDNNPN@?$AAi?$AAs?$AA?9?$AAI?$AAS?$AA?$AA@ 000000014007a170     LIBCMT:winapinls.obj
 0002:00005180       ??_C@_1M@MADIPODN@?$AAi?$AAt?$AA?9?$AAI?$AAT?$AA?$AA@ 000000014007a180     LIBCMT:winapinls.obj
 0002:00005190       ??_C@_1M@IHBJJGG@?$AAn?$AAl?$AA?9?$AAN?$AAL?$AA?$AA@ 000000014007a190     LIBCMT:winapinls.obj
 0002:000051a0       ??_C@_1M@EANAGDL@?$AAn?$AAb?$AA?9?$AAN?$AAO?$AA?$AA@ 000000014007a1a0     LIBCMT:winapinls.obj
 0002:000051b0       ??_C@_1M@NEIEMEGP@?$AAp?$AAl?$AA?9?$AAP?$AAL?$AA?$AA@ 000000014007a1b0     LIBCMT:winapinls.obj
 0002:000051c0       ??_C@_1M@BOCFIGEP@?$AAp?$AAt?$AA?9?$AAB?$AAR?$AA?$AA@ 000000014007a1c0     LIBCMT:winapinls.obj
 0002:000051d0       ??_C@_1M@IMPFOPBG@?$AAr?$AAo?$AA?9?$AAR?$AAO?$AA?$AA@ 000000014007a1d0     LIBCMT:winapinls.obj
 0002:000051e0       ??_C@_1M@IDNNEJMM@?$AAr?$AAu?$AA?9?$AAR?$AAU?$AA?$AA@ 000000014007a1e0     LIBCMT:winapinls.obj
 0002:000051f0       ??_C@_1M@LILEEOGM@?$AAh?$AAr?$AA?9?$AAH?$AAR?$AA?$AA@ 000000014007a1f0     LIBCMT:winapinls.obj
 0002:00005200       ??_C@_1M@FKIFEHPB@?$AAs?$AAk?$AA?9?$AAS?$AAK?$AA?$AA@ 000000014007a200     LIBCMT:winapinls.obj
 0002:00005210       ??_C@_1M@LJMAMNPJ@?$AAs?$AAq?$AA?9?$AAA?$AAL?$AA?$AA@ 000000014007a210     LIBCMT:winapinls.obj
 0002:00005220       ??_C@_1M@GIAKDKJK@?$AAs?$AAv?$AA?9?$AAS?$AAE?$AA?$AA@ 000000014007a220     LIBCMT:winapinls.obj
 0002:00005230       ??_C@_1M@MKJKIKCL@?$AAt?$AAh?$AA?9?$AAT?$AAH?$AA?$AA@ 000000014007a230     LIBCMT:winapinls.obj
 0002:00005240       ??_C@_1M@MFLCCMPB@?$AAt?$AAr?$AA?9?$AAT?$AAR?$AA?$AA@ 000000014007a240     LIBCMT:winapinls.obj
 0002:00005250       ??_C@_1M@OIJHDKJN@?$AAu?$AAr?$AA?9?$AAP?$AAK?$AA?$AA@ 000000014007a250     LIBCMT:winapinls.obj
 0002:00005260       ??_C@_1M@LHIPCIEK@?$AAi?$AAd?$AA?9?$AAI?$AAD?$AA?$AA@ 000000014007a260     LIBCMT:winapinls.obj
 0002:00005270       ??_C@_1M@MFMOBGI@?$AAu?$AAk?$AA?9?$AAU?$AAA?$AA?$AA@ 000000014007a270     LIBCMT:winapinls.obj
 0002:00005280       ??_C@_1M@OBGLJIPL@?$AAb?$AAe?$AA?9?$AAB?$AAY?$AA?$AA@ 000000014007a280     LIBCMT:winapinls.obj
 0002:00005290       ??_C@_1M@BCFAJEAD@?$AAs?$AAl?$AA?9?$AAS?$AAI?$AA?$AA@ 000000014007a290     LIBCMT:winapinls.obj
 0002:000052a0       ??_C@_1M@FKFFEDDN@?$AAe?$AAt?$AA?9?$AAE?$AAE?$AA?$AA@ 000000014007a2a0     LIBCMT:winapinls.obj
 0002:000052b0       ??_C@_1M@KGKKAACI@?$AAl?$AAv?$AA?9?$AAL?$AAV?$AA?$AA@ 000000014007a2b0     LIBCMT:winapinls.obj
 0002:000052c0       ??_C@_1M@IFGBIJO@?$AAl?$AAt?$AA?9?$AAL?$AAT?$AA?$AA@ 000000014007a2c0     LIBCMT:winapinls.obj
 0002:000052d0       ??_C@_1M@FGEAHEDM@?$AAf?$AAa?$AA?9?$AAI?$AAR?$AA?$AA@ 000000014007a2d0     LIBCMT:winapinls.obj
 0002:000052e0       ??_C@_1M@KBMAIBFN@?$AAv?$AAi?$AA?9?$AAV?$AAN?$AA?$AA@ 000000014007a2e0     LIBCMT:winapinls.obj
 0002:000052f0       ??_C@_1M@GPCBKDJK@?$AAh?$AAy?$AA?9?$AAA?$AAM?$AA?$AA@ 000000014007a2f0     LIBCMT:winapinls.obj
 0002:00005300       ??_C@_1BG@BECMDDJB@?$AAa?$AAz?$AA?9?$AAA?$AAZ?$AA?9?$AAL?$AAa?$AAt?$AAn?$AA?$AA@ 000000014007a300     LIBCMT:winapinls.obj
 0002:00005318       ??_C@_1M@MAOFCAEA@?$AAe?$AAu?$AA?9?$AAE?$AAS?$AA?$AA@ 000000014007a318     LIBCMT:winapinls.obj
 0002:00005328       ??_C@_1M@IGHABKPI@?$AAm?$AAk?$AA?9?$AAM?$AAK?$AA?$AA@ 000000014007a328     LIBCMT:winapinls.obj
 0002:00005338       ??_C@_1M@IAIGNEJG@?$AAt?$AAn?$AA?9?$AAZ?$AAA?$AA?$AA@ 000000014007a338     LIBCMT:winapinls.obj
 0002:00005348       ??_C@_1M@IIJCOJFA@?$AAx?$AAh?$AA?9?$AAZ?$AAA?$AA?$AA@ 000000014007a348     LIBCMT:winapinls.obj
 0002:00005358       ??_C@_1M@LGPJHNJH@?$AAz?$AAu?$AA?9?$AAZ?$AAA?$AA?$AA@ 000000014007a358     LIBCMT:winapinls.obj
 0002:00005368       ??_C@_1M@HOKAOIO@?$AAa?$AAf?$AA?9?$AAZ?$AAA?$AA?$AA@ 000000014007a368     LIBCMT:winapinls.obj
 0002:00005378       ??_C@_1M@DPCLHLIE@?$AAk?$AAa?$AA?9?$AAG?$AAE?$AA?$AA@ 000000014007a378     LIBCMT:winapinls.obj
 0002:00005388       ??_C@_1M@BLKMHJBI@?$AAf?$AAo?$AA?9?$AAF?$AAO?$AA?$AA@ 000000014007a388     LIBCMT:winapinls.obj
 0002:00005398       ??_C@_1M@LGGJAPPB@?$AAh?$AAi?$AA?9?$AAI?$AAN?$AA?$AA@ 000000014007a398     LIBCMT:winapinls.obj
 0002:000053a8       ??_C@_1M@FIKPIHFE@?$AAm?$AAt?$AA?9?$AAM?$AAT?$AA?$AA@ 000000014007a3a8     LIBCMT:winapinls.obj
 0002:000053b8       ??_C@_1M@HEGGPBFA@?$AAs?$AAe?$AA?9?$AAN?$AAO?$AA?$AA@ 000000014007a3b8     LIBCMT:winapinls.obj
 0002:000053c8       ??_C@_1M@EIBJEEPA@?$AAm?$AAs?$AA?9?$AAM?$AAY?$AA?$AA@ 000000014007a3c8     LIBCMT:winapinls.obj
 0002:000053d8       ??_C@_1M@FHLBGMPP@?$AAk?$AAk?$AA?9?$AAK?$AAZ?$AA?$AA@ 000000014007a3d8     LIBCMT:winapinls.obj
 0002:000053e8       ??_C@_1M@NGJJLCGI@?$AAk?$AAy?$AA?9?$AAK?$AAG?$AA?$AA@ 000000014007a3e8     LIBCMT:winapinls.obj
 0002:000053f8       ??_C@_1M@GIENNBFC@?$AAs?$AAw?$AA?9?$AAK?$AAE?$AA?$AA@ 000000014007a3f8     LIBCMT:winapinls.obj
 0002:00005408       ??_C@_1BG@NDGMJIMJ@?$AAu?$AAz?$AA?9?$AAU?$AAZ?$AA?9?$AAL?$AAa?$AAt?$AAn?$AA?$AA@ 000000014007a408     LIBCMT:winapinls.obj
 0002:00005420       ??_C@_1M@IDCCIHBC@?$AAt?$AAt?$AA?9?$AAR?$AAU?$AA?$AA@ 000000014007a420     LIBCMT:winapinls.obj
 0002:00005430       ??_C@_1M@LOICPMOJ@?$AAb?$AAn?$AA?9?$AAI?$AAN?$AA?$AA@ 000000014007a430     LIBCMT:winapinls.obj
 0002:00005440       ??_C@_1M@KPKKNEAH@?$AAp?$AAa?$AA?9?$AAI?$AAN?$AA?$AA@ 000000014007a440     LIBCMT:winapinls.obj
 0002:00005450       ??_C@_1M@PJGPPBOG@?$AAg?$AAu?$AA?9?$AAI?$AAN?$AA?$AA@ 000000014007a450     LIBCMT:winapinls.obj
 0002:00005460       ??_C@_1M@KMKMOPHI@?$AAt?$AAa?$AA?9?$AAI?$AAN?$AA?$AA@ 000000014007a460     LIBCMT:winapinls.obj
 0002:00005470       ??_C@_1M@KFEHEPAC@?$AAt?$AAe?$AA?9?$AAI?$AAN?$AA?$AA@ 000000014007a470     LIBCMT:winapinls.obj
 0002:00005480       ??_C@_1M@CDCLMGHI@?$AAk?$AAn?$AA?9?$AAI?$AAN?$AA?$AA@ 000000014007a480     LIBCMT:winapinls.obj
 0002:00005490       ??_C@_1M@MIODLDKF@?$AAm?$AAl?$AA?9?$AAI?$AAN?$AA?$AA@ 000000014007a490     LIBCMT:winapinls.obj
 0002:000054a0       ??_C@_1M@PBIEACPO@?$AAm?$AAr?$AA?9?$AAI?$AAN?$AA?$AA@ 000000014007a4a0     LIBCMT:winapinls.obj
 0002:000054b0       ??_C@_1M@NIDEAGPH@?$AAs?$AAa?$AA?9?$AAI?$AAN?$AA?$AA@ 000000014007a4b0     LIBCMT:winapinls.obj
 0002:000054c0       ??_C@_1M@FHIHCBIO@?$AAm?$AAn?$AA?9?$AAM?$AAN?$AA?$AA@ 000000014007a4c0     LIBCMT:winapinls.obj
 0002:000054d0       ??_C@_1M@JAIJPENP@?$AAc?$AAy?$AA?9?$AAG?$AAB?$AA?$AA@ 000000014007a4d0     LIBCMT:winapinls.obj
 0002:000054e0       ??_C@_1M@PHGFBEPN@?$AAg?$AAl?$AA?9?$AAE?$AAS?$AA?$AA@ 000000014007a4e0     LIBCMT:winapinls.obj
 0002:000054f0       ??_C@_1O@KPIPDNCP@?$AAk?$AAo?$AAk?$AA?9?$AAI?$AAN?$AA?$AA@ 000000014007a4f0     LIBCMT:winapinls.obj
 0002:00005500       ??_C@_1O@KNHJLDJA@?$AAs?$AAy?$AAr?$AA?9?$AAS?$AAY?$AA?$AA@ 000000014007a500     LIBCMT:winapinls.obj
 0002:00005510       ??_C@_1O@MKEKBLAH@?$AAd?$AAi?$AAv?$AA?9?$AAM?$AAV?$AA?$AA@ 000000014007a510     LIBCMT:winapinls.obj
 0002:00005520       ??_C@_1O@OHDCKDDF@?$AAq?$AAu?$AAz?$AA?9?$AAB?$AAO?$AA?$AA@ 000000014007a520     LIBCMT:winapinls.obj
 0002:00005530       ??_C@_1M@LEPJNLFD@?$AAn?$AAs?$AA?9?$AAZ?$AAA?$AA?$AA@ 000000014007a530     LIBCMT:winapinls.obj
 0002:00005540       ??_C@_1M@OMLEIIJB@?$AAm?$AAi?$AA?9?$AAN?$AAZ?$AA?$AA@ 000000014007a540     LIBCMT:winapinls.obj
 0002:00005550       ??_C@_1M@PMPEAILG@?$AAa?$AAr?$AA?9?$AAI?$AAQ?$AA?$AA@ 000000014007a550     LIBCMT:winapinls.obj
 0002:00005560       ??_C@_1M@CNKPNOEE@?$AAd?$AAe?$AA?9?$AAC?$AAH?$AA?$AA@ 000000014007a560     LIBCMT:winapinls.obj
 0002:00005570       ??_C@_1M@LKMGMLKO@?$AAe?$AAn?$AA?9?$AAG?$AAB?$AA?$AA@ 000000014007a570     LIBCMT:winapinls.obj
 0002:00005580       ??_C@_1M@PGKJFFGL@?$AAe?$AAs?$AA?9?$AAM?$AAX?$AA?$AA@ 000000014007a580     LIBCMT:winapinls.obj
 0002:00005590       ??_C@_1M@DNNANBDC@?$AAf?$AAr?$AA?9?$AAB?$AAE?$AA?$AA@ 000000014007a590     LIBCMT:winapinls.obj
 0002:000055a0       ??_C@_1M@HLGMDFHM@?$AAi?$AAt?$AA?9?$AAC?$AAH?$AA?$AA@ 000000014007a5a0     LIBCMT:winapinls.obj
 0002:000055b0       ??_C@_1M@CLLBGJH@?$AAn?$AAl?$AA?9?$AAB?$AAE?$AA?$AA@ 000000014007a5b0     LIBCMT:winapinls.obj
 0002:000055c0       ??_C@_1M@BODBOGLF@?$AAn?$AAn?$AA?9?$AAN?$AAO?$AA?$AA@ 000000014007a5c0     LIBCMT:winapinls.obj
 0002:000055d0       ??_C@_1M@HFFAHKAD@?$AAp?$AAt?$AA?9?$AAP?$AAT?$AA?$AA@ 000000014007a5d0     LIBCMT:winapinls.obj
 0002:000055e0       ??_C@_1BG@LNOAKHIE@?$AAs?$AAr?$AA?9?$AAS?$AAP?$AA?9?$AAL?$AAa?$AAt?$AAn?$AA?$AA@ 000000014007a5e0     LIBCMT:winapinls.obj
 0002:000055f8       ??_C@_1M@HBMHBGAK@?$AAs?$AAv?$AA?9?$AAF?$AAI?$AA?$AA@ 000000014007a5f8     LIBCMT:winapinls.obj
 0002:00005608       ??_C@_1BG@DGCJGJBE@?$AAa?$AAz?$AA?9?$AAA?$AAZ?$AA?9?$AAC?$AAy?$AAr?$AAl?$AA?$AA@ 000000014007a608     LIBCMT:winapinls.obj
 0002:00005620       ??_C@_1M@KEJDAAHB@?$AAs?$AAe?$AA?9?$AAS?$AAE?$AA?$AA@ 000000014007a620     LIBCMT:winapinls.obj
 0002:00005630       ??_C@_1M@HEIBJJAD@?$AAm?$AAs?$AA?9?$AAB?$AAN?$AA?$AA@ 000000014007a630     LIBCMT:winapinls.obj
 0002:00005640       ??_C@_1BG@PBGJMCEM@?$AAu?$AAz?$AA?9?$AAU?$AAZ?$AA?9?$AAC?$AAy?$AAr?$AAl?$AA?$AA@ 000000014007a640     LIBCMT:winapinls.obj
 0002:00005658       ??_C@_1O@LAOBCMDF@?$AAq?$AAu?$AAz?$AA?9?$AAE?$AAC?$AA?$AA@ 000000014007a658     LIBCMT:winapinls.obj
 0002:00005668       ??_C@_1M@POEEMAIO@?$AAa?$AAr?$AA?9?$AAE?$AAG?$AA?$AA@ 000000014007a668     LIBCMT:winapinls.obj
 0002:00005678       ??_C@_1M@EFAKDEDL@?$AAz?$AAh?$AA?9?$AAH?$AAK?$AA?$AA@ 000000014007a678     LIBCMT:winapinls.obj
 0002:00005688       ??_C@_1M@HKKIJHGI@?$AAd?$AAe?$AA?9?$AAA?$AAT?$AA?$AA@ 000000014007a688     LIBCMT:winapinls.obj
 0002:00005698       ??_C@_1M@KBFBEHJF@?$AAe?$AAn?$AA?9?$AAA?$AAU?$AA?$AA@ 000000014007a698     LIBCMT:winapinls.obj
 0002:000056a8       ??_C@_1M@MNPLFAAH@?$AAe?$AAs?$AA?9?$AAE?$AAS?$AA?$AA@ 000000014007a6a8     LIBCMT:winapinls.obj
 0002:000056b8       ??_C@_1M@HJOOJFMA@?$AAf?$AAr?$AA?9?$AAC?$AAA?$AA?$AA@ 000000014007a6b8     LIBCMT:winapinls.obj
 0002:000056c8       ??_C@_1BG@JPOFPNAB@?$AAs?$AAr?$AA?9?$AAS?$AAP?$AA?9?$AAC?$AAy?$AAr?$AAl?$AA?$AA@ 000000014007a6c8     LIBCMT:winapinls.obj
 0002:000056e0       ??_C@_1M@LNFOCMOB@?$AAs?$AAe?$AA?9?$AAF?$AAI?$AA?$AA@ 000000014007a6e0     LIBCMT:winapinls.obj
 0002:000056f0       ??_C@_1O@MGJBOAMB@?$AAq?$AAu?$AAz?$AA?9?$AAP?$AAE?$AA?$AA@ 000000014007a6f0     LIBCMT:winapinls.obj
 0002:00005700       ??_C@_1M@GJINLBOK@?$AAa?$AAr?$AA?9?$AAL?$AAY?$AA?$AA@ 000000014007a700     LIBCMT:winapinls.obj
 0002:00005710       ??_C@_1M@GGMNHJNL@?$AAz?$AAh?$AA?9?$AAS?$AAG?$AA?$AA@ 000000014007a710     LIBCMT:winapinls.obj
 0002:00005720       ??_C@_1M@HOIKODND@?$AAd?$AAe?$AA?9?$AAL?$AAU?$AA?$AA@ 000000014007a720     LIBCMT:winapinls.obj
 0002:00005730       ??_C@_1M@DDOCCGFG@?$AAe?$AAn?$AA?9?$AAC?$AAA?$AA?$AA@ 000000014007a730     LIBCMT:winapinls.obj
 0002:00005740       ??_C@_1M@BNOEMJLF@?$AAe?$AAs?$AA?9?$AAG?$AAT?$AA?$AA@ 000000014007a740     LIBCMT:winapinls.obj
 0002:00005750       ??_C@_1M@EOGNKEK@?$AAf?$AAr?$AA?9?$AAC?$AAH?$AA?$AA@ 000000014007a750     LIBCMT:winapinls.obj
 0002:00005760       ??_C@_1M@FLIDJFHL@?$AAh?$AAr?$AA?9?$AAB?$AAA?$AA?$AA@ 000000014007a760     LIBCMT:winapinls.obj
 0002:00005770       ??_C@_1O@FMCELNAJ@?$AAs?$AAm?$AAj?$AA?9?$AAN?$AAO?$AA?$AA@ 000000014007a770     LIBCMT:winapinls.obj
 0002:00005780       ??_C@_1M@JHGLJMGJ@?$AAa?$AAr?$AA?9?$AAD?$AAZ?$AA?$AA@ 000000014007a780     LIBCMT:winapinls.obj
 0002:00005790       ??_C@_1M@JKKFDCNP@?$AAz?$AAh?$AA?9?$AAM?$AAO?$AA?$AA@ 000000014007a790     LIBCMT:winapinls.obj
 0002:000057a0       ??_C@_1M@GEEFALPE@?$AAd?$AAe?$AA?9?$AAL?$AAI?$AA?$AA@ 000000014007a7a0     LIBCMT:winapinls.obj
 0002:000057b0       ??_C@_1M@IGEOFBG@?$AAe?$AAn?$AA?9?$AAN?$AAZ?$AA?$AA@ 000000014007a7b0     LIBCMT:winapinls.obj
 0002:000057c0       ??_C@_1M@KDBONEHP@?$AAe?$AAs?$AA?9?$AAC?$AAR?$AA?$AA@ 000000014007a7c0     LIBCMT:winapinls.obj
 0002:000057d0       ??_C@_1M@FHMDOHNN@?$AAf?$AAr?$AA?9?$AAL?$AAU?$AA?$AA@ 000000014007a7d0     LIBCMT:winapinls.obj
 0002:000057e0       ??_C@_1BG@NFKKMAFG@?$AAb?$AAs?$AA?9?$AAB?$AAA?$AA?9?$AAL?$AAa?$AAt?$AAn?$AA?$AA@ 000000014007a7e0     LIBCMT:winapinls.obj
 0002:000057f8       ??_C@_1O@IMNBEMCI@?$AAs?$AAm?$AAj?$AA?9?$AAS?$AAE?$AA?$AA@ 000000014007a7f8     LIBCMT:winapinls.obj
 0002:00005808       ??_C@_1M@DHHMBNDP@?$AAa?$AAr?$AA?9?$AAM?$AAA?$AA?$AA@ 000000014007a808     LIBCMT:winapinls.obj
 0002:00005818       ??_C@_1M@BNBLJCGH@?$AAe?$AAn?$AA?9?$AAI?$AAE?$AA?$AA@ 000000014007a818     LIBCMT:winapinls.obj
 0002:00005828       ??_C@_1M@GEPAFMDL@?$AAe?$AAs?$AA?9?$AAP?$AAA?$AA?$AA@ 000000014007a828     LIBCMT:winapinls.obj
 0002:00005838       ??_C@_1M@OJONDMDL@?$AAf?$AAr?$AA?9?$AAM?$AAC?$AA?$AA@ 000000014007a838     LIBCMT:winapinls.obj
 0002:00005848       ??_C@_1BG@OBCNFJB@?$AAs?$AAr?$AA?9?$AAB?$AAA?$AA?9?$AAL?$AAa?$AAt?$AAn?$AA?$AA@ 000000014007a848     LIBCMT:winapinls.obj
 0002:00005860       ??_C@_1O@KEMEEGPO@?$AAs?$AAm?$AAa?$AA?9?$AAN?$AAO?$AA?$AA@ 000000014007a860     LIBCMT:winapinls.obj
 0002:00005870       ??_C@_1M@ELMGFODK@?$AAa?$AAr?$AA?9?$AAT?$AAN?$AA?$AA@ 000000014007a870     LIBCMT:winapinls.obj
 0002:00005880       ??_C@_1M@BHDLHFAF@?$AAe?$AAn?$AA?9?$AAZ?$AAA?$AA?$AA@ 000000014007a880     LIBCMT:winapinls.obj
 0002:00005890       ??_C@_1M@BMGIGLIF@?$AAe?$AAs?$AA?9?$AAD?$AAO?$AA?$AA@ 000000014007a890     LIBCMT:winapinls.obj
 0002:000058a0       ??_C@_1BG@CMBHIPBE@?$AAs?$AAr?$AA?9?$AAB?$AAA?$AA?9?$AAC?$AAy?$AAr?$AAl?$AA?$AA@ 000000014007a8a0     LIBCMT:winapinls.obj
 0002:000058b8       ??_C@_1O@HEDBLHNP@?$AAs?$AAm?$AAa?$AA?9?$AAS?$AAE?$AA?$AA@ 000000014007a8b8     LIBCMT:winapinls.obj
 0002:000058c8       ??_C@_1M@DAGCADIM@?$AAa?$AAr?$AA?9?$AAO?$AAM?$AA?$AA@ 000000014007a8c8     LIBCMT:winapinls.obj
 0002:000058d8       ??_C@_1M@FODLMICG@?$AAe?$AAn?$AA?9?$AAJ?$AAM?$AA?$AA@ 000000014007a8d8     LIBCMT:winapinls.obj
 0002:000058e8       ??_C@_1M@DNMLCIHB@?$AAe?$AAs?$AA?9?$AAV?$AAE?$AA?$AA@ 000000014007a8e8     LIBCMT:winapinls.obj
 0002:000058f8       ??_C@_1O@EOKHMKJK@?$AAs?$AAm?$AAs?$AA?9?$AAF?$AAI?$AA?$AA@ 000000014007a8f8     LIBCMT:winapinls.obj
 0002:00005908       ??_C@_1M@CAFJMKOF@?$AAa?$AAr?$AA?9?$AAY?$AAE?$AA?$AA@ 000000014007a908     LIBCMT:winapinls.obj
 0002:00005918       ??_C@_1M@CBFHIJLI@?$AAe?$AAn?$AA?9?$AAC?$AAB?$AA?$AA@ 000000014007a918     LIBCMT:winapinls.obj
 0002:00005928       ??_C@_1M@BGNFLDN@?$AAe?$AAs?$AA?9?$AAC?$AAO?$AA?$AA@ 000000014007a928     LIBCMT:winapinls.obj
 0002:00005938       ??_C@_1O@JMPHMAMC@?$AAs?$AAm?$AAn?$AA?9?$AAF?$AAI?$AA?$AA@ 000000014007a938     LIBCMT:winapinls.obj
 0002:00005948       ??_C@_1M@JLANABKE@?$AAa?$AAr?$AA?9?$AAS?$AAY?$AA?$AA@ 000000014007a948     LIBCMT:winapinls.obj
 0002:00005958       ??_C@_1M@HPKGCFGN@?$AAe?$AAn?$AA?9?$AAB?$AAZ?$AA?$AA@ 000000014007a958     LIBCMT:winapinls.obj
 0002:00005968       ??_C@_1M@OLJCMLGM@?$AAe?$AAs?$AA?9?$AAP?$AAE?$AA?$AA@ 000000014007a968     LIBCMT:winapinls.obj
 0002:00005978       ??_C@_1M@MKKGFKLE@?$AAa?$AAr?$AA?9?$AAJ?$AAO?$AA?$AA@ 000000014007a978     LIBCMT:winapinls.obj
 0002:00005988       ??_C@_1M@EKPGLDNI@?$AAe?$AAn?$AA?9?$AAT?$AAT?$AA?$AA@ 000000014007a988     LIBCMT:winapinls.obj
 0002:00005998       ??_C@_1M@OONGHFHE@?$AAe?$AAs?$AA?9?$AAA?$AAR?$AA?$AA@ 000000014007a998     LIBCMT:winapinls.obj
 0002:000059a8       ??_C@_1M@OOJFGBHE@?$AAa?$AAr?$AA?9?$AAL?$AAB?$AA?$AA@ 000000014007a9a8     LIBCMT:winapinls.obj
 0002:000059b8       ??_C@_1M@GCEJHNEG@?$AAe?$AAn?$AA?9?$AAZ?$AAW?$AA?$AA@ 000000014007a9b8     LIBCMT:winapinls.obj
 0002:000059c8       ??_C@_1M@JNOCAHJI@?$AAe?$AAs?$AA?9?$AAE?$AAC?$AA?$AA@ 000000014007a9c8     LIBCMT:winapinls.obj
 0002:000059d8       ??_C@_1M@JEFHPGGB@?$AAa?$AAr?$AA?9?$AAK?$AAW?$AA?$AA@ 000000014007a9d8     LIBCMT:winapinls.obj
 0002:000059e8       ??_C@_1M@MLKIBJOJ@?$AAe?$AAn?$AA?9?$AAP?$AAH?$AA?$AA@ 000000014007a9e8     LIBCMT:winapinls.obj
 0002:000059f8       ??_C@_1M@BDNIPEND@?$AAe?$AAs?$AA?9?$AAC?$AAL?$AA?$AA@ 000000014007a9f8     LIBCMT:winapinls.obj
 0002:00005a08       ??_C@_1M@MPNMEKBD@?$AAa?$AAr?$AA?9?$AAA?$AAE?$AA?$AA@ 000000014007aa08     LIBCMT:winapinls.obj
 0002:00005a18       ??_C@_1M@KBJALCPI@?$AAe?$AAs?$AA?9?$AAU?$AAY?$AA?$AA@ 000000014007aa18     LIBCMT:winapinls.obj
 0002:00005a28       ??_C@_1M@LLCCOAGA@?$AAa?$AAr?$AA?9?$AAB?$AAH?$AA?$AA@ 000000014007aa28     LIBCMT:winapinls.obj
 0002:00005a38       ??_C@_1M@PBFNCDEL@?$AAe?$AAs?$AA?9?$AAP?$AAY?$AA?$AA@ 000000014007aa38     LIBCMT:winapinls.obj
 0002:00005a48       ??_C@_1M@EDGINPNP@?$AAa?$AAr?$AA?9?$AAQ?$AAA?$AA?$AA@ 000000014007aa48     LIBCMT:winapinls.obj
 0002:00005a58       ??_C@_1M@MKDBIIJI@?$AAe?$AAs?$AA?9?$AAB?$AAO?$AA?$AA@ 000000014007aa58     LIBCMT:winapinls.obj
 0002:00005a68       ??_C@_1M@CPKKEBLD@?$AAe?$AAs?$AA?9?$AAS?$AAV?$AA?$AA@ 000000014007aa68     LIBCMT:winapinls.obj
 0002:00005a78       ??_C@_1M@NDBGMMJL@?$AAe?$AAs?$AA?9?$AAH?$AAN?$AA?$AA@ 000000014007aa78     LIBCMT:winapinls.obj
 0002:00005a88       ??_C@_1M@JIJIBHDP@?$AAe?$AAs?$AA?9?$AAN?$AAI?$AA?$AA@ 000000014007aa88     LIBCMT:winapinls.obj
 0002:00005a98       ??_C@_1M@CGFMKEEK@?$AAe?$AAs?$AA?9?$AAP?$AAR?$AA?$AA@ 000000014007aa98     LIBCMT:winapinls.obj
 0002:00005aa8       ??_C@_1O@ICJHKIIK@?$AAz?$AAh?$AA?9?$AAC?$AAH?$AAT?$AA?$AA@ 000000014007aaa8     LIBCMT:winapinls.obj
 0002:00005ab8       ??_C@_15CLNEJCE@?$AAs?$AAr?$AA?$AA@ 000000014007aab8     LIBCMT:winapinls.obj
 0002:00005ac0       ??_C@_1M@KAHEKEIG@?$AAa?$AAf?$AA?9?$AAz?$AAa?$AA?$AA@ 000000014007aac0     LIBCMT:winapinls.obj
 0002:00005ad0       ??_C@_1M@GIECOABL@?$AAa?$AAr?$AA?9?$AAa?$AAe?$AA?$AA@ 000000014007aad0     LIBCMT:winapinls.obj
 0002:00005ae0       ??_C@_1M@BMLMEKGI@?$AAa?$AAr?$AA?9?$AAb?$AAh?$AA?$AA@ 000000014007aae0     LIBCMT:winapinls.obj
 0002:00005af0       ??_C@_1M@DAPFDGGB@?$AAa?$AAr?$AA?9?$AAd?$AAz?$AA?$AA@ 000000014007aaf0     LIBCMT:winapinls.obj
 0002:00005b00       ??_C@_1M@FJNKGKIG@?$AAa?$AAr?$AA?9?$AAe?$AAg?$AA?$AA@ 000000014007ab00     LIBCMT:winapinls.obj
 0002:00005b10       ??_C@_1M@FLGKKCLO@?$AAa?$AAr?$AA?9?$AAi?$AAq?$AA?$AA@ 000000014007ab10     LIBCMT:winapinls.obj
 0002:00005b20       ??_C@_1M@GNDIPALM@?$AAa?$AAr?$AA?9?$AAj?$AAo?$AA?$AA@ 000000014007ab20     LIBCMT:winapinls.obj
 0002:00005b30       ??_C@_1M@DDMJFMGJ@?$AAa?$AAr?$AA?9?$AAk?$AAw?$AA?$AA@ 000000014007ab30     LIBCMT:winapinls.obj
 0002:00005b40       ??_C@_1M@EJALMLHM@?$AAa?$AAr?$AA?9?$AAl?$AAb?$AA?$AA@ 000000014007ab40     LIBCMT:winapinls.obj
 0002:00005b50       ??_C@_1M@MOBDBLOC@?$AAa?$AAr?$AA?9?$AAl?$AAy?$AA?$AA@ 000000014007ab50     LIBCMT:winapinls.obj
 0002:00005b60       ??_C@_1M@JAOCLHDH@?$AAa?$AAr?$AA?9?$AAm?$AAa?$AA?$AA@ 000000014007ab60     LIBCMT:winapinls.obj
 0002:00005b70       ??_C@_1M@JHPMKJIE@?$AAa?$AAr?$AA?9?$AAo?$AAm?$AA?$AA@ 000000014007ab70     LIBCMT:winapinls.obj
 0002:00005b80       ??_C@_1M@OEPGHFNH@?$AAa?$AAr?$AA?9?$AAq?$AAa?$AA?$AA@ 000000014007ab80     LIBCMT:winapinls.obj
 0002:00005b90       ??_C@_1M@KJDONENM@?$AAa?$AAr?$AA?9?$AAs?$AAa?$AA?$AA@ 000000014007ab90     LIBCMT:winapinls.obj
 0002:00005ba0       ??_C@_1M@DMJDKLKM@?$AAa?$AAr?$AA?9?$AAs?$AAy?$AA?$AA@ 000000014007aba0     LIBCMT:winapinls.obj
 0002:00005bb0       ??_C@_1M@OMFIPEDC@?$AAa?$AAr?$AA?9?$AAt?$AAn?$AA?$AA@ 000000014007abb0     LIBCMT:winapinls.obj
 0002:00005bc0       ??_C@_1M@IHMHGAON@?$AAa?$AAr?$AA?9?$AAy?$AAe?$AA?$AA@ 000000014007abc0     LIBCMT:winapinls.obj
 0002:00005bd0       ??_C@_1BG@KDCPGJGB@?$AAa?$AAz?$AA?9?$AAa?$AAz?$AA?9?$AAc?$AAy?$AAr?$AAl?$AA?$AA@ 000000014007abd0     LIBCMT:winapinls.obj
 0002:00005be8       ??_C@_1BG@IBCKDDOE@?$AAa?$AAz?$AA?9?$AAa?$AAz?$AA?9?$AAl?$AAa?$AAt?$AAn?$AA?$AA@ 000000014007abe8     LIBCMT:winapinls.obj
 0002:00005c00       ??_C@_1M@EGPFDCPD@?$AAb?$AAe?$AA?9?$AAb?$AAy?$AA?$AA@ 000000014007ac00     LIBCMT:winapinls.obj
 0002:00005c10       ??_C@_1M@PCMGMCGC@?$AAb?$AAg?$AA?9?$AAb?$AAg?$AA?$AA@ 000000014007ac10     LIBCMT:winapinls.obj
 0002:00005c20       ??_C@_1M@BJBMFGOB@?$AAb?$AAn?$AA?9?$AAi?$AAn?$AA?$AA@ 000000014007ac20     LIBCMT:winapinls.obj
 0002:00005c30       ??_C@_1BG@EAKMMACD@?$AAb?$AAs?$AA?9?$AAb?$AAa?$AA?9?$AAl?$AAa?$AAt?$AAn?$AA?$AA@ 000000014007ac30     LIBCMT:winapinls.obj
 0002:00005c48       ??_C@_1M@KGADAODK@?$AAc?$AAa?$AA?9?$AAe?$AAs?$AA?$AA@ 000000014007ac48     LIBCMT:winapinls.obj
 0002:00005c58       ??_C@_1M@COAJPDHI@?$AAc?$AAs?$AA?9?$AAc?$AAz?$AA?$AA@ 000000014007ac58     LIBCMT:winapinls.obj
 0002:00005c68       ??_C@_1M@DHBHFONH@?$AAc?$AAy?$AA?9?$AAg?$AAb?$AA?$AA@ 000000014007ac68     LIBCMT:winapinls.obj
 0002:00005c78       ??_C@_1M@IMGKELGA@?$AAd?$AAa?$AA?9?$AAd?$AAk?$AA?$AA@ 000000014007ac78     LIBCMT:winapinls.obj
 0002:00005c88       ??_C@_1M@NNDGDNGA@?$AAd?$AAe?$AA?9?$AAa?$AAt?$AA?$AA@ 000000014007ac88     LIBCMT:winapinls.obj
 0002:00005c98       ??_C@_1M@IKDBHEEM@?$AAd?$AAe?$AA?9?$AAc?$AAh?$AA?$AA@ 000000014007ac98     LIBCMT:winapinls.obj
 0002:00005ca8       ??_C@_1M@GFFOJMCJ@?$AAd?$AAe?$AA?9?$AAd?$AAe?$AA?$AA@ 000000014007aca8     LIBCMT:winapinls.obj
 0002:00005cb8       ??_C@_1M@MDNLKBPM@?$AAd?$AAe?$AA?9?$AAl?$AAi?$AA?$AA@ 000000014007acb8     LIBCMT:winapinls.obj
 0002:00005cc8       ??_C@_1M@NJBEEJNL@?$AAd?$AAe?$AA?9?$AAl?$AAu?$AA?$AA@ 000000014007acc8     LIBCMT:winapinls.obj
 0002:00005cd8       ??_C@_1O@GNNELBAP@?$AAd?$AAi?$AAv?$AA?9?$AAm?$AAv?$AA?$AA@ 000000014007acd8     LIBCMT:winapinls.obj
 0002:00005ce8       ??_C@_1M@EJLEOGAE@?$AAe?$AAl?$AA?9?$AAg?$AAr?$AA?$AA@ 000000014007ace8     LIBCMT:winapinls.obj
 0002:00005cf8       ??_C@_1M@GMPONJN@?$AAe?$AAn?$AA?9?$AAa?$AAu?$AA?$AA@ 000000014007acf8     LIBCMT:winapinls.obj
 0002:00005d08       ??_C@_1M@NIDIIPGF@?$AAe?$AAn?$AA?9?$AAb?$AAz?$AA?$AA@ 000000014007ad08     LIBCMT:winapinls.obj
 0002:00005d18       ??_C@_1M@JEHMIMFO@?$AAe?$AAn?$AA?9?$AAc?$AAa?$AA?$AA@ 000000014007ad18     LIBCMT:winapinls.obj
 0002:00005d28       ??_C@_1M@IGMJCDLA@?$AAe?$AAn?$AA?9?$AAc?$AAb?$AA?$AA@ 000000014007ad28     LIBCMT:winapinls.obj
 0002:00005d38       ??_C@_1M@BNFIGBKG@?$AAe?$AAn?$AA?9?$AAg?$AAb?$AA?$AA@ 000000014007ad38     LIBCMT:winapinls.obj
 0002:00005d48       ??_C@_1M@LKIFDIGP@?$AAe?$AAn?$AA?9?$AAi?$AAe?$AA?$AA@ 000000014007ad48     LIBCMT:winapinls.obj
 0002:00005d58       ??_C@_1M@PJKFGCCO@?$AAe?$AAn?$AA?9?$AAj?$AAm?$AA?$AA@ 000000014007ad58     LIBCMT:winapinls.obj
 0002:00005d68       ??_C@_1M@KPPKEPBO@?$AAe?$AAn?$AA?9?$AAn?$AAz?$AA?$AA@ 000000014007ad68     LIBCMT:winapinls.obj
 0002:00005d78       ??_C@_1M@GMDGLDOB@?$AAe?$AAn?$AA?9?$AAp?$AAh?$AA?$AA@ 000000014007ad78     LIBCMT:winapinls.obj
 0002:00005d88       ??_C@_1M@ONGIBJNA@?$AAe?$AAn?$AA?9?$AAt?$AAt?$AA?$AA@ 000000014007ad88     LIBCMT:winapinls.obj
 0002:00005d98       ??_C@_1M@LLODPCMM@?$AAe?$AAn?$AA?9?$AAu?$AAs?$AA?$AA@ 000000014007ad98     LIBCMT:winapinls.obj
 0002:00005da8       ??_C@_1M@LAKFNPAN@?$AAe?$AAn?$AA?9?$AAz?$AAa?$AA?$AA@ 000000014007ada8     LIBCMT:winapinls.obj
 0002:00005db8       ??_C@_1M@MFNHNHEO@?$AAe?$AAn?$AA?9?$AAz?$AAw?$AA?$AA@ 000000014007adb8     LIBCMT:winapinls.obj
 0002:00005dc8       ??_C@_1M@EJEINPHM@?$AAe?$AAs?$AA?9?$AAa?$AAr?$AA?$AA@ 000000014007adc8     LIBCMT:winapinls.obj
 0002:00005dd8       ??_C@_1M@GNKPCCJA@?$AAe?$AAs?$AA?9?$AAb?$AAo?$AA?$AA@ 000000014007add8     LIBCMT:winapinls.obj
 0002:00005de8       ??_C@_1M@LEEGFONL@?$AAe?$AAs?$AA?9?$AAc?$AAl?$AA?$AA@ 000000014007ade8     LIBCMT:winapinls.obj
 0002:00005df8       ??_C@_1M@KGPDPBDF@?$AAe?$AAs?$AA?9?$AAc?$AAo?$AA?$AA@ 000000014007adf8     LIBCMT:winapinls.obj
 0002:00005e08       ??_C@_1M@EIAHOHH@?$AAe?$AAs?$AA?9?$AAc?$AAr?$AA?$AA@ 000000014007ae08     LIBCMT:winapinls.obj
 0002:00005e18       ??_C@_1M@LLPGMBIN@?$AAe?$AAs?$AA?9?$AAd?$AAo?$AA?$AA@ 000000014007ae18     LIBCMT:winapinls.obj
 0002:00005e28       ??_C@_1M@DKHMKNJA@?$AAe?$AAs?$AA?9?$AAe?$AAc?$AA?$AA@ 000000014007ae28     LIBCMT:winapinls.obj
 0002:00005e38       ??_C@_1M@GKGFPKAP@?$AAe?$AAs?$AA?9?$AAe?$AAs?$AA?$AA@ 000000014007ae38     LIBCMT:winapinls.obj
 0002:00005e48       ??_C@_1M@LKHKGDLN@?$AAe?$AAs?$AA?9?$AAg?$AAt?$AA?$AA@ 000000014007ae48     LIBCMT:winapinls.obj
 0002:00005e58       ??_C@_1M@HEIIGGJD@?$AAe?$AAs?$AA?9?$AAh?$AAn?$AA?$AA@ 000000014007ae58     LIBCMT:winapinls.obj
 0002:00005e68       ??_C@_1M@FBDHPPGD@?$AAe?$AAs?$AA?9?$AAm?$AAx?$AA?$AA@ 000000014007ae68     LIBCMT:winapinls.obj
 0002:00005e78       ??_C@_1M@DPAGLNDH@?$AAe?$AAs?$AA?9?$AAn?$AAi?$AA?$AA@ 000000014007ae78     LIBCMT:winapinls.obj
 0002:00005e88       ??_C@_1M@MDGOPGDD@?$AAe?$AAs?$AA?9?$AAp?$AAa?$AA?$AA@ 000000014007ae88     LIBCMT:winapinls.obj
 0002:00005e98       ??_C@_1M@EMAMGBGE@?$AAe?$AAs?$AA?9?$AAp?$AAe?$AA?$AA@ 000000014007ae98     LIBCMT:winapinls.obj
 0002:00005ea8       ??_C@_1M@IBMCAOEC@?$AAe?$AAs?$AA?9?$AAp?$AAr?$AA?$AA@ 000000014007aea8     LIBCMT:winapinls.obj
 0002:00005eb8       ??_C@_1M@FGMDIJED@?$AAe?$AAs?$AA?9?$AAp?$AAy?$AA?$AA@ 000000014007aeb8     LIBCMT:winapinls.obj
 0002:00005ec8       ??_C@_1M@IIDEOLLL@?$AAe?$AAs?$AA?9?$AAs?$AAv?$AA?$AA@ 000000014007aec8     LIBCMT:winapinls.obj
 0002:00005ed8       ??_C@_1M@GAOBIPA@?$AAe?$AAs?$AA?9?$AAu?$AAy?$AA?$AA@ 000000014007aed8     LIBCMT:winapinls.obj
 0002:00005ee8       ??_C@_1M@JKFFICHJ@?$AAe?$AAs?$AA?9?$AAv?$AAe?$AA?$AA@ 000000014007aee8     LIBCMT:winapinls.obj
 0002:00005ef8       ??_C@_1M@PNMLOJDF@?$AAe?$AAt?$AA?9?$AAe?$AAe?$AA?$AA@ 000000014007aef8     LIBCMT:winapinls.obj
 0002:00005f08       ??_C@_1M@GHHLIKEI@?$AAe?$AAu?$AA?9?$AAe?$AAs?$AA?$AA@ 000000014007af08     LIBCMT:winapinls.obj
 0002:00005f18       ??_C@_1M@PBNONODE@?$AAf?$AAa?$AA?9?$AAi?$AAr?$AA?$AA@ 000000014007af18     LIBCMT:winapinls.obj
 0002:00005f28       ??_C@_1M@JEEHPMIL@?$AAf?$AAi?$AA?9?$AAf?$AAi?$AA?$AA@ 000000014007af28     LIBCMT:winapinls.obj
 0002:00005f38       ??_C@_1M@LMDCNDBA@?$AAf?$AAo?$AA?9?$AAf?$AAo?$AA?$AA@ 000000014007af38     LIBCMT:winapinls.obj
 0002:00005f48       ??_C@_1M@JKEOHLDK@?$AAf?$AAr?$AA?9?$AAb?$AAe?$AA?$AA@ 000000014007af48     LIBCMT:winapinls.obj
 0002:00005f58       ??_C@_1M@NOHADPMI@?$AAf?$AAr?$AA?9?$AAc?$AAa?$AA?$AA@ 000000014007af58     LIBCMT:winapinls.obj
 0002:00005f68       ??_C@_1M@KDHIHAEC@?$AAf?$AAr?$AA?9?$AAc?$AAh?$AA?$AA@ 000000014007af68     LIBCMT:winapinls.obj
 0002:00005f78       ??_C@_1M@MMBBFGAK@?$AAf?$AAr?$AA?9?$AAf?$AAr?$AA?$AA@ 000000014007af78     LIBCMT:winapinls.obj
 0002:00005f88       ??_C@_1M@PAFNENNF@?$AAf?$AAr?$AA?9?$AAl?$AAu?$AA?$AA@ 000000014007af88     LIBCMT:winapinls.obj
 0002:00005f98       ??_C@_1M@EOHDJGDD@?$AAf?$AAr?$AA?9?$AAm?$AAc?$AA?$AA@ 000000014007af98     LIBCMT:winapinls.obj
 0002:00005fa8       ??_C@_1M@FAPLLOPF@?$AAg?$AAl?$AA?9?$AAe?$AAs?$AA?$AA@ 000000014007afa8     LIBCMT:winapinls.obj
 0002:00005fb8       ??_C@_1M@FOPBFLOO@?$AAg?$AAu?$AA?9?$AAi?$AAn?$AA?$AA@ 000000014007afb8     LIBCMT:winapinls.obj
 0002:00005fc8       ??_C@_1M@KBMCINPM@?$AAh?$AAe?$AA?9?$AAi?$AAl?$AA?$AA@ 000000014007afc8     LIBCMT:winapinls.obj
 0002:00005fd8       ??_C@_1M@BBPHKFPJ@?$AAh?$AAi?$AA?9?$AAi?$AAn?$AA?$AA@ 000000014007afd8     LIBCMT:winapinls.obj
 0002:00005fe8       ??_C@_1M@PMBNDPHD@?$AAh?$AAr?$AA?9?$AAb?$AAa?$AA?$AA@ 000000014007afe8     LIBCMT:winapinls.obj
 0002:00005ff8       ??_C@_1M@BPCKOEGE@?$AAh?$AAr?$AA?9?$AAh?$AAr?$AA?$AA@ 000000014007aff8     LIBCMT:winapinls.obj
 0002:00006008       ??_C@_1M@GACBMHKE@?$AAh?$AAu?$AA?9?$AAh?$AAu?$AA?$AA@ 000000014007b008     LIBCMT:winapinls.obj
 0002:00006018       ??_C@_1M@MILPAJJC@?$AAh?$AAy?$AA?9?$AAa?$AAm?$AA?$AA@ 000000014007b018     LIBCMT:winapinls.obj
 0002:00006028       ??_C@_1M@BABBICEC@?$AAi?$AAd?$AA?9?$AAi?$AAd?$AA?$AA@ 000000014007b028     LIBCMT:winapinls.obj
 0002:00006038       ??_C@_1M@BIKNHHPF@?$AAi?$AAs?$AA?9?$AAi?$AAs?$AA?$AA@ 000000014007b038     LIBCMT:winapinls.obj
 0002:00006048       ??_C@_1M@NMPCJPHE@?$AAi?$AAt?$AA?9?$AAc?$AAh?$AA?$AA@ 000000014007b048     LIBCMT:winapinls.obj
 0002:00006058       ??_C@_1M@GHKGFEDF@?$AAi?$AAt?$AA?9?$AAi?$AAt?$AA?$AA@ 000000014007b058     LIBCMT:winapinls.obj
 0002:00006068       ??_C@_1M@NIEJCJJA@?$AAj?$AAa?$AA?9?$AAj?$AAp?$AA?$AA@ 000000014007b068     LIBCMT:winapinls.obj
 0002:00006078       ??_C@_1M@JILFNBIM@?$AAk?$AAa?$AA?9?$AAg?$AAe?$AA?$AA@ 000000014007b078     LIBCMT:winapinls.obj
 0002:00006088       ??_C@_1M@PACPMGPH@?$AAk?$AAk?$AA?9?$AAk?$AAz?$AA?$AA@ 000000014007b088     LIBCMT:winapinls.obj
 0002:00006098       ??_C@_1M@IELFGMHA@?$AAk?$AAn?$AA?9?$AAi?$AAn?$AA?$AA@ 000000014007b098     LIBCMT:winapinls.obj
 0002:000060a8       ??_C@_1O@IBBJHCH@?$AAk?$AAo?$AAk?$AA?9?$AAi?$AAn?$AA?$AA@ 000000014007b0a8     LIBCMT:winapinls.obj
 0002:000060b8       ??_C@_1M@DMHAEOGC@?$AAk?$AAo?$AA?9?$AAk?$AAr?$AA?$AA@ 000000014007b0b8     LIBCMT:winapinls.obj
 0002:000060c8       ??_C@_1M@HBAHBIGA@?$AAk?$AAy?$AA?9?$AAk?$AAg?$AA?$AA@ 000000014007b0c8     LIBCMT:winapinls.obj
 0002:000060d8       ??_C@_1M@KPMILCJG@?$AAl?$AAt?$AA?9?$AAl?$AAt?$AA?$AA@ 000000014007b0d8     LIBCMT:winapinls.obj
 0002:000060e8       ??_C@_1M@BDEKKCA@?$AAl?$AAv?$AA?9?$AAl?$AAv?$AA?$AA@ 000000014007b0e8     LIBCMT:winapinls.obj
 0002:000060f8       ??_C@_1M@ELCKCCJJ@?$AAm?$AAi?$AA?9?$AAn?$AAz?$AA?$AA@ 000000014007b0f8     LIBCMT:winapinls.obj
 0002:00006108       ??_C@_1M@CBOOLAPA@?$AAm?$AAk?$AA?9?$AAm?$AAk?$AA?$AA@ 000000014007b108     LIBCMT:winapinls.obj
 0002:00006118       ??_C@_1M@GPHNBJKN@?$AAm?$AAl?$AA?9?$AAi?$AAn?$AA?$AA@ 000000014007b118     LIBCMT:winapinls.obj
 0002:00006128       ??_C@_1M@PABJILIG@?$AAm?$AAn?$AA?9?$AAm?$AAn?$AA?$AA@ 000000014007b128     LIBCMT:winapinls.obj
 0002:00006138       ??_C@_1M@FGBKKIPG@?$AAm?$AAr?$AA?9?$AAi?$AAn?$AA?$AA@ 000000014007b138     LIBCMT:winapinls.obj
 0002:00006148       ??_C@_1M@NDBPDDAL@?$AAm?$AAs?$AA?9?$AAb?$AAn?$AA?$AA@ 000000014007b148     LIBCMT:winapinls.obj
 0002:00006158       ??_C@_1M@OPIHOOPI@?$AAm?$AAs?$AA?9?$AAm?$AAy?$AA?$AA@ 000000014007b158     LIBCMT:winapinls.obj
 0002:00006168       ??_C@_1M@PPDBCNFM@?$AAm?$AAt?$AA?9?$AAm?$AAt?$AA?$AA@ 000000014007b168     LIBCMT:winapinls.obj
 0002:00006178       ??_C@_1M@KDJDKMDD@?$AAn?$AAb?$AA?9?$AAn?$AAo?$AA?$AA@ 000000014007b178     LIBCMT:winapinls.obj
 0002:00006188       ??_C@_1M@KFCFLMJP@?$AAn?$AAl?$AA?9?$AAb?$AAe?$AA?$AA@ 000000014007b188     LIBCMT:winapinls.obj
 0002:00006198       ??_C@_1M@KPOPDDGO@?$AAn?$AAl?$AA?9?$AAn?$AAl?$AA?$AA@ 000000014007b198     LIBCMT:winapinls.obj
 0002:000061a8       ??_C@_1M@LJKPEMLN@?$AAn?$AAn?$AA?9?$AAn?$AAo?$AA?$AA@ 000000014007b1a8     LIBCMT:winapinls.obj
 0002:000061b8       ??_C@_1M@BDGHHBFL@?$AAn?$AAs?$AA?9?$AAz?$AAa?$AA?$AA@ 000000014007b1b8     LIBCMT:winapinls.obj
 0002:000061c8       ??_C@_1M@IDEHOAP@?$AAp?$AAa?$AA?9?$AAi?$AAn?$AA?$AA@ 000000014007b1c8     LIBCMT:winapinls.obj
 0002:000061d8       ??_C@_1M@HDBKGOGH@?$AAp?$AAl?$AA?9?$AAp?$AAl?$AA?$AA@ 000000014007b1d8     LIBCMT:winapinls.obj
 0002:000061e8       ??_C@_1M@LJLLCMEH@?$AAp?$AAt?$AA?9?$AAb?$AAr?$AA?$AA@ 000000014007b1e8     LIBCMT:winapinls.obj
 0002:000061f8       ??_C@_1M@NCMONAAL@?$AAp?$AAt?$AA?9?$AAp?$AAt?$AA?$AA@ 000000014007b1f8     LIBCMT:winapinls.obj
 0002:00006208       ??_C@_1O@EAKMAJDN@?$AAq?$AAu?$AAz?$AA?9?$AAb?$AAo?$AA?$AA@ 000000014007b208     LIBCMT:winapinls.obj
 0002:00006218       ??_C@_1O@BHHPIGDN@?$AAq?$AAu?$AAz?$AA?9?$AAe?$AAc?$AA?$AA@ 000000014007b218     LIBCMT:winapinls.obj
 0002:00006228       ??_C@_1O@GBAPEKMJ@?$AAq?$AAu?$AAz?$AA?9?$AAp?$AAe?$AA?$AA@ 000000014007b228     LIBCMT:winapinls.obj
 0002:00006238       ??_C@_1M@CLGLEFBO@?$AAr?$AAo?$AA?9?$AAr?$AAo?$AA?$AA@ 000000014007b238     LIBCMT:winapinls.obj
 0002:00006248       ??_C@_1M@CEEDODME@?$AAr?$AAu?$AA?9?$AAr?$AAu?$AA?$AA@ 000000014007b248     LIBCMT:winapinls.obj
 0002:00006258       ??_C@_1M@HPKKKMPP@?$AAs?$AAa?$AA?9?$AAi?$AAn?$AA?$AA@ 000000014007b258     LIBCMT:winapinls.obj
 0002:00006268       ??_C@_1M@BKMAIGOJ@?$AAs?$AAe?$AA?9?$AAf?$AAi?$AA?$AA@ 000000014007b268     LIBCMT:winapinls.obj
 0002:00006278       ??_C@_1M@NDPIFLFI@?$AAs?$AAe?$AA?9?$AAn?$AAo?$AA?$AA@ 000000014007b278     LIBCMT:winapinls.obj
 0002:00006288       ??_C@_1M@DANKKHJ@?$AAs?$AAe?$AA?9?$AAs?$AAe?$AA?$AA@ 000000014007b288     LIBCMT:winapinls.obj
 0002:00006298       ??_C@_1M@PNBLONPJ@?$AAs?$AAk?$AA?9?$AAs?$AAk?$AA?$AA@ 000000014007b298     LIBCMT:winapinls.obj
 0002:000062a8       ??_C@_1M@LFMODOAL@?$AAs?$AAl?$AA?9?$AAs?$AAi?$AA?$AA@ 000000014007b2a8     LIBCMT:winapinls.obj
 0002:000062b8       ??_C@_1O@DFKOMPG@?$AAs?$AAm?$AAa?$AA?9?$AAn?$AAo?$AA?$AA@ 000000014007b2b8     LIBCMT:winapinls.obj
 0002:000062c8       ??_C@_1O@NDKPBNNH@?$AAs?$AAm?$AAa?$AA?9?$AAs?$AAe?$AA?$AA@ 000000014007b2c8     LIBCMT:winapinls.obj
 0002:000062d8       ??_C@_1O@PLLKBHAB@?$AAs?$AAm?$AAj?$AA?9?$AAn?$AAo?$AA?$AA@ 000000014007b2d8     LIBCMT:winapinls.obj
 0002:000062e8       ??_C@_1O@CLEPOGCA@?$AAs?$AAm?$AAj?$AA?9?$AAs?$AAe?$AA?$AA@ 000000014007b2e8     LIBCMT:winapinls.obj
 0002:000062f8       ??_C@_1O@DLGJGKMK@?$AAs?$AAm?$AAn?$AA?9?$AAf?$AAi?$AA?$AA@ 000000014007b2f8     LIBCMT:winapinls.obj
 0002:00006308       ??_C@_1O@OJDJGAJC@?$AAs?$AAm?$AAs?$AA?9?$AAf?$AAi?$AA?$AA@ 000000014007b308     LIBCMT:winapinls.obj
 0002:00006318       ??_C@_1M@BOFOGHPB@?$AAs?$AAq?$AA?9?$AAa?$AAl?$AA?$AA@ 000000014007b318     LIBCMT:winapinls.obj
 0002:00006328       ??_C@_1BG@LJBBIPGB@?$AAs?$AAr?$AA?9?$AAb?$AAa?$AA?9?$AAc?$AAy?$AAr?$AAl?$AA?$AA@ 000000014007b328     LIBCMT:winapinls.obj
 0002:00006340       ??_C@_1BG@JLBENFOE@?$AAs?$AAr?$AA?9?$AAb?$AAa?$AA?9?$AAl?$AAa?$AAt?$AAn?$AA?$AA@ 000000014007b340     LIBCMT:winapinls.obj
 0002:00006358       ??_C@_1BG@KODPNHE@?$AAs?$AAr?$AA?9?$AAs?$AAp?$AA?9?$AAc?$AAy?$AAr?$AAl?$AA?$AA@ 000000014007b358     LIBCMT:winapinls.obj
 0002:00006370       ??_C@_1BG@CIOGKHPB@?$AAs?$AAr?$AA?9?$AAs?$AAp?$AA?9?$AAl?$AAa?$AAt?$AAn?$AA?$AA@ 000000014007b370     LIBCMT:winapinls.obj
 0002:00006388       ??_C@_1M@NGFJLMAC@?$AAs?$AAv?$AA?9?$AAf?$AAi?$AA?$AA@ 000000014007b388     LIBCMT:winapinls.obj
 0002:00006398       ??_C@_1M@MPJEJAJC@?$AAs?$AAv?$AA?9?$AAs?$AAe?$AA?$AA@ 000000014007b398     LIBCMT:winapinls.obj
 0002:000063a8       ??_C@_1M@MPNDHLFK@?$AAs?$AAw?$AA?9?$AAk?$AAe?$AA?$AA@ 000000014007b3a8     LIBCMT:winapinls.obj
 0002:000063b8       ??_C@_1O@KOHBJJI@?$AAs?$AAy?$AAr?$AA?9?$AAs?$AAy?$AA?$AA@ 000000014007b3b8     LIBCMT:winapinls.obj
 0002:000063c8       ??_C@_1M@LDCEFHA@?$AAt?$AAa?$AA?9?$AAi?$AAn?$AA?$AA@ 000000014007b3c8     LIBCMT:winapinls.obj
 0002:000063d8       ??_C@_1M@CNJOFAK@?$AAt?$AAe?$AA?9?$AAi?$AAn?$AA?$AA@ 000000014007b3d8     LIBCMT:winapinls.obj
 0002:000063e8       ??_C@_1M@GNAECACD@?$AAt?$AAh?$AA?9?$AAt?$AAh?$AA?$AA@ 000000014007b3e8     LIBCMT:winapinls.obj
 0002:000063f8       ??_C@_1M@CHBIHOJO@?$AAt?$AAn?$AA?9?$AAz?$AAa?$AA?$AA@ 000000014007b3f8     LIBCMT:winapinls.obj
 0002:00006408       ??_C@_1M@GCCMIGPJ@?$AAt?$AAr?$AA?9?$AAt?$AAr?$AA?$AA@ 000000014007b408     LIBCMT:winapinls.obj
 0002:00006418       ??_C@_1M@CELMCNBK@?$AAt?$AAt?$AA?9?$AAr?$AAu?$AA?$AA@ 000000014007b418     LIBCMT:winapinls.obj
 0002:00006428       ??_C@_1M@KLMCELGA@?$AAu?$AAk?$AA?9?$AAu?$AAa?$AA?$AA@ 000000014007b428     LIBCMT:winapinls.obj
 0002:00006438       ??_C@_1M@EPAJJAJF@?$AAu?$AAr?$AA?9?$AAp?$AAk?$AA?$AA@ 000000014007b438     LIBCMT:winapinls.obj
 0002:00006448       ??_C@_1BG@GEGPMCDJ@?$AAu?$AAz?$AA?9?$AAu?$AAz?$AA?9?$AAc?$AAy?$AAr?$AAl?$AA?$AA@ 000000014007b448     LIBCMT:winapinls.obj
 0002:00006460       ??_C@_1BG@EGGKJILM@?$AAu?$AAz?$AA?9?$AAu?$AAz?$AA?9?$AAl?$AAa?$AAt?$AAn?$AA?$AA@ 000000014007b460     LIBCMT:winapinls.obj
 0002:00006478       ??_C@_1M@GFOCLFF@?$AAv?$AAi?$AA?9?$AAv?$AAn?$AA?$AA@ 000000014007b478     LIBCMT:winapinls.obj
 0002:00006488       ??_C@_1M@CPAMEDFI@?$AAx?$AAh?$AA?9?$AAz?$AAa?$AA?$AA@ 000000014007b488     LIBCMT:winapinls.obj
 0002:00006498       ??_C@_1O@EBKIFIGN@?$AAz?$AAh?$AA?9?$AAc?$AAh?$AAs?$AA?$AA@ 000000014007b498     LIBCMT:winapinls.obj
 0002:000064a8       ??_C@_1O@NMHPGANE@?$AAz?$AAh?$AA?9?$AAc?$AAh?$AAt?$AA?$AA@ 000000014007b4a8     LIBCMT:winapinls.obj
 0002:000064b8       ??_C@_1M@LPINJOMC@?$AAz?$AAh?$AA?9?$AAc?$AAn?$AA?$AA@ 000000014007b4b8     LIBCMT:winapinls.obj
 0002:000064c8       ??_C@_1M@OCJEJODD@?$AAz?$AAh?$AA?9?$AAh?$AAk?$AA?$AA@ 000000014007b4c8     LIBCMT:winapinls.obj
 0002:000064d8       ??_C@_1M@DNDLJINH@?$AAz?$AAh?$AA?9?$AAm?$AAo?$AA?$AA@ 000000014007b4d8     LIBCMT:winapinls.obj
 0002:000064e8       ??_C@_1M@MBFDNDND@?$AAz?$AAh?$AA?9?$AAs?$AAg?$AA?$AA@ 000000014007b4e8     LIBCMT:winapinls.obj
 0002:000064f8       ??_C@_1M@IMEPLEPE@?$AAz?$AAh?$AA?9?$AAt?$AAw?$AA?$AA@ 000000014007b4f8     LIBCMT:winapinls.obj
 0002:00006508       ??_C@_1M@BBGHNHJP@?$AAz?$AAu?$AA?9?$AAz?$AAa?$AA?$AA@ 000000014007b508     LIBCMT:winapinls.obj
 0002:00006518       ??_C@_1BA@BALFACEM@?$AAC?$AAO?$AAN?$AAO?$AAU?$AAT?$AA$?$AA?$AA@ 000000014007b518     LIBCMT:initcon.obj
 0002:00006528       ??_C@_06PGGFOGJG@1?$CDSNAN?$AA@ 000000014007b528     LIBCMT:x10fout.obj
 0002:00006530       ??_C@_05PHHOCPM@1?$CDIND?$AA@ 000000014007b530     LIBCMT:x10fout.obj
 0002:00006538       ??_C@_05DNEBIAHO@1?$CDINF?$AA@ 000000014007b538     LIBCMT:x10fout.obj
 0002:00006540       ??_C@_06IMKFLFPG@1?$CDQNAN?$AA@ 000000014007b540     LIBCMT:x10fout.obj
 0002:00006550       __rg_language              000000014007b550     LIBCMT:getqloc.obj
 0002:00006960       ??_C@_1BC@LLOKLNP@?$AAa?$AAm?$AAe?$AAr?$AAi?$AAc?$AAa?$AAn?$AA?$AA@ 000000014007b960     LIBCMT:getqloc.obj
 0002:00006978       ??_C@_1CC@HEIGCDGG@?$AAa?$AAm?$AAe?$AAr?$AAi?$AAc?$AAa?$AAn?$AA?5?$AAe?$AAn?$AAg?$AAl?$AAi?$AAs?$AAh?$AA?$AA@ 000000014007b978     LIBCMT:getqloc.obj
 0002:000069a0       ??_C@_1CC@IHCNOMIN@?$AAa?$AAm?$AAe?$AAr?$AAi?$AAc?$AAa?$AAn?$AA?9?$AAe?$AAn?$AAg?$AAl?$AAi?$AAs?$AAh?$AA?$AA@ 000000014007b9a0     LIBCMT:getqloc.obj
 0002:000069c8       ??_C@_1BG@GKAGPCGG@?$AAa?$AAu?$AAs?$AAt?$AAr?$AAa?$AAl?$AAi?$AAa?$AAn?$AA?$AA@ 000000014007b9c8     LIBCMT:getqloc.obj
 0002:000069e0       ??_C@_1BA@GMENCENF@?$AAb?$AAe?$AAl?$AAg?$AAi?$AAa?$AAn?$AA?$AA@ 000000014007b9e0     LIBCMT:getqloc.obj
 0002:000069f0       ??_C@_1BC@PJMIIAAN@?$AAc?$AAa?$AAn?$AAa?$AAd?$AAi?$AAa?$AAn?$AA?$AA@ 000000014007b9f0     LIBCMT:getqloc.obj
 0002:00006a08       ??_C@_17NOIMNFBF@?$AAc?$AAh?$AAh?$AA?$AA@ 000000014007ba08     LIBCMT:getqloc.obj
 0002:00006a10       ??_C@_17GGDALCHA@?$AAc?$AAh?$AAi?$AA?$AA@ 000000014007ba10     LIBCMT:getqloc.obj
 0002:00006a18       ??_C@_1BA@NPNJKIBL@?$AAc?$AAh?$AAi?$AAn?$AAe?$AAs?$AAe?$AA?$AA@ 000000014007ba18     LIBCMT:getqloc.obj
 0002:00006a28       ??_C@_1CC@DINBAMMJ@?$AAc?$AAh?$AAi?$AAn?$AAe?$AAs?$AAe?$AA?9?$AAh?$AAo?$AAn?$AAg?$AAk?$AAo?$AAn?$AAg?$AA?$AA@ 000000014007ba28     LIBCMT:getqloc.obj
 0002:00006a50       ??_C@_1CG@IOBJPACO@?$AAc?$AAh?$AAi?$AAn?$AAe?$AAs?$AAe?$AA?9?$AAs?$AAi?$AAm?$AAp?$AAl?$AAi?$AAf?$AAi?$AAe?$AAd?$AA?$AA@ 000000014007ba50     LIBCMT:getqloc.obj
 0002:00006a78       ??_C@_1CE@GAJNDCKG@?$AAc?$AAh?$AAi?$AAn?$AAe?$AAs?$AAe?$AA?9?$AAs?$AAi?$AAn?$AAg?$AAa?$AAp?$AAo?$AAr?$AAe?$AA?$AA@ 000000014007ba78     LIBCMT:getqloc.obj
 0002:00006aa0       ??_C@_1CI@PAJPIOOD@?$AAc?$AAh?$AAi?$AAn?$AAe?$AAs?$AAe?$AA?9?$AAt?$AAr?$AAa?$AAd?$AAi?$AAt?$AAi?$AAo?$AAn?$AAa?$AAl?$AA?$AA@ 000000014007baa0     LIBCMT:getqloc.obj
 0002:00006ac8       ??_C@_1BM@NILJBMMD@?$AAd?$AAu?$AAt?$AAc?$AAh?$AA?9?$AAb?$AAe?$AAl?$AAg?$AAi?$AAa?$AAn?$AA?$AA@ 000000014007bac8     LIBCMT:getqloc.obj
 0002:00006ae8       ??_C@_1CC@OOJPJNEJ@?$AAe?$AAn?$AAg?$AAl?$AAi?$AAs?$AAh?$AA?9?$AAa?$AAm?$AAe?$AAr?$AAi?$AAc?$AAa?$AAn?$AA?$AA@ 000000014007bae8     LIBCMT:getqloc.obj
 0002:00006b10       ??_C@_1BI@IOLFEEM@?$AAe?$AAn?$AAg?$AAl?$AAi?$AAs?$AAh?$AA?9?$AAa?$AAu?$AAs?$AA?$AA@ 000000014007bb10     LIBCMT:getqloc.obj
 0002:00006b28       ??_C@_1BO@HFFNLENJ@?$AAe?$AAn?$AAg?$AAl?$AAi?$AAs?$AAh?$AA?9?$AAb?$AAe?$AAl?$AAi?$AAz?$AAe?$AA?$AA@ 000000014007bb28     LIBCMT:getqloc.obj
 0002:00006b48       ??_C@_1BI@HAPKJMPO@?$AAe?$AAn?$AAg?$AAl?$AAi?$AAs?$AAh?$AA?9?$AAc?$AAa?$AAn?$AA?$AA@ 000000014007bb48     LIBCMT:getqloc.obj
 0002:00006b60       ??_C@_1CE@HLNDMIOJ@?$AAe?$AAn?$AAg?$AAl?$AAi?$AAs?$AAh?$AA?9?$AAc?$AAa?$AAr?$AAi?$AAb?$AAb?$AAe?$AAa?$AAn?$AA?$AA@ 000000014007bb60     LIBCMT:getqloc.obj
 0002:00006b88       ??_C@_1BI@LDHJHHAC@?$AAe?$AAn?$AAg?$AAl?$AAi?$AAs?$AAh?$AA?9?$AAi?$AAr?$AAe?$AA?$AA@ 000000014007bb88     LIBCMT:getqloc.obj
 0002:00006ba0       ??_C@_1CA@NJMMCFOC@?$AAe?$AAn?$AAg?$AAl?$AAi?$AAs?$AAh?$AA?9?$AAj?$AAa?$AAm?$AAa?$AAi?$AAc?$AAa?$AA?$AA@ 000000014007bba0     LIBCMT:getqloc.obj
 0002:00006bc0       ??_C@_1BG@BHJEBBGG@?$AAe?$AAn?$AAg?$AAl?$AAi?$AAs?$AAh?$AA?9?$AAn?$AAz?$AA?$AA@ 000000014007bbc0     LIBCMT:getqloc.obj
 0002:00006bd8       ??_C@_1CK@FGOEJJCO@?$AAe?$AAn?$AAg?$AAl?$AAi?$AAs?$AAh?$AA?9?$AAs?$AAo?$AAu?$AAt?$AAh?$AA?5?$AAa?$AAf?$AAr?$AAi?$AAc?$AAa?$AA?$AA@ 000000014007bbd8     LIBCMT:getqloc.obj
 0002:00006c08       ??_C@_1DE@PDBJPCJ@?$AAe?$AAn?$AAg?$AAl?$AAi?$AAs?$AAh?$AA?9?$AAt?$AAr?$AAi?$AAn?$AAi?$AAd?$AAa?$AAd?$AA?5?$AAy?$AA?5?$AAt?$AAo?$AAb?$AAa?$AAg?$AAo?$AA?$AA@ 000000014007bc08     LIBCMT:getqloc.obj
 0002:00006c40       ??_C@_1BG@JGCANDME@?$AAe?$AAn?$AAg?$AAl?$AAi?$AAs?$AAh?$AA?9?$AAu?$AAk?$AA?$AA@ 000000014007bc40     LIBCMT:getqloc.obj
 0002:00006c58       ??_C@_1BG@DINKMLE@?$AAe?$AAn?$AAg?$AAl?$AAi?$AAs?$AAh?$AA?9?$AAu?$AAs?$AA?$AA@ 000000014007bc58     LIBCMT:getqloc.obj
 0002:00006c70       ??_C@_1BI@NMFDBHJE@?$AAe?$AAn?$AAg?$AAl?$AAi?$AAs?$AAh?$AA?9?$AAu?$AAs?$AAa?$AA?$AA@ 000000014007bc70     LIBCMT:getqloc.obj
 0002:00006c88       ??_C@_1BO@OIHKJKII@?$AAf?$AAr?$AAe?$AAn?$AAc?$AAh?$AA?9?$AAb?$AAe?$AAl?$AAg?$AAi?$AAa?$AAn?$AA?$AA@ 000000014007bc88     LIBCMT:getqloc.obj
 0002:00006ca8       ??_C@_1CA@NKAELJKI@?$AAf?$AAr?$AAe?$AAn?$AAc?$AAh?$AA?9?$AAc?$AAa?$AAn?$AAa?$AAd?$AAi?$AAa?$AAn?$AA?$AA@ 000000014007bca8     LIBCMT:getqloc.obj
 0002:00006cc8       ??_C@_1CE@MGKCNLGN@?$AAf?$AAr?$AAe?$AAn?$AAc?$AAh?$AA?9?$AAl?$AAu?$AAx?$AAe?$AAm?$AAb?$AAo?$AAu?$AAr?$AAg?$AA?$AA@ 000000014007bcc8     LIBCMT:getqloc.obj
 0002:00006cf0       ??_C@_1BK@CEGEAILM@?$AAf?$AAr?$AAe?$AAn?$AAc?$AAh?$AA?9?$AAs?$AAw?$AAi?$AAs?$AAs?$AA?$AA@ 000000014007bcf0     LIBCMT:getqloc.obj
 0002:00006d10       ??_C@_1CA@PAFKEOCC@?$AAg?$AAe?$AAr?$AAm?$AAa?$AAn?$AA?9?$AAa?$AAu?$AAs?$AAt?$AAr?$AAi?$AAa?$AAn?$AA?$AA@ 000000014007bd10     LIBCMT:getqloc.obj
 0002:00006d30       ??_C@_1CI@HCFHGOFD@?$AAg?$AAe?$AAr?$AAm?$AAa?$AAn?$AA?9?$AAl?$AAi?$AAc?$AAh?$AAt?$AAe?$AAn?$AAs?$AAt?$AAe?$AAi?$AAn?$AA?$AA@ 000000014007bd30     LIBCMT:getqloc.obj
 0002:00006d58       ??_C@_1CE@FEDDNPDG@?$AAg?$AAe?$AAr?$AAm?$AAa?$AAn?$AA?9?$AAl?$AAu?$AAx?$AAe?$AAm?$AAb?$AAo?$AAu?$AAr?$AAg?$AA?$AA@ 000000014007bd58     LIBCMT:getqloc.obj
 0002:00006d80       ??_C@_1BK@LIMINNMN@?$AAg?$AAe?$AAr?$AAm?$AAa?$AAn?$AA?9?$AAs?$AAw?$AAi?$AAs?$AAs?$AA?$AA@ 000000014007bd80     LIBCMT:getqloc.obj
 0002:00006da0       ??_C@_1BM@LGMDBEPD@?$AAi?$AAr?$AAi?$AAs?$AAh?$AA?9?$AAe?$AAn?$AAg?$AAl?$AAi?$AAs?$AAh?$AA?$AA@ 000000014007bda0     LIBCMT:getqloc.obj
 0002:00006dc0       ??_C@_1BM@NNCFBAEE@?$AAi?$AAt?$AAa?$AAl?$AAi?$AAa?$AAn?$AA?9?$AAs?$AAw?$AAi?$AAs?$AAs?$AA?$AA@ 000000014007bdc0     LIBCMT:getqloc.obj
 0002:00006de0       ??_C@_1BE@FEDJNPIB@?$AAn?$AAo?$AAr?$AAw?$AAe?$AAg?$AAi?$AAa?$AAn?$AA?$AA@ 000000014007bde0     LIBCMT:getqloc.obj
 0002:00006df8       ??_C@_1CC@CILKDEIE@?$AAn?$AAo?$AAr?$AAw?$AAe?$AAg?$AAi?$AAa?$AAn?$AA?9?$AAb?$AAo?$AAk?$AAm?$AAa?$AAl?$AA?$AA@ 000000014007bdf8     LIBCMT:getqloc.obj
 0002:00006e20       ??_C@_1CE@DHMMHEPL@?$AAn?$AAo?$AAr?$AAw?$AAe?$AAg?$AAi?$AAa?$AAn?$AA?9?$AAn?$AAy?$AAn?$AAo?$AAr?$AAs?$AAk?$AA?$AA@ 000000014007be20     LIBCMT:getqloc.obj
 0002:00006e48       ??_C@_1CK@OPNMHECD@?$AAp?$AAo?$AAr?$AAt?$AAu?$AAg?$AAu?$AAe?$AAs?$AAe?$AA?9?$AAb?$AAr?$AAa?$AAz?$AAi?$AAl?$AAi?$AAa?$AAn?$AA?$AA@ 000000014007be48     LIBCMT:getqloc.obj
 0002:00006e78       ??_C@_1CE@KEEHCDB@?$AAs?$AAp?$AAa?$AAn?$AAi?$AAs?$AAh?$AA?9?$AAa?$AAr?$AAg?$AAe?$AAn?$AAt?$AAi?$AAn?$AAa?$AA?$AA@ 000000014007be78     LIBCMT:getqloc.obj
 0002:00006ea0       ??_C@_1CA@GIAOLHJD@?$AAs?$AAp?$AAa?$AAn?$AAi?$AAs?$AAh?$AA?9?$AAb?$AAo?$AAl?$AAi?$AAv?$AAi?$AAa?$AA?$AA@ 000000014007bea0     LIBCMT:getqloc.obj
 0002:00006ec0       ??_C@_1BM@OJNDFNPD@?$AAs?$AAp?$AAa?$AAn?$AAi?$AAs?$AAh?$AA?9?$AAc?$AAh?$AAi?$AAl?$AAe?$AA?$AA@ 000000014007bec0     LIBCMT:getqloc.obj
 0002:00006ee0       ??_C@_1CC@OCOLPALL@?$AAs?$AAp?$AAa?$AAn?$AAi?$AAs?$AAh?$AA?9?$AAc?$AAo?$AAl?$AAo?$AAm?$AAb?$AAi?$AAa?$AA?$AA@ 000000014007bee0     LIBCMT:getqloc.obj
 0002:00006f08       ??_C@_1CG@BPOFMKBB@?$AAs?$AAp?$AAa?$AAn?$AAi?$AAs?$AAh?$AA?9?$AAc?$AAo?$AAs?$AAt?$AAa?$AA?5?$AAr?$AAi?$AAc?$AAa?$AA?$AA@ 000000014007bf08     LIBCMT:getqloc.obj
 0002:00006f30       ??_C@_1DG@IGOBAPBB@?$AAs?$AAp?$AAa?$AAn?$AAi?$AAs?$AAh?$AA?9?$AAd?$AAo?$AAm?$AAi?$AAn?$AAi?$AAc?$AAa?$AAn?$AA?5?$AAr?$AAe?$AAp?$AAu?$AAb?$AAl?$AAi?$AAc?$AA?$AA@ 000000014007bf30     LIBCMT:getqloc.obj
 0002:00006f68       ??_C@_1CA@JHAPGEGI@?$AAs?$AAp?$AAa?$AAn?$AAi?$AAs?$AAh?$AA?9?$AAe?$AAc?$AAu?$AAa?$AAd?$AAo?$AAr?$AA?$AA@ 000000014007bf68     LIBCMT:getqloc.obj
 0002:00006f88       ??_C@_1CI@LAPALJPP@?$AAs?$AAp?$AAa?$AAn?$AAi?$AAs?$AAh?$AA?9?$AAe?$AAl?$AA?5?$AAs?$AAa?$AAl?$AAv?$AAa?$AAd?$AAo?$AAr?$AA?$AA@ 000000014007bf88     LIBCMT:getqloc.obj
 0002:00006fb0       ??_C@_1CE@PDGBOFOM@?$AAs?$AAp?$AAa?$AAn?$AAi?$AAs?$AAh?$AA?9?$AAg?$AAu?$AAa?$AAt?$AAe?$AAm?$AAa?$AAl?$AAa?$AA?$AA@ 000000014007bfb0     LIBCMT:getqloc.obj
 0002:00006fd8       ??_C@_1CC@NBEBAODI@?$AAs?$AAp?$AAa?$AAn?$AAi?$AAs?$AAh?$AA?9?$AAh?$AAo?$AAn?$AAd?$AAu?$AAr?$AAa?$AAs?$AA?$AA@ 000000014007bfd8     LIBCMT:getqloc.obj
 0002:00007000       ??_C@_1CA@LLKGHBMF@?$AAs?$AAp?$AAa?$AAn?$AAi?$AAs?$AAh?$AA?9?$AAm?$AAe?$AAx?$AAi?$AAc?$AAa?$AAn?$AA?$AA@ 000000014007c000     LIBCMT:getqloc.obj
 0002:00007020       ??_C@_1BO@LKNDOIGD@?$AAs?$AAp?$AAa?$AAn?$AAi?$AAs?$AAh?$AA?9?$AAm?$AAo?$AAd?$AAe?$AAr?$AAn?$AA?$AA@ 000000014007c020     LIBCMT:getqloc.obj
 0002:00007040       ??_C@_1CE@NMDMOEEB@?$AAs?$AAp?$AAa?$AAn?$AAi?$AAs?$AAh?$AA?9?$AAn?$AAi?$AAc?$AAa?$AAr?$AAa?$AAg?$AAu?$AAa?$AA?$AA@ 000000014007c040     LIBCMT:getqloc.obj
 0002:00007068       ??_C@_1BO@LLCBEJGB@?$AAs?$AAp?$AAa?$AAn?$AAi?$AAs?$AAh?$AA?9?$AAp?$AAa?$AAn?$AAa?$AAm?$AAa?$AA?$AA@ 000000014007c068     LIBCMT:getqloc.obj
 0002:00007088       ??_C@_1CC@FKPGGIHO@?$AAs?$AAp?$AAa?$AAn?$AAi?$AAs?$AAh?$AA?9?$AAp?$AAa?$AAr?$AAa?$AAg?$AAu?$AAa?$AAy?$AA?$AA@ 000000014007c088     LIBCMT:getqloc.obj
 0002:000070b0       ??_C@_1BK@CDEIHOOP@?$AAs?$AAp?$AAa?$AAn?$AAi?$AAs?$AAh?$AA?9?$AAp?$AAe?$AAr?$AAu?$AA?$AA@ 000000014007c0b0     LIBCMT:getqloc.obj
 0002:000070d0       ??_C@_1CI@GAHAKKGP@?$AAs?$AAp?$AAa?$AAn?$AAi?$AAs?$AAh?$AA?9?$AAp?$AAu?$AAe?$AAr?$AAt?$AAo?$AA?5?$AAr?$AAi?$AAc?$AAo?$AA?$AA@ 000000014007c0d0     LIBCMT:getqloc.obj
 0002:000070f8       ??_C@_1CA@NKJBCAGP@?$AAs?$AAp?$AAa?$AAn?$AAi?$AAs?$AAh?$AA?9?$AAu?$AAr?$AAu?$AAg?$AAu?$AAa?$AAy?$AA?$AA@ 000000014007c0f8     LIBCMT:getqloc.obj
 0002:00007118       ??_C@_1CE@ODILCONM@?$AAs?$AAp?$AAa?$AAn?$AAi?$AAs?$AAh?$AA?9?$AAv?$AAe?$AAn?$AAe?$AAz?$AAu?$AAe?$AAl?$AAa?$AA?$AA@ 000000014007c118     LIBCMT:getqloc.obj
 0002:00007140       ??_C@_1CA@OBNMCGFO@?$AAs?$AAw?$AAe?$AAd?$AAi?$AAs?$AAh?$AA?9?$AAf?$AAi?$AAn?$AAl?$AAa?$AAn?$AAd?$AA?$AA@ 000000014007c140     LIBCMT:getqloc.obj
 0002:00007160       ??_C@_1M@PIPDDPPI@?$AAs?$AAw?$AAi?$AAs?$AAs?$AA?$AA@ 000000014007c160     LIBCMT:getqloc.obj
 0002:0000716c       ??_C@_15GMFIMNFM@?$AAu?$AAs?$AA?$AA@ 000000014007c16c     LIBCMT:getqloc.obj
 0002:00007178       ??_C@_17HAEBFAGL@?$AAu?$AAs?$AAa?$AA?$AA@ 000000014007c178     LIBCMT:getqloc.obj
 0002:00007180       __rg_country               000000014007c180     LIBCMT:getqloc.obj
 0002:000072f0       ??_C@_1BA@DPFJEPHB@?$AAa?$AAm?$AAe?$AAr?$AAi?$AAc?$AAa?$AA?$AA@ 000000014007c2f0     LIBCMT:getqloc.obj
 0002:00007300       ??_C@_1BA@ELOGGFK@?$AAb?$AAr?$AAi?$AAt?$AAa?$AAi?$AAn?$AA?$AA@ 000000014007c300     LIBCMT:getqloc.obj
 0002:00007310       ??_C@_1M@GHBGIGDA@?$AAc?$AAh?$AAi?$AAn?$AAa?$AA?$AA@ 000000014007c310     LIBCMT:getqloc.obj
 0002:00007320       ??_C@_1M@NCHEJOPO@?$AAc?$AAz?$AAe?$AAc?$AAh?$AA?$AA@ 000000014007c320     LIBCMT:getqloc.obj
 0002:00007330       ??_C@_1BA@BKPAPBLA@?$AAe?$AAn?$AAg?$AAl?$AAa?$AAn?$AAd?$AA?$AA@ 000000014007c330     LIBCMT:getqloc.obj
 0002:00007340       ??_C@_1BM@HKBCKIPC@?$AAg?$AAr?$AAe?$AAa?$AAt?$AA?5?$AAb?$AAr?$AAi?$AAt?$AAa?$AAi?$AAn?$AA?$AA@ 000000014007c340     LIBCMT:getqloc.obj
 0002:00007360       ??_C@_1BA@PPCHPGJB@?$AAh?$AAo?$AAl?$AAl?$AAa?$AAn?$AAd?$AA?$AA@ 000000014007c360     LIBCMT:getqloc.obj
 0002:00007370       ??_C@_1BE@JBMPEGDG@?$AAh?$AAo?$AAn?$AAg?$AA?9?$AAk?$AAo?$AAn?$AAg?$AA?$AA@ 000000014007c370     LIBCMT:getqloc.obj
 0002:00007388       ??_C@_1BI@KOELBBPJ@?$AAn?$AAe?$AAw?$AA?9?$AAz?$AAe?$AAa?$AAl?$AAa?$AAn?$AAd?$AA?$AA@ 000000014007c388     LIBCMT:getqloc.obj
 0002:000073a0       ??_C@_15HIEBHAIO@?$AAn?$AAz?$AA?$AA@ 000000014007c3a0     LIBCMT:getqloc.obj
 0002:000073a8       ??_C@_1BC@CHBCPFPI@?$AAp?$AAr?$AA?5?$AAc?$AAh?$AAi?$AAn?$AAa?$AA?$AA@ 000000014007c3a8     LIBCMT:getqloc.obj
 0002:000073c0       ??_C@_1BC@JAOIIFKD@?$AAp?$AAr?$AA?9?$AAc?$AAh?$AAi?$AAn?$AAa?$AA?$AA@ 000000014007c3c0     LIBCMT:getqloc.obj
 0002:000073d8       ??_C@_1BI@BEHPPHKC@?$AAp?$AAu?$AAe?$AAr?$AAt?$AAo?$AA?9?$AAr?$AAi?$AAc?$AAo?$AA?$AA@ 000000014007c3d8     LIBCMT:getqloc.obj
 0002:000073f0       ??_C@_1O@PAEOFKDI@?$AAs?$AAl?$AAo?$AAv?$AAa?$AAk?$AA?$AA@ 000000014007c3f0     LIBCMT:getqloc.obj
 0002:00007400       ??_C@_1BK@FIHMCKAM@?$AAs?$AAo?$AAu?$AAt?$AAh?$AA?5?$AAa?$AAf?$AAr?$AAi?$AAc?$AAa?$AA?$AA@ 000000014007c400     LIBCMT:getqloc.obj
 0002:00007420       ??_C@_1BI@NAEOODKB@?$AAs?$AAo?$AAu?$AAt?$AAh?$AA?5?$AAk?$AAo?$AAr?$AAe?$AAa?$AA?$AA@ 000000014007c420     LIBCMT:getqloc.obj
 0002:00007438       ??_C@_1BK@FBDGGIFF@?$AAs?$AAo?$AAu?$AAt?$AAh?$AA?9?$AAa?$AAf?$AAr?$AAi?$AAc?$AAa?$AA?$AA@ 000000014007c438     LIBCMT:getqloc.obj
 0002:00007458       ??_C@_1BI@GHLEJDPK@?$AAs?$AAo?$AAu?$AAt?$AAh?$AA?9?$AAk?$AAo?$AAr?$AAe?$AAa?$AA?$AA@ 000000014007c458     LIBCMT:getqloc.obj
 0002:00007470       ??_C@_1CE@PLHLOMJF@?$AAt?$AAr?$AAi?$AAn?$AAi?$AAd?$AAa?$AAd?$AA?5?$AA?$CG?$AA?5?$AAt?$AAo?$AAb?$AAa?$AAg?$AAo?$AA?$AA@ 000000014007c470     LIBCMT:getqloc.obj
 0002:00007498       ??_C@_1BO@MODIMHHI@?$AAu?$AAn?$AAi?$AAt?$AAe?$AAd?$AA?9?$AAk?$AAi?$AAn?$AAg?$AAd?$AAo?$AAm?$AA?$AA@ 000000014007c498     LIBCMT:getqloc.obj
 0002:000074b8       ??_C@_1BM@FFHJONBJ@?$AAu?$AAn?$AAi?$AAt?$AAe?$AAd?$AA?9?$AAs?$AAt?$AAa?$AAt?$AAe?$AAs?$AA?$AA@ 000000014007c4b8     LIBCMT:getqloc.obj
 0002:000074d4       __rg_language_count        000000014007c4d4     LIBCMT:getqloc.obj
 0002:000074d8       __rg_country_count         000000014007c4d8     LIBCMT:getqloc.obj
 0002:000074e0       ??_C@_17DNCLJFIF@?$AAA?$AAC?$AAP?$AA?$AA@ 000000014007c4e0     LIBCMT:getqloc.obj
 0002:000074e8       ??_C@_17CIKBIHLH@?$AAO?$AAC?$AAP?$AA?$AA@ 000000014007c4e8     LIBCMT:getqloc.obj
 0002:000074f0       __rglangidNotDefault       000000014007c4f0     LIBCMT:getqloc_downlevel.obj
 0002:00007510       _load_config_used          000000014007c510     LIBCMT:loadcfg.obj
 0002:00008b70       _tls_used                  000000014007db70     LIBCMT:tlssup.obj
 0002:00008e20       __rtc_iaa                  000000014007de20     LIBCMT:initsect.obj
 0002:00008f30       __rtc_izz                  000000014007df30     LIBCMT:initsect.obj
 0002:00009040       __rtc_taa                  000000014007e040     LIBCMT:initsect.obj
 0002:00009150       __rtc_tzz                  000000014007e150     LIBCMT:initsect.obj
 0003:00001e40       _D4main12__ModuleInfoZ     0000000140086e40     Framework.exe.obj
 0003:00001eb0       _D6System6_Class16GenericUriParser12__ModuleInfoZ 0000000140086eb0     Framework.exe.obj
 0003:00001f10       _D6System5_Enum17ConsoleSpecialKey12__ModuleInfoZ 0000000140086f10     Framework.exe.obj
 0003:00001f70       _D6System10_Interface16ICustomFormatter16ICustomFormatter11__InterfaceZ 0000000140086f70     Framework.exe.obj
 0003:00002010       _D6System10_Interface16ICustomFormatter12__ModuleInfoZ 0000000140087010     Framework.exe.obj
 0003:00002060       _D6System6_Class4Type4Type6__initZ 0000000140087060     Framework.exe.obj
 0003:00002090       _D6System6_Class4Type4Type7__ClassZ 0000000140087090     Framework.exe.obj
 0003:00002130       _D6System6_Class4Type4Type6__vtblZ 0000000140087130     Framework.exe.obj
 0003:00002180       _D6System6_Class4Type12__ModuleInfoZ 0000000140087180     Framework.exe.obj
 0003:000021bc       _D6System6_Class5Int325Int328MaxValuexi 00000001400871bc     Framework.exe.obj
 0003:000021c0       _D6System6_Class5Int325Int328MinValuexi 00000001400871c0     Framework.exe.obj
 0003:00002230       _D6System6_Class5Int325Int326__initZ 0000000140087230     Framework.exe.obj
 0003:00002280       _D6System6_Class5Int325Int327__ClassZ 0000000140087280     Framework.exe.obj
 0003:000023b0       _D6System6_Class5Int325Int326__vtblZ 00000001400873b0     Framework.exe.obj
 0003:000024c0       _D6System6_Class5Int3212__ModuleInfoZ 00000001400874c0     Framework.exe.obj
 0003:000025b0       _D6System7_Struct11ArgIterator12__ModuleInfoZ 00000001400875b0     Framework.exe.obj
 0003:00002620       _D6System5_Enum16StringComparison12__ModuleInfoZ 0000000140087620     Framework.exe.obj
 0003:000026a0       _D6System6_Class22ConsoleCancelEventArgs22ConsoleCancelEventArgs6__initZ 00000001400876a0     Framework.exe.obj
 0003:00002700       _D6System6_Class22ConsoleCancelEventArgs22ConsoleCancelEventArgs7__ClassZ 0000000140087700     Framework.exe.obj
 0003:000027a0       _D6System6_Class22ConsoleCancelEventArgs22ConsoleCancelEventArgs6__vtblZ 00000001400877a0     Framework.exe.obj
 0003:000027f0       _D6System6_Class22ConsoleCancelEventArgs12__ModuleInfoZ 00000001400877f0     Framework.exe.obj
 0003:00002874       _D6System5_Enum16AttributeTargets16AttributeTargets6__initZ 0000000140087874     Framework.exe.obj
 0003:00002880       _D6System5_Enum16AttributeTargets12__ModuleInfoZ 0000000140087880     Framework.exe.obj
 0003:000028f0       _D6System5_Enum12UriEnumTypes13UriComponents6__initZ 00000001400878f0     Framework.exe.obj
 0003:00002918       _D6System5_Enum12UriEnumTypes9UriFormat6__initZ 0000000140087918     Framework.exe.obj
 0003:000029a0       _D6System5_Enum12UriEnumTypes12__ModuleInfoZ 00000001400879a0     Framework.exe.obj
 0003:000029d0       _D6System9_Delegate13AsyncCallback12__ModuleInfoZ 00000001400879d0     Framework.exe.obj
 0003:00002a10       _D6System9_Delegate12EventHandler12__ModuleInfoZ 0000000140087a10     Framework.exe.obj
 0003:00002a80       _D6System10_Interface12IAsyncResult12IAsyncResult11__InterfaceZ 0000000140087a80     Framework.exe.obj
 0003:00002b20       _D6System10_Interface12IAsyncResult12__ModuleInfoZ 0000000140087b20     Framework.exe.obj
 0003:00002b80       _D6System7_Struct8DateTime12__ModuleInfoZ 0000000140087b80     Framework.exe.obj
 0003:00002bc4       _D6System5_Enum10ConsoleKey10ConsoleKey6__initZ 0000000140087bc4     Framework.exe.obj
 0003:00002bd0       _D6System5_Enum10ConsoleKey12__ModuleInfoZ 0000000140087bd0     Framework.exe.obj
 0003:00002c20       _D6System5_Enum12DateTimeKind12__ModuleInfoZ 0000000140087c20     Framework.exe.obj
 0003:00002c50       _D6System9_Delegate6Action12__ModuleInfoZ 0000000140087c50     Framework.exe.obj
 0003:00002cc0       _D6System6_Class2GC12__ModuleInfoZ 0000000140087cc0     Framework.exe.obj
 0003:00002d08       _D6System5_Enum16ConsoleModifiers16ConsoleModifiers6__initZ 0000000140087d08     Framework.exe.obj
 0003:00002d10       _D6System5_Enum16ConsoleModifiers12__ModuleInfoZ 0000000140087d10     Framework.exe.obj
 0003:00002d40       _D6System6_Class9AppDomain12__ModuleInfoZ 0000000140087d40     Framework.exe.obj
 0003:00002da0       _D6System6_Class6String12__ModuleInfoZ 0000000140087da0     Framework.exe.obj
 0003:00002de0       _D6System5_Enum9DayOfWeek12__ModuleInfoZ 0000000140087de0     Framework.exe.obj
 0003:00002e30       _D6System10_Interface11IDisposable11IDisposable11__InterfaceZ 0000000140087e30     Framework.exe.obj
 0003:00002ed0       _D6System10_Interface11IDisposable12__ModuleInfoZ 0000000140087ed0     Framework.exe.obj
 0003:00002f30       _D6System10_Interface11IComparable11IComparable11__InterfaceZ 0000000140087f30     Framework.exe.obj
 0003:00002fd0       _D6System10_Interface11IComparable12__ModuleInfoZ 0000000140087fd0     Framework.exe.obj
 0003:00003030       _D6System10_Interface10ICloneable10ICloneable11__InterfaceZ 0000000140088030     Framework.exe.obj
 0003:000030d0       _D6System10_Interface10ICloneable12__ModuleInfoZ 00000001400880d0     Framework.exe.obj
 0003:00003120       _D6System6_Class9EventArgs9EventArgs5EmptyyC6System6_Class9EventArgs9EventArgs 0000000140088120     Framework.exe.obj
 0003:00003130       _D6System6_Class9EventArgs9EventArgs6__initZ 0000000140088130     Framework.exe.obj
 0003:00003170       _D6System6_Class9EventArgs9EventArgs7__ClassZ 0000000140088170     Framework.exe.obj
 0003:00003210       _D6System6_Class9EventArgs9EventArgs6__vtblZ 0000000140088210     Framework.exe.obj
 0003:00003260       _D6System6_Class9EventArgs12__ModuleInfoZ 0000000140088260     Framework.exe.obj
 0003:000032c0       _D6System5_Enum10PlatformID12__ModuleInfoZ 00000001400882c0     Framework.exe.obj
 0003:000033c0       _D6System6_Class9Exception13BaseException6__initZ 00000001400883c0     Framework.exe.obj
 0003:00003440       _D6System6_Class9Exception13BaseException7__ClassZ 0000000140088440     Framework.exe.obj
 0003:000034e0       _D6System6_Class9Exception13BaseException6__vtblZ 00000001400884e0     Framework.exe.obj
 0003:00003550       _D6System6_Class9Exception12__ModuleInfoZ 0000000140088550     Framework.exe.obj
 0003:00003590       _D6System6_Class10__HResults10__HResults11RO_E_CLOSEDxi 0000000140088590     Framework.exe.obj
 0003:00003594       _D6System6_Class10__HResults10__HResults8E_BOUNDSxi 0000000140088594     Framework.exe.obj
 0003:00003598       _D6System6_Class10__HResults10__HResults15E_CHANGED_STATExi 0000000140088598     Framework.exe.obj
 0003:0000359c       _D6System6_Class10__HResults10__HResults6E_FAILxi 000000014008859c     Framework.exe.obj
 0003:000035a0       _D6System6_Class10__HResults10__HResults9E_POINTERxi 00000001400885a0     Framework.exe.obj
 0003:000035a4       _D6System6_Class10__HResults10__HResults9E_NOTIMPLxi 00000001400885a4     Framework.exe.obj
 0003:000035a8       _D6System6_Class10__HResults10__HResults20COR_E_AMBIGUOUSMATCHxi 00000001400885a8     Framework.exe.obj
 0003:000035ac       _D6System6_Class10__HResults10__HResults23COR_E_APPDOMAINUNLOADEDxi 00000001400885ac     Framework.exe.obj
 0003:000035b0       _D6System6_Class10__HResults10__HResults17COR_E_APPLICATIONxi 00000001400885b0     Framework.exe.obj
 0003:000035b4       _D6System6_Class10__HResults10__HResults14COR_E_ARGUMENTxi 00000001400885b4     Framework.exe.obj
 0003:000035b8       _D6System6_Class10__HResults10__HResults24COR_E_ARGUMENTOUTOFRANGExi 00000001400885b8     Framework.exe.obj
 0003:000035bc       _D6System6_Class10__HResults10__HResults16COR_E_ARITHMETICxi 00000001400885bc     Framework.exe.obj
 0003:000035c0       _D6System6_Class10__HResults10__HResults23COR_E_ARRAYTYPEMISMATCHxi 00000001400885c0     Framework.exe.obj
 0003:000035c4       _D6System6_Class10__HResults10__HResults20COR_E_BADIMAGEFORMATxi 00000001400885c4     Framework.exe.obj
 0003:000035c8       _D6System6_Class10__HResults10__HResults18COR_E_TYPEUNLOADEDxi 00000001400885c8     Framework.exe.obj
 0003:000035cc       _D6System6_Class10__HResults10__HResults27COR_E_CANNOTUNLOADAPPDOMAINxi 00000001400885cc     Framework.exe.obj
 0003:000035d0       _D6System6_Class10__HResults10__HResults16COR_E_COMEMULATExi 00000001400885d0     Framework.exe.obj
 0003:000035d4       _D6System6_Class10__HResults10__HResults20COR_E_CONTEXTMARSHALxi 00000001400885d4     Framework.exe.obj
 0003:000035d8       _D6System6_Class10__HResults10__HResults20COR_E_DATAMISALIGNEDxi 00000001400885d8     Framework.exe.obj
 0003:000035dc       _D6System6_Class10__HResults10__HResults13COR_E_TIMEOUTxi 00000001400885dc     Framework.exe.obj
 0003:000035e0       _D6System6_Class10__HResults10__HResults27COR_E_CUSTOMATTRIBUTEFORMATxi 00000001400885e0     Framework.exe.obj
 0003:000035e4       _D6System6_Class10__HResults10__HResults18COR_E_DIVIDEBYZEROxi 00000001400885e4     Framework.exe.obj
 0003:000035e8       _D6System6_Class10__HResults10__HResults25COR_E_DUPLICATEWAITOBJECTxi 00000001400885e8     Framework.exe.obj
 0003:000035ec       _D6System6_Class10__HResults10__HResults15COR_E_EXCEPTIONxi 00000001400885ec     Framework.exe.obj
 0003:000035f0       _D6System6_Class10__HResults10__HResults21COR_E_EXECUTIONENGINExi 00000001400885f0     Framework.exe.obj
 0003:000035f4       _D6System6_Class10__HResults10__HResults17COR_E_FIELDACCESSxi 00000001400885f4     Framework.exe.obj
 0003:000035f8       _D6System6_Class10__HResults10__HResults12COR_E_FORMATxi 00000001400885f8     Framework.exe.obj
 0003:000035fc       _D6System6_Class10__HResults10__HResults21COR_E_INDEXOUTOFRANGExi 00000001400885fc     Framework.exe.obj
 0003:00003600       _D6System6_Class10__HResults10__HResults24COR_E_INSUFFICIENTMEMORYxi 0000000140088600     Framework.exe.obj
 0003:00003604       _D6System6_Class10__HResults10__HResults32COR_E_INSUFFICIENTEXECUTIONSTACKxi 0000000140088604     Framework.exe.obj
 0003:00003608       _D6System6_Class10__HResults10__HResults17COR_E_INVALIDCASTxi 0000000140088608     Framework.exe.obj
 0003:0000360c       _D6System6_Class10__HResults10__HResults22COR_E_INVALIDCOMOBJECTxi 000000014008860c     Framework.exe.obj
 0003:00003610       _D6System6_Class10__HResults10__HResults27COR_E_INVALIDFILTERCRITERIAxi 0000000140088610     Framework.exe.obj
 0003:00003614       _D6System6_Class10__HResults10__HResults27COR_E_INVALIDOLEVARIANTTYPExi 0000000140088614     Framework.exe.obj
 0003:00003618       _D6System6_Class10__HResults10__HResults22COR_E_INVALIDOPERATIONxi 0000000140088618     Framework.exe.obj
 0003:0000361c       _D6System6_Class10__HResults10__HResults20COR_E_INVALIDPROGRAMxi 000000014008861c     Framework.exe.obj
 0003:00003620       _D6System6_Class10__HResults10__HResults17COR_E_KEYNOTFOUNDxi 0000000140088620     Framework.exe.obj
 0003:00003624       _D6System6_Class10__HResults10__HResults22COR_E_MARSHALDIRECTIVExi 0000000140088624     Framework.exe.obj
 0003:00003628       _D6System6_Class10__HResults10__HResults18COR_E_MEMBERACCESSxi 0000000140088628     Framework.exe.obj
 0003:0000362c       _D6System6_Class10__HResults10__HResults18COR_E_METHODACCESSxi 000000014008862c     Framework.exe.obj
 0003:00003630       _D6System6_Class10__HResults10__HResults18COR_E_MISSINGFIELDxi 0000000140088630     Framework.exe.obj
 0003:00003634       _D6System6_Class10__HResults10__HResults29COR_E_MISSINGMANIFESTRESOURCExi 0000000140088634     Framework.exe.obj
 0003:00003638       _D6System6_Class10__HResults10__HResults19COR_E_MISSINGMEMBERxi 0000000140088638     Framework.exe.obj
 0003:0000363c       _D6System6_Class10__HResults10__HResults19COR_E_MISSINGMETHODxi 000000014008863c     Framework.exe.obj
 0003:00003640       _D6System6_Class10__HResults10__HResults30COR_E_MISSINGSATELLITEASSEMBLYxi 0000000140088640     Framework.exe.obj
 0003:00003644       _D6System6_Class10__HResults10__HResults27COR_E_MULTICASTNOTSUPPORTEDxi 0000000140088644     Framework.exe.obj
 0003:00003648       _D6System6_Class10__HResults10__HResults21COR_E_NOTFINITENUMBERxi 0000000140088648     Framework.exe.obj
 0003:0000364c       _D6System6_Class10__HResults10__HResults26COR_E_PLATFORMNOTSUPPORTEDxi 000000014008864c     Framework.exe.obj
 0003:00003650       _D6System6_Class10__HResults10__HResults18COR_E_NOTSUPPORTEDxi 0000000140088650     Framework.exe.obj
 0003:00003654       _D6System6_Class10__HResults10__HResults19COR_E_NULLREFERENCExi 0000000140088654     Framework.exe.obj
 0003:00003658       _D6System6_Class10__HResults10__HResults20COR_E_OBJECTDISPOSEDxi 0000000140088658     Framework.exe.obj
 0003:0000365c       _D6System6_Class10__HResults10__HResults23COR_E_OPERATIONCANCELEDxi 000000014008865c     Framework.exe.obj
 0003:00003660       _D6System6_Class10__HResults10__HResults17COR_E_OUTOFMEMORYxi 0000000140088660     Framework.exe.obj
 0003:00003664       _D6System6_Class10__HResults10__HResults14COR_E_OVERFLOWxi 0000000140088664     Framework.exe.obj
 0003:00003668       _D6System6_Class10__HResults10__HResults10COR_E_RANKxi 0000000140088668     Framework.exe.obj
 0003:0000366c       _D6System6_Class10__HResults10__HResults24COR_E_REFLECTIONTYPELOADxi 000000014008866c     Framework.exe.obj
 0003:00003670       _D6System6_Class10__HResults10__HResults20COR_E_RUNTIMEWRAPPEDxi 0000000140088670     Framework.exe.obj
 0003:00003674       _D6System6_Class10__HResults10__HResults27COR_E_SAFEARRAYRANKMISMATCHxi 0000000140088674     Framework.exe.obj
 0003:00003678       _D6System6_Class10__HResults10__HResults27COR_E_SAFEARRAYTYPEMISMATCHxi 0000000140088678     Framework.exe.obj
 0003:0000367c       _D6System6_Class10__HResults10__HResults32COR_E_SAFEHANDLEMISSINGATTRIBUTExi 000000014008867c     Framework.exe.obj
 0003:00003680       _D6System6_Class10__HResults10__HResults14COR_E_SECURITYxi 0000000140088680     Framework.exe.obj
 0003:00003684       _D6System6_Class10__HResults10__HResults19COR_E_SERIALIZATIONxi 0000000140088684     Framework.exe.obj
 0003:00003688       _D6System6_Class10__HResults10__HResults19COR_E_SEMAPHOREFULLxi 0000000140088688     Framework.exe.obj
 0003:0000368c       _D6System6_Class10__HResults10__HResults30COR_E_WAITHANDLECANNOTBEOPENEDxi 000000014008868c     Framework.exe.obj
 0003:00003690       _D6System6_Class10__HResults10__HResults20COR_E_ABANDONEDMUTEXxi 0000000140088690     Framework.exe.obj
 0003:00003694       _D6System6_Class10__HResults10__HResults19COR_E_STACKOVERFLOWxi 0000000140088694     Framework.exe.obj
 0003:00003698       _D6System6_Class10__HResults10__HResults25COR_E_SYNCHRONIZATIONLOCKxi 0000000140088698     Framework.exe.obj
 0003:0000369c       _D6System6_Class10__HResults10__HResults12COR_E_SYSTEMxi 000000014008869c     Framework.exe.obj
 0003:000036a0       _D6System6_Class10__HResults10__HResults12COR_E_TARGETxi 00000001400886a0     Framework.exe.obj
 0003:000036a4       _D6System6_Class10__HResults10__HResults22COR_E_TARGETINVOCATIONxi 00000001400886a4     Framework.exe.obj
 0003:000036a8       _D6System6_Class10__HResults10__HResults22COR_E_TARGETPARAMCOUNTxi 00000001400886a8     Framework.exe.obj
 0003:000036ac       _D6System6_Class10__HResults10__HResults19COR_E_THREADABORTEDxi 00000001400886ac     Framework.exe.obj
 0003:000036b0       _D6System6_Class10__HResults10__HResults23COR_E_THREADINTERRUPTEDxi 00000001400886b0     Framework.exe.obj
 0003:000036b4       _D6System6_Class10__HResults10__HResults17COR_E_THREADSTATExi 00000001400886b4     Framework.exe.obj
 0003:000036b8       _D6System6_Class10__HResults10__HResults16COR_E_THREADSTOPxi 00000001400886b8     Framework.exe.obj
 0003:000036bc       _D6System6_Class10__HResults10__HResults17COR_E_THREADSTARTxi 00000001400886bc     Framework.exe.obj
 0003:000036c0       _D6System6_Class10__HResults10__HResults16COR_E_TYPEACCESSxi 00000001400886c0     Framework.exe.obj
 0003:000036c4       _D6System6_Class10__HResults10__HResults24COR_E_TYPEINITIALIZATIONxi 00000001400886c4     Framework.exe.obj
 0003:000036c8       _D6System6_Class10__HResults10__HResults14COR_E_TYPELOADxi 00000001400886c8     Framework.exe.obj
 0003:000036cc       _D6System6_Class10__HResults10__HResults24COR_E_ENTRYPOINTNOTFOUNDxi 00000001400886cc     Framework.exe.obj
 0003:000036d0       _D6System6_Class10__HResults10__HResults17COR_E_DLLNOTFOUNDxi 00000001400886d0     Framework.exe.obj
 0003:000036d4       _D6System6_Class10__HResults10__HResults24COR_E_UNAUTHORIZEDACCESSxi 00000001400886d4     Framework.exe.obj
 0003:000036d8       _D6System6_Class10__HResults10__HResults23COR_E_UNSUPPORTEDFORMATxi 00000001400886d8     Framework.exe.obj
 0003:000036dc       _D6System6_Class10__HResults10__HResults18COR_E_VERIFICATIONxi 00000001400886dc     Framework.exe.obj
 0003:000036e0       _D6System6_Class10__HResults10__HResults20COR_E_HOSTPROTECTIONxi 00000001400886e0     Framework.exe.obj
 0003:000036e4       _D6System6_Class10__HResults10__HResults23CORSEC_E_MIN_GRANT_FAILxi 00000001400886e4     Framework.exe.obj
 0003:000036e8       _D6System6_Class10__HResults10__HResults21CORSEC_E_NO_EXEC_PERMxi 00000001400886e8     Framework.exe.obj
 0003:000036ec       _D6System6_Class10__HResults10__HResults25CORSEC_E_POLICY_EXCEPTIONxi 00000001400886ec     Framework.exe.obj
 0003:000036f0       _D6System6_Class10__HResults10__HResults18CORSEC_E_XMLSYNTAXxi 00000001400886f0     Framework.exe.obj
 0003:000036f4       _D6System6_Class10__HResults10__HResults8NTE_FAILxi 00000001400886f4     Framework.exe.obj
 0003:000036f8       _D6System6_Class10__HResults10__HResults15CORSEC_E_CRYPTOxi 00000001400886f8     Framework.exe.obj
 0003:000036fc       _D6System6_Class10__HResults10__HResults25CORSEC_E_CRYPTO_UNEX_OPERxi 00000001400886fc     Framework.exe.obj
 0003:00003700       _D6System6_Class10__HResults10__HResults15DISP_E_OVERFLOWxi 0000000140088700     Framework.exe.obj
 0003:00003704       _D6System6_Class10__HResults10__HResults25FUSION_E_REF_DEF_MISMATCHxi 0000000140088704     Framework.exe.obj
 0003:00003708       _D6System6_Class10__HResults10__HResults21FUSION_E_INVALID_NAMExi 0000000140088708     Framework.exe.obj
 0003:0000370c       _D6System6_Class10__HResults10__HResults19TYPE_E_TYPEMISMATCHxi 000000014008870c     Framework.exe.obj
 0003:00003710       _D6System6_Class10__HResults10__HResults6__initZ 0000000140088710     Framework.exe.obj
 0003:00003750       _D6System6_Class10__HResults10__HResults7__ClassZ 0000000140088750     Framework.exe.obj
 0003:000037f0       _D6System6_Class10__HResults10__HResults6__vtblZ 00000001400887f0     Framework.exe.obj
 0003:00003840       _D6System6_Class10__HResults12__ModuleInfoZ 0000000140088840     Framework.exe.obj
 0003:000038b0       _D6System6_Class15SystemException15SystemException6__initZ 00000001400888b0     Framework.exe.obj
 0003:00003930       _D6System6_Class15SystemException15SystemException7__ClassZ 0000000140088930     Framework.exe.obj
 0003:000039d0       _D6System6_Class15SystemException15SystemException6__vtblZ 00000001400889d0     Framework.exe.obj
 0003:00003a40       _D6System6_Class15SystemException12__ModuleInfoZ 0000000140088a40     Framework.exe.obj
 0003:00003a90       _D6System10_Interface9IProgress12__ModuleInfoZ 0000000140088a90     Framework.exe.obj
 0003:00003af0       _D6System10_Interface15IAppDomainSetup15IAppDomainSetup11__InterfaceZ 0000000140088af0     Framework.exe.obj
 0003:00003b90       _D6System10_Interface15IAppDomainSetup12__ModuleInfoZ 0000000140088b90     Framework.exe.obj
 0003:00003c00       _D6System10_Interface12IFormattable12IFormattable11__InterfaceZ 0000000140088c00     Framework.exe.obj
 0003:00003ca0       _D6System10_Interface12IFormattable12__ModuleInfoZ 0000000140088ca0     Framework.exe.obj
 0003:00003d20       _D6System10_Interface16IServiceProvider16IServiceProvider11__InterfaceZ 0000000140088d20     Framework.exe.obj
 0003:00003dc0       _D6System10_Interface16IServiceProvider12__ModuleInfoZ 0000000140088dc0     Framework.exe.obj
 0003:00003ea0       _D6System7_Struct21RuntimeArgumentHandle12__ModuleInfoZ 0000000140088ea0     Framework.exe.obj
 0003:00003f10       _D6System5_Enum12ConsoleColor12__ModuleInfoZ 0000000140088f10     Framework.exe.obj
 0003:00003f70       _D6System5_Enum16MidpointRounding12__ModuleInfoZ 0000000140088f70     Framework.exe.obj
 0003:00003fd0       _D6System10_Interface12IConvertible12IConvertible11__InterfaceZ 0000000140088fd0     Framework.exe.obj
 0003:00004070       _D6System10_Interface12IConvertible12__ModuleInfoZ 0000000140089070     Framework.exe.obj
 0003:000040f0       _D6System10_Interface15IFormatProvider15IFormatProvider11__InterfaceZ 00000001400890f0     Framework.exe.obj
 0003:00004190       _D6System10_Interface15IFormatProvider12__ModuleInfoZ 0000000140089190     Framework.exe.obj
 0003:000041e0       _D6System10_Interface9IObserver12__ModuleInfoZ 00000001400891e0     Framework.exe.obj
 0003:00004240       _D6System6_Class7Convert12__ModuleInfoZ 0000000140089240     Framework.exe.obj
 0003:00004290       _D6System6_Class24AccessViolationException24AccessViolationException6__initZ 0000000140089290     Framework.exe.obj
 0003:00004320       _D6System6_Class24AccessViolationException24AccessViolationException7__ClassZ 0000000140089320     Framework.exe.obj
 0003:000043c0       _D6System6_Class24AccessViolationException24AccessViolationException6__vtblZ 00000001400893c0     Framework.exe.obj
 0003:00004430       _D6System6_Class24AccessViolationException12__ModuleInfoZ 0000000140089430     Framework.exe.obj
 0003:00004480       _D6System27UnhandledExceptionEventArgs6__initZ 0000000140089480     Framework.exe.obj
 0003:000044c0       _D6System27UnhandledExceptionEventArgs7__ClassZ 00000001400894c0     Framework.exe.obj
 0003:00004560       _D6System27UnhandledExceptionEventArgs6__vtblZ 0000000140089560     Framework.exe.obj
 0003:000045b0       _D6System21AssemblyLoadEventArgs6__initZ 00000001400895b0     Framework.exe.obj
 0003:000045e0       _D6System21AssemblyLoadEventArgs7__ClassZ 00000001400895e0     Framework.exe.obj
 0003:00004680       _D6System21AssemblyLoadEventArgs6__vtblZ 0000000140089680     Framework.exe.obj
 0003:000046d0       _D6System16ResolveEventArgs6__initZ 00000001400896d0     Framework.exe.obj
 0003:00004700       _D6System16ResolveEventArgs7__ClassZ 0000000140089700     Framework.exe.obj
 0003:000047a0       _D6System16ResolveEventArgs6__vtblZ 00000001400897a0     Framework.exe.obj
 0003:000047f0       _D6System8Assembly6__initZ 00000001400897f0     Framework.exe.obj
 0003:00004810       _D6System8Assembly7__ClassZ 0000000140089810     Framework.exe.obj
 0003:000048b0       _D6System8Assembly6__vtblZ 00000001400898b0     Framework.exe.obj
 0003:00004950       _D6System17RuntimeTypeHandle6__initZ 0000000140089950     Framework.exe.obj
 0003:00004980       _D6System17RuntimeTypeHandle7__ClassZ 0000000140089980     Framework.exe.obj
 0003:00004a20       _D6System17RuntimeTypeHandle6__vtblZ 0000000140089a20     Framework.exe.obj
 0003:00004ad0       _D6System21ArgumentNullException6__initZ 0000000140089ad0     Framework.exe.obj
 0003:00004b40       _D6System21ArgumentNullException7__ClassZ 0000000140089b40     Framework.exe.obj
 0003:00004be0       _D6System21ArgumentNullException6__vtblZ 0000000140089be0     Framework.exe.obj
 0003:00004c40       _D6System17ArgumentException6__initZ 0000000140089c40     Framework.exe.obj
 0003:00004cb0       _D6System17ArgumentException7__ClassZ 0000000140089cb0     Framework.exe.obj
 0003:00004d50       _D6System17ArgumentException6__vtblZ 0000000140089d50     Framework.exe.obj
 0003:00004db0       _D6System21NotSupportedException6__initZ 0000000140089db0     Framework.exe.obj
 0003:00004e20       _D6System21NotSupportedException7__ClassZ 0000000140089e20     Framework.exe.obj
 0003:00004ec0       _D6System21NotSupportedException6__vtblZ 0000000140089ec0     Framework.exe.obj
 0003:00004f20       _D6System11RuntimeType6__initZ 0000000140089f20     Framework.exe.obj
 0003:00004f50       _D6System11RuntimeType7__ClassZ 0000000140089f50     Framework.exe.obj
 0003:00004ff0       _D6System11RuntimeType6__vtblZ 0000000140089ff0     Framework.exe.obj
 0003:00005040       _D6System9ValueType6__initZ 000000014008a040     Framework.exe.obj
 0003:00005070       _D6System9ValueType7__ClassZ 000000014008a070     Framework.exe.obj
 0003:00005110       _D6System9ValueType6__vtblZ 000000014008a110     Framework.exe.obj
 0003:00005180       _D6System17SerializationInfo6__initZ 000000014008a180     Framework.exe.obj
 0003:000051b0       _D6System17SerializationInfo7__ClassZ 000000014008a1b0     Framework.exe.obj
 0003:00005250       _D6System17SerializationInfo6__vtblZ 000000014008a250     Framework.exe.obj
 0003:000052a0       _D6System11Environment6__initZ 000000014008a2a0     Framework.exe.obj
 0003:000052d0       _D6System11Environment7__ClassZ 000000014008a2d0     Framework.exe.obj
 0003:00005370       _D6System11Environment6__vtblZ 000000014008a370     Framework.exe.obj
 0003:000053c0       _D6System12__ModuleInfoZ   000000014008a3c0     Framework.exe.obj
 0003:000054e0       _D6System10_Interface10IEquatable12__ModuleInfoZ 000000014008a4e0     Framework.exe.obj
 0003:00005510       _D6System9_Delegate30UnhandledExceptionEventHandler12__ModuleInfoZ 000000014008a510     Framework.exe.obj
 0003:000055a0       _D6System6_Class27LoaderOptimizationAttribute12__ModuleInfoZ 000000014008a5a0     Framework.exe.obj
 0003:00005600       _D6System5_Enum8TypeCode12__ModuleInfoZ 000000014008a600     Framework.exe.obj
 0003:00005630       _D6System10_Interface11IObservable12__ModuleInfoZ 000000014008a630     Framework.exe.obj
 0003:000067b0       _D47TypeInfo_S3std6traits15__T8DemangleTkZ8Demangle6__initZ 000000014008b7b0     Framework.exe.obj
 0003:00006860       _D3std6traits15__T8DemangleTkZ8Demangle6__initZ 000000014008b860     Framework.exe.obj
 0003:00006880       _D76TypeInfo_S3std8internal14unicode_tables25__T9TrieEntryTbVi8Vi4Vi9Z9TrieEntry6__initZ 000000014008b880     Framework.exe.obj
 0003:00006930       _D3std8internal14unicode_tables25__T9TrieEntryTbVi8Vi4Vi9Z9TrieEntry6__initZ 000000014008b930     Framework.exe.obj
 0003:00006970       _D76TypeInfo_S3std8internal14unicode_tables25__T9TrieEntryTtVi8Vi7Vi6Z9TrieEntry6__initZ 000000014008b970     Framework.exe.obj
 0003:00006a20       _D3std8internal14unicode_tables25__T9TrieEntryTtVi8Vi7Vi6Z9TrieEntry6__initZ 000000014008ba20     Framework.exe.obj
 0003:00006a60       _D76TypeInfo_S3std8internal14unicode_tables25__T9TrieEntryTbVi8Vi5Vi8Z9TrieEntry6__initZ 000000014008ba60     Framework.exe.obj
 0003:00006b10       _D3std8internal14unicode_tables25__T9TrieEntryTbVi8Vi5Vi8Z9TrieEntry6__initZ 000000014008bb10     Framework.exe.obj
 0003:00006b50       _D76TypeInfo_S3std8internal14unicode_tables25__T9TrieEntryTbVi8Vi6Vi7Z9TrieEntry6__initZ 000000014008bb50     Framework.exe.obj
 0003:00006c00       _D3std8internal14unicode_tables25__T9TrieEntryTbVi8Vi6Vi7Z9TrieEntry6__initZ 000000014008bc00     Framework.exe.obj
 0003:00006c40       _D79TypeInfo_S3std8internal14unicode_tables28__T9TrieEntryTbVi7Vi4Vi4Vi6Z9TrieEntry6__initZ 000000014008bc40     Framework.exe.obj
 0003:00006cf0       _D3std8internal14unicode_tables28__T9TrieEntryTbVi7Vi4Vi4Vi6Z9TrieEntry6__initZ 000000014008bcf0     Framework.exe.obj
 0003:00006d30       _D53TypeInfo_S3std6format18__T10FormatSpecTaZ10FormatSpec6__initZ 000000014008bd30     Framework.exe.obj
 0003:00006de0       _D3std6format18__T10FormatSpecTaZ10FormatSpec6__initZ 000000014008bde0     Framework.exe.obj
 0003:00006e30       _D55TypeInfo_S3std5range21__T10OnlyResultTiVm2Z10OnlyResult6__initZ 000000014008be30     Framework.exe.obj
 0003:00006ee0       _D3std5range21__T10OnlyResultTiVm2Z10OnlyResult6__initZ 000000014008bee0     Framework.exe.obj
 0003:00006f00       _D57TypeInfo_S3std5range23__T10OnlyResultTAxaVm2Z10OnlyResult6__initZ 000000014008bf00     Framework.exe.obj
 0003:00006fb0       _D3std5range23__T10OnlyResultTAxaVm2Z10OnlyResult6__initZ 000000014008bfb0     Framework.exe.obj
 0003:00006ff0       _D63TypeInfo_S3std3uni25__T16SliceOverIndexedTAiZ16SliceOverIndexed6__initZ 000000014008bff0     Framework.exe.obj
 0003:000070a0       _D3std3uni25__T16SliceOverIndexedTAiZ16SliceOverIndexed6__initZ 000000014008c0a0     Framework.exe.obj
 0003:000070c0       _D50TypeInfo_S3std3uni20__T9sliceBitsVi4Vi7Z9sliceBits6__initZ 000000014008c0c0     Framework.exe.obj
 0003:00007170       _D3std3uni20__T9sliceBitsVi4Vi7Z9sliceBits6__initZ 000000014008c170     Framework.exe.obj
 0003:00007180       _D49TypeInfo_S3std3uni19__T9BitPackedTkVi2Z9BitPacked6__initZ 000000014008c180     Framework.exe.obj
 0003:00007230       _D3std3uni19__T9BitPackedTkVi2Z9BitPacked6__initZ 000000014008c230     Framework.exe.obj
 0003:00007240       _D11TypeInfo_Pv6__initZ    000000014008c240     Framework.exe.obj
 0003:00007260       _D47TypeInfo_S3std5array16__T8AppenderTAaZ8Appender6__initZ 000000014008c260     Framework.exe.obj
 0003:00007310       _D3std5array16__T8AppenderTAaZ8Appender6__initZ 000000014008c310     Framework.exe.obj
 0003:00007320       _D52TypeInfo_S3std5array16__T8AppenderTAaZ8Appender4Data6__initZ 000000014008c320     Framework.exe.obj
 0003:000073d0       _D3std5array16__T8AppenderTAaZ8Appender4Data6__initZ 000000014008c3d0     Framework.exe.obj
 0003:000073f0       _D53TypeInfo_PS3std5array16__T8AppenderTAaZ8Appender4Data6__initZ 000000014008c3f0     Framework.exe.obj
 0003:00007410       _D48TypeInfo_S3std5array17__T8AppenderTAyaZ8Appender6__initZ 000000014008c410     Framework.exe.obj
 0003:000074c0       _D3std5array17__T8AppenderTAyaZ8Appender6__initZ 000000014008c4c0     Framework.exe.obj
 0003:000074d0       _D53TypeInfo_S3std5array17__T8AppenderTAyaZ8Appender4Data6__initZ 000000014008c4d0     Framework.exe.obj
 0003:00007580       _D3std5array17__T8AppenderTAyaZ8Appender4Data6__initZ 000000014008c580     Framework.exe.obj
 0003:000075a0       _D54TypeInfo_PS3std5array17__T8AppenderTAyaZ8Appender4Data6__initZ 000000014008c5a0     Framework.exe.obj
 0003:000075c0       _D48TypeInfo_S3std5array17__T8AppenderTAxaZ8Appender6__initZ 000000014008c5c0     Framework.exe.obj
 0003:00007670       _D3std5array17__T8AppenderTAxaZ8Appender6__initZ 000000014008c670     Framework.exe.obj
 0003:00007680       _D53TypeInfo_S3std5array17__T8AppenderTAxaZ8Appender4Data6__initZ 000000014008c680     Framework.exe.obj
 0003:00007730       _D3std5array17__T8AppenderTAxaZ8Appender4Data6__initZ 000000014008c730     Framework.exe.obj
 0003:00007750       _D54TypeInfo_PS3std5array17__T8AppenderTAxaZ8Appender4Data6__initZ 000000014008c750     Framework.exe.obj
 0003:00007770       _D67TypeInfo_E6System6_Class16GenericUriParser23GenericUriParserOptions6__initZ 000000014008c770     Framework.exe.obj
 0003:000077c0       _D61TypeInfo_E6System5_Enum17ConsoleSpecialKey17ConsoleSpecialKey6__initZ 000000014008c7c0     Framework.exe.obj
 0003:00007810       _D65TypeInfo_C6System10_Interface16ICustomFormatter16ICustomFormatter6__initZ 000000014008c810     Framework.exe.obj
 0003:00007830       _D78TypeInfo_C6System10_Interface11IComparable20__T12IComparableTTiZ12IComparableT6__initZ 000000014008c830     Framework.exe.obj
 0003:00007850       _D6System10_Interface11IComparable20__T12IComparableTTiZ12IComparableT11__InterfaceZ 000000014008c850     Framework.exe.obj
 0003:00007910       _D73TypeInfo_C6System10_Interface10IEquatable18__T10IEquatableTiZ10IEquatable6__initZ 000000014008c910     Framework.exe.obj
 0003:00007930       _D6System10_Interface10IEquatable18__T10IEquatableTiZ10IEquatable11__InterfaceZ 000000014008c930     Framework.exe.obj
 0003:000079f0       _D51TypeInfo_S6System7_Struct11ArgIterator11ArgIterator6__initZ 000000014008c9f0     Framework.exe.obj
 0003:00007aa0       _D59TypeInfo_E6System5_Enum16StringComparison16StringComparison6__initZ 000000014008caa0     Framework.exe.obj
 0003:00007af0       _D59TypeInfo_E6System5_Enum16AttributeTargets16AttributeTargets6__initZ 000000014008caf0     Framework.exe.obj
 0003:00007b40       _D45TypeInfo_E6System5_Enum12UriEnumTypes7UriKind6__initZ 000000014008cb40     Framework.exe.obj
 0003:00007b90       _D52TypeInfo_E6System5_Enum12UriEnumTypes13UriComponents6__initZ 000000014008cb90     Framework.exe.obj
 0003:00007be0       _D47TypeInfo_E6System5_Enum12UriEnumTypes9UriFormat6__initZ 000000014008cbe0     Framework.exe.obj
 0003:00007c30       _D50TypeInfo_E6System5_Enum12UriEnumTypes11UriIdnScope6__initZ 000000014008cc30     Framework.exe.obj
 0003:00007c80       _D54TypeInfo_E6System5_Enum12UriEnumTypes15UriHostNameType6__initZ 000000014008cc80     Framework.exe.obj
 0003:00007cd0       _D49TypeInfo_E6System5_Enum12UriEnumTypes10UriPartial6__initZ 000000014008ccd0     Framework.exe.obj
 0003:00007d20       _D57TypeInfo_C6System10_Interface12IAsyncResult12IAsyncResult6__initZ 000000014008cd20     Framework.exe.obj
 0003:00007d40       _D43TypeInfo_S6System7_Struct8DateTime8DateTime6__initZ 000000014008cd40     Framework.exe.obj
 0003:00007df0       _D47TypeInfo_E6System5_Enum10ConsoleKey10ConsoleKey6__initZ 000000014008cdf0     Framework.exe.obj
 0003:00007e40       _D51TypeInfo_E6System5_Enum12DateTimeKind12DateTimeKind6__initZ 000000014008ce40     Framework.exe.obj
 0003:00007e90       _D45TypeInfo_E6System6_Class2GC16GCCollectionMode6__initZ 000000014008ce90     Framework.exe.obj
 0003:00007ee0       _D49TypeInfo_E6System6_Class2GC20GCNotificationStatus6__initZ 000000014008cee0     Framework.exe.obj
 0003:00007f30       _D59TypeInfo_E6System5_Enum16ConsoleModifiers16ConsoleModifiers6__initZ 000000014008cf30     Framework.exe.obj
 0003:00007f80       _D50TypeInfo_E6System6_Class6String17StrngSplitOptions6__initZ 000000014008cf80     Framework.exe.obj
 0003:00007fd0       _D43TypeInfo_E6System5_Enum9DayOfWeek9DayOfWeek6__initZ 000000014008cfd0     Framework.exe.obj
 0003:00008020       _D55TypeInfo_C6System10_Interface11IDisposable11IDisposable6__initZ 000000014008d020     Framework.exe.obj
 0003:00008040       _D55TypeInfo_C6System10_Interface11IComparable11IComparable6__initZ 000000014008d040     Framework.exe.obj
 0003:00008060       _D53TypeInfo_C6System10_Interface10ICloneable10ICloneable6__initZ 000000014008d060     Framework.exe.obj
 0003:00008080       _D47TypeInfo_E6System5_Enum10PlatformID10PlatformID6__initZ 000000014008d080     Framework.exe.obj
 0003:000080d0       _D63TypeInfo_C6System10_Interface15IAppDomainSetup15IAppDomainSetup6__initZ 000000014008d0d0     Framework.exe.obj
 0003:000080f0       _D57TypeInfo_C6System10_Interface12IFormattable12IFormattable6__initZ 000000014008d0f0     Framework.exe.obj
 0003:00008110       _D65TypeInfo_C6System10_Interface16IServiceProvider16IServiceProvider6__initZ 000000014008d110     Framework.exe.obj
 0003:00008130       _D71TypeInfo_S6System7_Struct21RuntimeArgumentHandle21RuntimeArgumentHandle6__initZ 000000014008d130     Framework.exe.obj
 0003:000081e0       _D51TypeInfo_E6System5_Enum12ConsoleColor12ConsoleColor6__initZ 000000014008d1e0     Framework.exe.obj
 0003:00008230       _D59TypeInfo_E6System5_Enum16MidpointRounding16MidpointRounding6__initZ 000000014008d230     Framework.exe.obj
 0003:00008280       _D57TypeInfo_C6System10_Interface12IConvertible12IConvertible6__initZ 000000014008d280     Framework.exe.obj
 0003:000082a0       _D63TypeInfo_C6System10_Interface15IFormatProvider15IFormatProvider6__initZ 000000014008d2a0     Framework.exe.obj
 0003:000082c0       _D57TypeInfo_E6System6_Class7Convert23Base64FormattingOptions6__initZ 000000014008d2c0     Framework.exe.obj
 0003:00008310       _D24TypeInfo_S6System6IntPtr6__initZ 000000014008d310     Framework.exe.obj
 0003:000083c0       _D33TypeInfo_S6System14TypedReference6__initZ 000000014008d3c0     Framework.exe.obj
 0003:00008470       _D35TypeInfo_S6System16StreamingContext6__initZ 000000014008d470     Framework.exe.obj
 0003:00008520       _D73TypeInfo_E6System6_Class27LoaderOptimizationAttribute18LoaderOptimization6__initZ 000000014008d520     Framework.exe.obj
 0003:00008570       _D41TypeInfo_E6System5_Enum8TypeCode8TypeCode6__initZ 000000014008d570     Framework.exe.obj
 0003:000085c0       _D9Exception6__initZ       000000014008d5c0     druntime64:object__1f_3af.obj
 0003:00008620       _D9Exception7__ClassZ      000000014008d620     druntime64:object__1f_3af.obj
 0003:000086c0       _D9Exception6__vtblZ       000000014008d6c0     druntime64:object__1f_3af.obj
 0003:00008720       _D13TypeInfo_Enum6__initZ  000000014008d720     druntime64:object__8_522.obj
 0003:00008770       _D13TypeInfo_Enum7__ClassZ 000000014008d770     druntime64:object__8_522.obj
 0003:00008810       _D13TypeInfo_Enum6__vtblZ  000000014008d810     druntime64:object__8_522.obj
 0003:00008900       _D10TypeInfo_k6__initZ     000000014008d900     druntime64:ti_uint_5cb_3f8.obj
 0003:00008920       _D10TypeInfo_k7__ClassZ    000000014008d920     druntime64:ti_uint_5cb_3f8.obj
 0003:000089c0       _D10TypeInfo_k6__vtblZ     000000014008d9c0     druntime64:ti_uint_5cb_3f8.obj
 0003:00008ab0       _D4core9exception11AssertError6__initZ 000000014008dab0     druntime64:exception_b9_47c.obj
 0003:00008b20       _D4core9exception11AssertError7__ClassZ 000000014008db20     druntime64:exception_b9_47c.obj
 0003:00008bc0       _D4core9exception11AssertError6__vtblZ 000000014008dbc0     druntime64:exception_b9_47c.obj
 0003:00008c90       _D6Object7Monitor11__InterfaceZ 000000014008dc90     druntime64:object__1_257.obj
 0003:00008d30       _D6Object6__initZ          000000014008dd30     druntime64:object__1_257.obj
 0003:00008d50       _D6Object7__ClassZ         000000014008dd50     druntime64:object__1_257.obj
 0003:00008df0       _D6Object6__vtblZ          000000014008ddf0     druntime64:object__1_257.obj
 0003:00008e40       _D25TypeInfo_C6Object7Monitor6__initZ 000000014008de40     druntime64:object__1_257.obj
 0003:00008ea0       _D6object9Throwable9TraceInfo11__InterfaceZ 000000014008dea0     druntime64:object__1b_3a8.obj
 0003:00009040       _D6object9Throwable6__initZ 000000014008e040     druntime64:object__1b_3a8.obj
 0003:000090a0       _D6object9Throwable7__ClassZ 000000014008e0a0     druntime64:object__1b_3a8.obj
 0003:00009140       _D6object9Throwable6__vtblZ 000000014008e140     druntime64:object__1b_3a8.obj
 0003:000091a0       _D37TypeInfo_C6object9Throwable9TraceInfo6__initZ 000000014008e1a0     druntime64:object__1b_3a8.obj
 0003:00009210       _D12TypeInfo_Aya6__initZ   000000014008e210     druntime64:ti_Ag_584_4a8.obj
 0003:00009240       _D12TypeInfo_Aya7__ClassZ  000000014008e240     druntime64:ti_Ag_584_4a8.obj
 0003:000092e0       _D12TypeInfo_Aya6__vtblZ   000000014008e2e0     druntime64:ti_Ag_584_4a8.obj
 0003:000093c0       _D4core9exception10RangeError6__initZ 000000014008e3c0     druntime64:exception_b8_3f7.obj
 0003:00009430       _D4core9exception10RangeError7__ClassZ 000000014008e430     druntime64:exception_b8_3f7.obj
 0003:000094d0       _D4core9exception10RangeError6__vtblZ 000000014008e4d0     druntime64:exception_b8_3f7.obj
 0003:00009530       _D18TypeInfo_Interface6__initZ 000000014008e530     druntime64:object__11_71e.obj
 0003:00009560       _D18TypeInfo_Interface7__ClassZ 000000014008e560     druntime64:object__11_71e.obj
 0003:00009600       _D18TypeInfo_Interface6__vtblZ 000000014008e600     druntime64:object__11_71e.obj
 0003:000096e0       _D10TypeInfo_v6__initZ     000000014008e6e0     druntime64:ti_void_5d1_403.obj
 0003:00009700       _D10TypeInfo_v7__ClassZ    000000014008e700     druntime64:ti_void_5d1_403.obj
 0003:000097a0       _D10TypeInfo_v6__vtblZ     000000014008e7a0     druntime64:ti_void_5d1_403.obj
 0003:00009880       _D11TypeInfo_Aa6__initZ    000000014008e880     druntime64:ti_Ag_583_42f.obj
 0003:000098b0       _D11TypeInfo_Aa7__ClassZ   000000014008e8b0     druntime64:ti_Ag_583_42f.obj
 0003:00009950       _D11TypeInfo_Aa6__vtblZ    000000014008e950     druntime64:ti_Ag_583_42f.obj
 0003:00009a10       _D15TypeInfo_Struct11StructFlags6__initZ 000000014008ea10     druntime64:object__12_612.obj
 0003:00009a20       _D15TypeInfo_Struct6__initZ 000000014008ea20     druntime64:object__12_612.obj
 0003:00009ac0       _D15TypeInfo_Struct7__ClassZ 000000014008eac0     druntime64:object__12_612.obj
 0003:00009b60       _D15TypeInfo_Struct6__vtblZ 000000014008eb60     druntime64:object__12_612.obj
 0003:00009c50       _D10TypeInfo_i6__initZ     000000014008ec50     druntime64:ti_int_5bb_3f6.obj
 0003:00009c70       _D10TypeInfo_i7__ClassZ    000000014008ec70     druntime64:ti_int_5bb_3f6.obj
 0003:00009d10       _D10TypeInfo_i6__vtblZ     000000014008ed10     druntime64:ti_int_5bb_3f6.obj
 0003:00009dd0       _D14TypeInfo_Class10ClassFlags6__initZ 000000014008edd0     druntime64:object__10_583.obj
 0003:00009de0       _D14TypeInfo_Class6__initZ 000000014008ede0     druntime64:object__10_583.obj
 0003:00009e90       _D14TypeInfo_Class7__ClassZ 000000014008ee90     druntime64:object__10_583.obj
 0003:00009f30       _D14TypeInfo_Class6__vtblZ 000000014008ef30     druntime64:object__10_583.obj
 0003:0000a030       _D10TypeInfo_g6__initZ     000000014008f030     druntime64:ti_byte_5a3_3f4.obj
 0003:0000a050       _D10TypeInfo_g7__ClassZ    000000014008f050     druntime64:ti_byte_5a3_3f4.obj
 0003:0000a0f0       _D10TypeInfo_g6__vtblZ     000000014008f0f0     druntime64:ti_byte_5a3_3f4.obj
 0003:0000a290       _D12TypeInfo_Axa6__initZ   000000014008f290     druntime64:ti_Ag_585_4a7.obj
 0003:0000a2c0       _D12TypeInfo_Axa7__ClassZ  000000014008f2c0     druntime64:ti_Ag_585_4a7.obj
 0003:0000a360       _D12TypeInfo_Axa6__vtblZ   000000014008f360     druntime64:ti_Ag_585_4a7.obj
 0003:0000a450       _D16TypeInfo_Pointer6__initZ 000000014008f450     druntime64:object__9_66e.obj
 0003:0000a480       _D16TypeInfo_Pointer7__ClassZ 000000014008f480     druntime64:object__9_66e.obj
 0003:0000a520       _D16TypeInfo_Pointer6__vtblZ 000000014008f520     druntime64:object__9_66e.obj
 0003:0000a5e0       _D16TypeInfo_Typedef6__initZ 000000014008f5e0     druntime64:object__7_65e.obj
 0003:0000a630       _D16TypeInfo_Typedef7__ClassZ 000000014008f630     druntime64:object__7_65e.obj
 0003:0000a6d0       _D16TypeInfo_Typedef6__vtblZ 000000014008f6d0     druntime64:object__7_65e.obj
 0003:0000a7e0       _D8TypeInfo6__initZ        000000014008f7e0     druntime64:object__6_32e.obj
 0003:0000a800       _D8TypeInfo7__ClassZ       000000014008f800     druntime64:object__6_32e.obj
 0003:0000a8a0       _D8TypeInfo6__vtblZ        000000014008f8a0     druntime64:object__6_32e.obj
 0003:0000a960       _D2rt8lifetime12__ModuleInfoZ 000000014008f960     druntime64:lifetime.obj
 0003:0000aa80       _D15TypeInfo_Shared6__initZ 000000014008fa80     druntime64:object__16_5e4.obj
 0003:0000aab0       _D15TypeInfo_Shared7__ClassZ 000000014008fab0     druntime64:object__16_5e4.obj
 0003:0000ab50       _D15TypeInfo_Shared6__vtblZ 000000014008fb50     druntime64:object__16_5e4.obj
 0003:0000ac10       _D6object5Error6__initZ    000000014008fc10     druntime64:object__20_20a.obj
 0003:0000ac70       _D6object5Error7__ClassZ   000000014008fc70     druntime64:object__20_20a.obj
 0003:0000ad10       _D6object5Error6__vtblZ    000000014008fd10     druntime64:object__20_20a.obj
 0003:0000ae80       _D11TypeInfo_Ag6__initZ    000000014008fe80     druntime64:ti_Ag_57f_435.obj
 0003:0000aeb0       _D11TypeInfo_Ag7__ClassZ   000000014008feb0     druntime64:ti_Ag_57f_435.obj
 0003:0000af50       _D11TypeInfo_Ag6__vtblZ    000000014008ff50     druntime64:ti_Ag_57f_435.obj
 0003:0000b030       _D14TypeInfo_Array6__initZ 0000000140090030     druntime64:object__a_58c.obj
 0003:0000b060       _D14TypeInfo_Array7__ClassZ 0000000140090060     druntime64:object__a_58c.obj
 0003:0000b100       _D14TypeInfo_Array6__vtblZ 0000000140090100     druntime64:object__a_58c.obj
 0003:0000b1e0       _D11TypeInfo_Ah6__initZ    00000001400901e0     druntime64:ti_Ag_580_436.obj
 0003:0000b210       _D11TypeInfo_Ah7__ClassZ   0000000140090210     druntime64:ti_Ag_580_436.obj
 0003:0000b2b0       _D11TypeInfo_Ah6__vtblZ    00000001400902b0     druntime64:ti_Ag_580_436.obj
 0003:0000b370       _D11TypeInfo_ya6__initZ    0000000140090370     druntime64:object__58b_88f.obj
 0003:0000b3b0       _D2rt8typeinfo7ti_char10TypeInfo_a4initMxFNaNbNeZAxv1cya 00000001400903b0     druntime64:ti_char_5ab_3ee.obj
 0003:0000b3c0       _D10TypeInfo_a6__initZ     00000001400903c0     druntime64:ti_char_5ab_3ee.obj
 0003:0000b3e0       _D10TypeInfo_a7__ClassZ    00000001400903e0     druntime64:ti_char_5ab_3ee.obj
 0003:0000b480       _D10TypeInfo_a6__vtblZ     0000000140090480     druntime64:ti_char_5ab_3ee.obj
 0003:0000b5a0       rt_trapExceptions          00000001400905a0     druntime64:dmain2.obj
 0003:0000b5b0       _D2rt6dmain212__ModuleInfoZ 00000001400905b0     druntime64:dmain2.obj
 0003:0000b5e0       _D4core4stdc5stdio12__ModuleInfoZ 00000001400905e0     druntime64:stdio.obj
 0003:0000b700       _D2rt15deh_win64_posix12__ModuleInfoZ 0000000140090700     druntime64:deh_win64_posix.obj
 0003:0000b740       _D11TypeInfo_xa6__initZ    0000000140090740     druntime64:object__58d_6f6.obj
 0003:0000b760       _D2rt5tlsgc12__ModuleInfoZ 0000000140090760     druntime64:tlsgc.obj
 0003:0000b790       _D6object12__ModuleInfoZ   0000000140090790     druntime64:object_.obj
 0003:0000b8a0       _D2rt8lifetime20ArrayAllocLengthLock6__initZ 00000001400908a0     druntime64:lifetime_49d_7d5.obj
 0003:0000b8e0       _D2rt8lifetime20ArrayAllocLengthLock7__ClassZ 00000001400908e0     druntime64:lifetime_49d_7d5.obj
 0003:0000b980       _D2rt8lifetime20ArrayAllocLengthLock6__vtblZ 0000000140090980     druntime64:lifetime_49d_7d5.obj
 0003:0000b9d0       _D2gc5proxy12__ModuleInfoZ 00000001400909d0     druntime64:proxy.obj
 0003:0000ba40       _D14TypeInfo_Const6__initZ 0000000140090a40     druntime64:object__14_594.obj
 0003:0000ba70       _D14TypeInfo_Const7__ClassZ 0000000140090a70     druntime64:object__14_594.obj
 0003:0000bb10       _D14TypeInfo_Const6__vtblZ 0000000140090b10     druntime64:object__14_594.obj
 0003:0000bc00       _D4core9exception16OutOfMemoryError6__initZ 0000000140090c00     druntime64:exception_bc_670.obj
 0003:0000bc70       _D4core9exception16OutOfMemoryError7__ClassZ 0000000140090c70     druntime64:exception_bc_670.obj
 0003:0000bd10       _D4core9exception16OutOfMemoryError6__vtblZ 0000000140090d10     druntime64:exception_bc_670.obj
 0003:0000bd70       _D4core9exception12__ModuleInfoZ 0000000140090d70     druntime64:exception.obj
 0003:0000be00       _D10TypeInfo_m6__initZ     0000000140090e00     druntime64:ti_ulong_5cd_3fa.obj
 0003:0000be20       _D10TypeInfo_m7__ClassZ    0000000140090e20     druntime64:ti_ulong_5cd_3fa.obj
 0003:0000bec0       _D10TypeInfo_m6__vtblZ     0000000140090ec0     druntime64:ti_ulong_5cd_3fa.obj
 0003:0000bfa0       _D10TypeInfo_h6__initZ     0000000140090fa0     druntime64:ti_ubyte_5c7_3f5.obj
 0003:0000bfc0       _D10TypeInfo_h7__ClassZ    0000000140090fc0     druntime64:ti_ubyte_5c7_3f5.obj
 0003:0000c060       _D10TypeInfo_h6__vtblZ     0000000140091060     druntime64:ti_ubyte_5c7_3f5.obj
 0003:0000c160       _D18TypeInfo_Invariant6__initZ 0000000140091160     druntime64:object__15_739.obj
 0003:0000c190       _D18TypeInfo_Invariant7__ClassZ 0000000140091190     druntime64:object__15_739.obj
 0003:0000c230       _D18TypeInfo_Invariant6__vtblZ 0000000140091230     druntime64:object__15_739.obj
 0003:0000c2f0       _D2rt14sections_win6412__ModuleInfoZ 00000001400912f0     druntime64:sections_win64.obj
 0003:0000c3c0       _D4core7runtime12__ModuleInfoZ 00000001400913c0     druntime64:runtime.obj
 0003:0000c420       _D17TypeInfo_Delegate6__initZ 0000000140091420     druntime64:object__f_6a8.obj
 0003:0000c460       _D17TypeInfo_Delegate7__ClassZ 0000000140091460     druntime64:object__f_6a8.obj
 0003:0000c500       _D17TypeInfo_Delegate6__vtblZ 0000000140091500     druntime64:object__f_6a8.obj
 0003:0000c5c0       _D6object19MemberInfo_function6__initZ 00000001400915c0     druntime64:object__1a_7a9.obj
 0003:0000c610       _D6object19MemberInfo_function7__ClassZ 0000000140091610     druntime64:object__1a_7a9.obj
 0003:0000c6b0       _D6object19MemberInfo_function6__vtblZ 00000001400916b0     druntime64:object__1a_7a9.obj
 0003:0000c720       _D6object16MemberInfo_field6__initZ 0000000140091720     druntime64:object__19_647.obj
 0003:0000c770       _D6object16MemberInfo_field7__ClassZ 0000000140091770     druntime64:object__19_647.obj
 0003:0000c810       _D6object16MemberInfo_field6__vtblZ 0000000140091810     druntime64:object__19_647.obj
 0003:0000c8a0       _D17TypeInfo_Function6__initZ 00000001400918a0     druntime64:object__e_6d3.obj
 0003:0000c8e0       _D17TypeInfo_Function7__ClassZ 00000001400918e0     druntime64:object__e_6d3.obj
 0003:0000c980       _D17TypeInfo_Function6__vtblZ 0000000140091980     druntime64:object__e_6d3.obj
 0003:0000ca40       _D6object10MemberInfo6__initZ 0000000140091a40     druntime64:object__18_3e4.obj
 0003:0000ca70       _D6object10MemberInfo7__ClassZ 0000000140091a70     druntime64:object__18_3e4.obj
 0003:0000cb10       _D6object10MemberInfo6__vtblZ 0000000140091b10     druntime64:object__18_3e4.obj
 0003:0000cbb0       _D15TypeInfo_Vector6__initZ 0000000140091bb0     druntime64:object__d_600.obj
 0003:0000cbe0       _D15TypeInfo_Vector7__ClassZ 0000000140091be0     druntime64:object__d_600.obj
 0003:0000cc80       _D15TypeInfo_Vector6__vtblZ 0000000140091c80     druntime64:object__d_600.obj
 0003:0000cd80       _D25TypeInfo_AssociativeArray6__initZ 0000000140091d80     druntime64:object__c_a07.obj
 0003:0000cdd0       _D25TypeInfo_AssociativeArray7__ClassZ 0000000140091dd0     druntime64:object__c_a07.obj
 0003:0000ce70       _D25TypeInfo_AssociativeArray6__vtblZ 0000000140091e70     druntime64:object__c_a07.obj
 0003:0000cf70       _D14TypeInfo_Inout6__initZ 0000000140091f70     druntime64:object__17_59c.obj
 0003:0000cfa0       _D14TypeInfo_Inout7__ClassZ 0000000140091fa0     druntime64:object__17_59c.obj
 0003:0000d040       _D14TypeInfo_Inout6__vtblZ 0000000140092040     druntime64:object__17_59c.obj
 0003:0000d140       _D20TypeInfo_StaticArray6__initZ 0000000140092140     druntime64:object__b_7f4.obj
 0003:0000d180       _D20TypeInfo_StaticArray7__ClassZ 0000000140092180     druntime64:object__b_7f4.obj
 0003:0000d220       _D20TypeInfo_StaticArray6__vtblZ 0000000140092220     druntime64:object__b_7f4.obj
 0003:0000d320       _D14TypeInfo_Tuple6__initZ 0000000140092320     druntime64:object__13_597.obj
 0003:0000d350       _D14TypeInfo_Tuple7__ClassZ 0000000140092350     druntime64:object__13_597.obj
 0003:0000d3f0       _D14TypeInfo_Tuple6__vtblZ 00000001400923f0     druntime64:object__13_597.obj
 0003:0000d4e0       _D4core9exception15HiddenFuncError6__initZ 00000001400924e0     druntime64:exception_bb_5e2.obj
 0003:0000d550       _D4core9exception15HiddenFuncError7__ClassZ 0000000140092550     druntime64:exception_bb_5e2.obj
 0003:0000d5f0       _D4core9exception15HiddenFuncError6__vtblZ 00000001400925f0     druntime64:exception_bb_5e2.obj
 0003:0000d680       _D4core9exception27InvalidMemoryOperationError6__initZ 0000000140092680     druntime64:exception_bd_afb.obj
 0003:0000d700       _D4core9exception27InvalidMemoryOperationError7__ClassZ 0000000140092700     druntime64:exception_bd_afb.obj
 0003:0000d7a0       _D4core9exception27InvalidMemoryOperationError6__vtblZ 00000001400927a0     druntime64:exception_bd_afb.obj
 0003:0000d880       _D4core9exception13FinalizeError6__initZ 0000000140092880     druntime64:exception_ba_53c.obj
 0003:0000d900       _D4core9exception13FinalizeError7__ClassZ 0000000140092900     druntime64:exception_ba_53c.obj
 0003:0000d9a0       _D4core9exception13FinalizeError6__vtblZ 00000001400929a0     druntime64:exception_ba_53c.obj
 0003:0000da00       _D4core9exception16UnicodeException6__initZ 0000000140092a00     druntime64:exception_bf_676.obj
 0003:0000da70       _D4core9exception16UnicodeException7__ClassZ 0000000140092a70     druntime64:exception_bf_676.obj
 0003:0000db10       _D4core9exception16UnicodeException6__vtblZ 0000000140092b10     druntime64:exception_bf_676.obj
 0003:0000dbb0       _D4core9exception11SwitchError6__initZ 0000000140092bb0     druntime64:exception_be_47c.obj
 0003:0000dc20       _D4core9exception11SwitchError7__ClassZ 0000000140092c20     druntime64:exception_be_47c.obj
 0003:0000dcc0       _D4core9exception11SwitchError6__vtblZ 0000000140092cc0     druntime64:exception_be_47c.obj
 0003:0000dd20       _D32TypeInfo_APxS6object10ModuleInfo6__initZ 0000000140092d20     druntime64:object__4f8_a2c.obj
 0003:0000dd40       _D13TypeInfo_AAxv6__initZ  0000000140092d40     druntime64:object__515_87a.obj
 0003:0000dd60       _D2rt8monitor_12__ModuleInfoZ 0000000140092d60     druntime64:monitor_.obj
 0003:0000dd90       _D2rt9critical_12__ModuleInfoZ 0000000140092d90     druntime64:critical_.obj
 0003:0000de90       _D4core6thread18TLS_OUT_OF_INDEXESxk 0000000140092e90     druntime64:thread.obj
 0003:0000de94       _D4core6thread16CREATE_SUSPENDEDxi 0000000140092e94     druntime64:thread.obj
 0003:0000dea0       _D4core6thread6Thread6__initZ 0000000140092ea0     druntime64:thread.obj
 0003:0000dfe0       _D4core6thread6Thread7__ClassZ 0000000140092fe0     druntime64:thread.obj
 0003:0000e080       _D4core6thread6Thread6__vtblZ 0000000140093080     druntime64:thread.obj
 0003:0000e0d0       _D4core6thread12__ModuleInfoZ 00000001400930d0     druntime64:thread.obj
 0003:0000e2d0       _D4core3sys7windows10stacktrace12__ModuleInfoZ 00000001400932d0     druntime64:stacktrace.obj
 0003:0000e7a0       _D2gc2gc2GC6__initZ        00000001400937a0     druntime64:gc_321_8a.obj
 0003:0000e7d0       _D2gc2gc2GC7__ClassZ       00000001400937d0     druntime64:gc_321_8a.obj
 0003:0000e870       _D2gc2gc2GC6__vtblZ        0000000140093870     druntime64:gc_321_8a.obj
 0003:0000e9e0       _D11TypeInfo_Av6__initZ    00000001400939e0     druntime64:ti_Ag_581_444.obj
 0003:0000ea10       _D11TypeInfo_Av7__ClassZ   0000000140093a10     druntime64:ti_Ag_581_444.obj
 0003:0000eab0       _D11TypeInfo_Av6__vtblZ    0000000140093ab0     druntime64:ti_Ag_581_444.obj
 0003:0000eb70       _D13TypeInfo_xAya6__initZ  0000000140093b70     druntime64:object__df_bbf.obj
 0003:0000eb90       _D31TypeInfo_PxS6object10ModuleInfo6__initZ 0000000140093b90     druntime64:object__4f9_974.obj
 0003:0000ebb0       _D12TypeInfo_Axv6__initZ   0000000140093bb0     druntime64:object__516_7c2.obj
 0003:0000ebf0       _D4core6thread15ThreadException6__initZ 0000000140093bf0     druntime64:thread_106_607.obj
 0003:0000ec60       _D4core6thread15ThreadException7__ClassZ 0000000140093c60     druntime64:thread_106_607.obj
 0003:0000ed00       _D4core6thread15ThreadException6__vtblZ 0000000140093d00     druntime64:thread_106_607.obj
 0003:0000edd0       _D4core6thread11ThreadGroup6__initZ 0000000140093dd0     druntime64:thread_148_465.obj
 0003:0000ee00       _D4core6thread11ThreadGroup7__ClassZ 0000000140093e00     druntime64:thread_148_465.obj
 0003:0000eea0       _D4core6thread11ThreadGroup6__vtblZ 0000000140093ea0     druntime64:thread_148_465.obj
 0003:0000eef0       _D4core3sys7windows9threadaux12__ModuleInfoZ 0000000140093ef0     druntime64:threadaux.obj
 0003:0000ef30       _D4core4time12__ModuleInfoZ 0000000140093f30     druntime64:time.obj
 0003:0000ef80       _D4core6thread14FiberException6__initZ 0000000140093f80     druntime64:thread_107_597.obj
 0003:0000eff0       _D4core6thread14FiberException7__ClassZ 0000000140093ff0     druntime64:thread_107_597.obj
 0003:0000f090       _D4core6thread14FiberException6__vtblZ 0000000140094090     druntime64:thread_107_597.obj
 0003:0000f210       _D4core6thread5Fiber6__initZ 0000000140094210     druntime64:thread_14b_1e8.obj
 0003:0000f280       _D4core6thread5Fiber7__ClassZ 0000000140094280     druntime64:thread_14b_1e8.obj
 0003:0000f320       _D4core6thread5Fiber6__vtblZ 0000000140094320     druntime64:thread_14b_1e8.obj
 0003:0000f480       _D4core3sys7windows10stacktrace10StackTrace13resolveNoSyncFAxmZAAa9BufSymbol6__initZ 0000000140094480     druntime64:stacktrace_248_3e5.obj
 0003:0000f8a0       _D4core3sys7windows10stacktrace10StackTrace6__initZ 00000001400948a0     druntime64:stacktrace_248_3e5.obj
 0003:0000f8f0       _D4core3sys7windows10stacktrace10StackTrace7__ClassZ 00000001400948f0     druntime64:stacktrace_248_3e5.obj
 0003:0000f9d0       _D4core3sys7windows10stacktrace10StackTrace6__vtblZ 00000001400949d0     druntime64:stacktrace_248_3e5.obj
 0003:0000fa70       _D4core3sys7windows10stacktrace18generateSearchPathFZAya15defaultPathListG3Aya 0000000140094a70     druntime64:stacktrace_24a_72e.obj
 0003:0000fae0       _D4core3sys7windows7dbghelp12__ModuleInfoZ 0000000140094ae0     druntime64:dbghelp.obj
 0003:0000fcd0       _D4core4sync5mutex5Mutex6__initZ 0000000140094cd0     druntime64:mutex_222_213.obj
 0003:0000fd30       _D4core4sync5mutex5Mutex7__ClassZ 0000000140094d30     druntime64:mutex_222_213.obj
 0003:0000fe00       _D4core4sync5mutex5Mutex6__vtblZ 0000000140094e00     druntime64:mutex_222_213.obj
 0003:0000fe70       _D2gc2gc3Gcx7findBinFmZh8binTablexG2049g 0000000140094e70     druntime64:gc_324_122.obj
 0003:00010680       _D2gc2gc9GCVERSIONxk       0000000140095680     druntime64:gc.obj
 0003:00010690       _D2gc2gc7binsizeyG11k      0000000140095690     druntime64:gc.obj
 0003:000106c0       _D2gc2gc10notbinsizeyG11m  00000001400956c0     druntime64:gc.obj
 0003:00010720       _D2gc2gc12__ModuleInfoZ    0000000140095720     druntime64:gc.obj
 0003:00010760       _D2gc2gc7GCMutex6__initZ   0000000140095760     druntime64:gc_320_29d.obj
 0003:000107c0       _D2gc2gc7GCMutex7__ClassZ  00000001400957c0     druntime64:gc_320_29d.obj
 0003:00010860       _D2gc2gc7GCMutex6__vtblZ   0000000140095860     druntime64:gc_320_29d.obj
 0003:000108d0       _D30TypeInfo_xS6object10ModuleInfo6__initZ 00000001400958d0     druntime64:object__4fa_94a.obj
 0003:000108f0       _D11TypeInfo_xv6__initZ    00000001400958f0     druntime64:object__63_70a.obj
 0003:00010a10       _D10TypeInfo_C6__initZ     0000000140095a10     druntime64:ti_C_5a5_3d0.obj
 0003:00010a30       _D10TypeInfo_C7__ClassZ    0000000140095a30     druntime64:ti_C_5a5_3d0.obj
 0003:00010ad0       _D10TypeInfo_C6__vtblZ     0000000140095ad0     druntime64:ti_C_5a5_3d0.obj
 0003:00010bb0       _D4core4time13TimeException6__initZ 0000000140095bb0     druntime64:time_16b_53e.obj
 0003:00010c10       _D4core4time13TimeException7__ClassZ 0000000140095c10     druntime64:time_16b_53e.obj
 0003:00010cb0       _D4core4time13TimeException6__vtblZ 0000000140095cb0     druntime64:time_16b_53e.obj
 0003:00010e20       _D38TypeInfo_PS4core6thread6Thread7Context6__initZ 0000000140095e20     druntime64:object__159_5ef.obj
 0003:00010e70       _D11TypeInfo_Am6__initZ    0000000140095e70     druntime64:ti_Along_596_43b.obj
 0003:00010ea0       _D11TypeInfo_Am7__ClassZ   0000000140095ea0     druntime64:ti_Along_596_43b.obj
 0003:00010f40       _D11TypeInfo_Am6__vtblZ    0000000140095f40     druntime64:ti_Along_596_43b.obj
 0003:00011000       _D12TypeInfo_AAa6__initZ   0000000140096000     druntime64:object__24d_5ee.obj
 0003:00011090       _D4core8demangle8Demangle6__initZ 0000000140096090     druntime64:demangle_ae_31d.obj
 0003:000110f0       _D4core8demangle8Demangle14ParseException6__initZ 00000001400960f0     druntime64:demangle_ae_31d.obj
 0003:00011160       _D4core8demangle8Demangle14ParseException7__ClassZ 0000000140096160     druntime64:demangle_ae_31d.obj
 0003:00011200       _D4core8demangle8Demangle14ParseException6__vtblZ 0000000140096200     druntime64:demangle_ae_31d.obj
 0003:00011260       _D4core8demangle8Demangle17OverflowException6__initZ 0000000140096260     druntime64:demangle_ae_31d.obj
 0003:000112e0       _D4core8demangle8Demangle17OverflowException7__ClassZ 00000001400962e0     druntime64:demangle_ae_31d.obj
 0003:00011380       _D4core8demangle8Demangle17OverflowException6__vtblZ 0000000140096380     druntime64:demangle_ae_31d.obj
 0003:00011610       _D4core8demangle8Demangle9parseTypeMFAaZAa10primitivesyG23Aa 0000000140096610     druntime64:demangle_ae_31d.obj
 0003:000122d0       _D29TypeInfo_S6object10ModuleInfo6__initZ 00000001400972d0     druntime64:object__5c_6d2.obj
 0003:00012410       _D23TypeInfo_PS2rt3aaA4Impl6__initZ 0000000140097410     druntime64:object__39a_49c.obj
 0003:00012450       _D37TypeInfo_S4core6thread6Thread7Context6__initZ 0000000140097450     druntime64:object__156_5c5.obj
 0003:00012500       _D11TypeInfo_Al6__initZ    0000000140097500     druntime64:ti_Along_595_43a.obj
 0003:00012530       _D11TypeInfo_Al7__ClassZ   0000000140097530     druntime64:ti_Along_595_43a.obj
 0003:000125d0       _D11TypeInfo_Al6__vtblZ    00000001400975d0     druntime64:ti_Along_595_43a.obj
 0003:00012b00       _D10TypeInfo_l6__initZ     0000000140097b00     druntime64:ti_long_5bf_3f9.obj
 0003:00012b20       _D10TypeInfo_l7__ClassZ    0000000140097b20     druntime64:ti_long_5bf_3f9.obj
 0003:00012bc0       _D10TypeInfo_l6__vtblZ     0000000140097bc0     druntime64:ti_long_5bf_3f9.obj
 0003:00012d10       _D2rt3aaA10prime_listyAm   0000000140097d10     druntime64:aaA.obj
 0003:00012d20       _D2rt3aaA12__ModuleInfoZ   0000000140097d20     druntime64:aaA.obj
 0003:00012d50       _D22TypeInfo_S2rt3aaA4Impl6__initZ 0000000140097d50     druntime64:object__397_472.obj
 0003:00013050       _D26TypeInfo_APxS2rt3aaA5Entry6__initZ 0000000140098050     druntime64:object__398_84c.obj
 0003:00013070       _D25TypeInfo_PxS2rt3aaA5Entry6__initZ 0000000140098070     druntime64:object__39c_794.obj
 0003:00013090       _D24TypeInfo_xS2rt3aaA5Entry6__initZ 0000000140098090     druntime64:object__39d_76a.obj
 0003:000130c0       _D23TypeInfo_S2rt3aaA5Entry6__initZ 00000001400980c0     druntime64:object__396_4f2.obj
 0003:00013150       _D3std5array12__ModuleInfoZ 0000000140098150     phobos64:array.obj
 0003:000131b0       _D3std6format15FormatException6__initZ 00000001400981b0     phobos64:format_106_618.obj
 0003:00013220       _D3std6format15FormatException7__ClassZ 0000000140098220     phobos64:format_106_618.obj
 0003:000132c0       _D3std6format15FormatException6__vtblZ 00000001400982c0     phobos64:format_106_618.obj
 0003:000132f0       _D3std6format6Mangle6__initZ 00000001400982f0     phobos64:format.obj
 0003:00013300       _D3std6format12__ModuleInfoZ 0000000140098300     phobos64:format.obj
 0003:000133c0       _D3std3utf12UTFException6__initZ 00000001400983c0     phobos64:utf_7d8_49e.obj
 0003:00013440       _D3std3utf12UTFException7__ClassZ 0000000140098440     phobos64:utf_7d8_49e.obj
 0003:000134e0       _D3std3utf12UTFException6__vtblZ 00000001400984e0     phobos64:utf_7d8_49e.obj
 0003:00013520       _D3std5range12__ModuleInfoZ 0000000140098520     phobos64:range.obj
 0003:00013540       _D3std3uni12__ModuleInfoZ  0000000140098540     phobos64:uni.obj
 0003:000136d0       _D3std3uni38__T13InversionListTS3std3uni8GcPolicyZ13InversionList6__initZ 00000001400986d0     phobos64:uni_928_8e5.obj
 0003:000136e0       _D3std3uni38__T13InversionListTS3std3uni8GcPolicyZ13InversionList11byCodepointMFNdZ14CodepointRange6__initZ 00000001400986e0     phobos64:uni_928_8e5.obj
 0003:00013710       _D3std3uni36__T11Uint24ArrayTS3std3uni8GcPolicyZ11Uint24Array6__initZ 0000000140098710     phobos64:uni_928_8e5.obj
 0003:00013720       _D3std4conv21ConvOverflowException6__initZ 0000000140098720     phobos64:conv_2967_899.obj
 0003:00013790       _D3std4conv21ConvOverflowException7__ClassZ 0000000140098790     phobos64:conv_2967_899.obj
 0003:00013830       _D3std4conv21ConvOverflowException6__vtblZ 0000000140098830     phobos64:conv_2967_899.obj
 0003:00013860       _D3std3uni42__T11Uint24ArrayTS3std3uni13ReallocPolicyZ11Uint24Array6__initZ 0000000140098860     phobos64:uni_925_9a9.obj
 0003:00013870       _D3std5stdio12__ModuleInfoZ 0000000140098870     phobos64:stdio.obj
 0003:000138b0       _D3std4conv13ConvException6__initZ 00000001400988b0     phobos64:conv_2965_545.obj
 0003:00013910       _D3std4conv13ConvException7__ClassZ 0000000140098910     phobos64:conv_2965_545.obj
 0003:000139b0       _D3std4conv13ConvException6__vtblZ 00000001400989b0     phobos64:conv_2965_545.obj
 0003:000139e0       _D3std3utf12__ModuleInfoZ  00000001400989e0     phobos64:utf.obj
 0003:00013a00       _D3std4conv12__ModuleInfoZ 0000000140098a00     phobos64:conv.obj
 0003:00013c80       _D3std3uni38__T13InversionListTS3std3uni8GcPolicyZ13InversionList75__T9IntervalsTS3std3uni36__T11Uint24ArrayTS3std3uni8GcPolicyZ11Uint24ArrayZ9Intervals6__initZ 0000000140098c80     phobos64:uni_bda_bbb.obj
 0003:00013cc0       _D11TypeInfo_Ak6__initZ    0000000140098cc0     phobos64:ti_Aint_590_439.obj
 0003:00013cf0       _D11TypeInfo_Ak7__ClassZ   0000000140098cf0     phobos64:ti_Aint_590_439.obj
 0003:00013d90       _D11TypeInfo_Ak6__vtblZ    0000000140098d90     phobos64:ti_Aint_590_439.obj
 0003:00013f60       _D3std3uni38__T13InversionListTS3std3uni8GcPolicyZ13InversionList127__T9IntervalsTS3std3uni83__T16SliceOverIndexedTS3std3uni36__T11Uint24ArrayTS3std3uni8GcPolicyZ11Uint24ArrayZ16SliceOverIndexedZ9Intervals6__initZ 0000000140098f60     phobos64:uni_b96_127a.obj
 0003:00014050       _D3std5range147__T11SortedRangeTS3std3uni83__T16SliceOverIndexedTS3std3uni36__T11Uint24ArrayTS3std3uni8GcPolicyZ11Uint24ArrayZ16SliceOverIndexedVAyaa5_61203c2062Z11SortedRange6__initZ 0000000140099050     phobos64:range_44e_14ef.obj
 0003:00014090       _D11TypeInfo_Ai6__initZ    0000000140099090     phobos64:ti_Aint_58f_437.obj
 0003:000140c0       _D11TypeInfo_Ai7__ClassZ   00000001400990c0     phobos64:ti_Aint_58f_437.obj
 0003:00014160       _D11TypeInfo_Ai6__vtblZ    0000000140099160     phobos64:ti_Aint_58f_437.obj
 0003:00014290       _D3std5range145__T11SortedRangeTS3std3uni83__T16SliceOverIndexedTS3std3uni36__T11Uint24ArrayTS3std3uni8GcPolicyZ11Uint24ArrayZ16SliceOverIndexedVAyaa4_613c3d62Z11SortedRange6__initZ 0000000140099290     phobos64:range_47c_14ec.obj
 0003:00014350       _D3std9stdiobase12__ModuleInfoZ 0000000140099350     phobos64:stdiobase.obj
 0003:000143d0       _D3std5stdio14StdioException6__initZ 00000001400993d0     phobos64:stdio_9_5b2.obj
 0003:00014440       _D3std5stdio14StdioException7__ClassZ 0000000140099440     phobos64:stdio_9_5b2.obj
 0003:000144e0       _D3std5stdio14StdioException6__vtblZ 00000001400994e0     phobos64:stdio_9_5b2.obj
 0003:000156f0       _D3std3uni13graphicalTrieFNaNbNdNfZyS3std3uni190__T4TrieTS3std3uni19__T9BitPackedTbVi1Z9BitPackedTwVm1114112TS3std3uni22__T9sliceBitsVm13Vm21Z9sliceBitsTS3std3uni21__T9sliceBitsVm8Vm13Z9sliceBitsTS3std3uni20__T9sliceBitsVm0Vm8Z9sliceBitsZ4Trie3resyS3std3uni190__T4TrieTS3std3uni19__T9BitPackedTbVi1Z9BitPackedTwVm1114112TS3std3uni22__T9sliceBitsVm13Vm21Z9sliceBitsTS3std3uni21__T9sliceBitsVm8Vm13Z9sliceBitsTS3std3uni20__T9sliceBitsVm0Vm8Z9sliceBitsZ4Trie 000000014009a6f0     phobos64:uni_912_53f.obj
 0003:00015730       _D12TypeInfo_xAa6__initZ   000000014009a730     phobos64:file_343_7ae.obj
 0003:000157a0       _D3std3uni84__T16SliceOverIndexedTxS3std3uni36__T11Uint24ArrayTS3std3uni8GcPolicyZ11Uint24ArrayZ16SliceOverIndexed6__initZ 000000014009a7a0     phobos64:uni_bdc_10c8.obj
 0003:00015ab0       _D3std3uni83__T16SliceOverIndexedTS3std3uni36__T11Uint24ArrayTS3std3uni8GcPolicyZ11Uint24ArrayZ16SliceOverIndexed6__initZ 000000014009aab0     phobos64:uni_b94_e50.obj
 0003:00015ad0       _D3std9algorithm6EditOp6__initZ 000000014009aad0     phobos64:algorithm.obj
 0003:00015ae0       _D3std9algorithm12__ModuleInfoZ 000000014009aae0     phobos64:algorithm.obj
 0003:00015b70       _D3std9algorithm292__T11TimSortImplS673std10functional39__T9binaryFunVAyaa9_612e61203c20622e61Z9binaryFunTS3std3uni38__T13InversionListTS3std3uni8GcPolicyZ13InversionList127__T9IntervalsTS3std3uni83__T16SliceOverIndexedTS3std3uni36__T11Uint24ArrayTS3std3uni8GcPolicyZ11Uint24ArrayZ16SliceOverIndexedZ9IntervalsZ5Slice6__initZ 000000014009ab70     phobos64:algorithm_27e6_1b4a.obj
 0003:00015bd0       _D3std5stdio21std_stdio_static_thisUZv9stdinImplS3std5stdio4File4Impl 000000014009abd0     phobos64:stdio_a_8cb.obj
 0003:00015be0       _D3std5stdio21std_stdio_static_thisUZv10stdoutImplS3std5stdio4File4Impl 000000014009abe0     phobos64:stdio_a_8cb.obj
 0003:00015bf0       _D3std5stdio21std_stdio_static_thisUZv10stderrImplS3std5stdio4File4Impl 000000014009abf0     phobos64:stdio_a_8cb.obj
 0003:00015c00       _D3std3uni69__T19PackedArrayViewImplTS3std3uni19__T9BitPackedTkVm8Z9BitPackedVm8Z19PackedArrayViewImpl6__initZ 000000014009ac00     phobos64:uni_9cc_d12.obj
 0003:00015c10       _D3std3uni63__T13PackedPtrImplTS3std3uni19__T9BitPackedTkVm8Z9BitPackedVm8Z13PackedPtrImpl6__initZ 000000014009ac10     phobos64:uni_9cc_d12.obj
 0003:00015c20       _D3std3uni71__T19PackedArrayViewImplTS3std3uni20__T9BitPackedTkVm13Z9BitPackedVm16Z19PackedArrayViewImpl6__initZ 000000014009ac20     phobos64:uni_adb_d3e.obj
 0003:00015c30       _D3std3uni65__T13PackedPtrImplTS3std3uni20__T9BitPackedTkVm13Z9BitPackedVm16Z13PackedPtrImpl6__initZ 000000014009ac30     phobos64:uni_adb_d3e.obj
 0003:00015c40       _D3std3uni69__T19PackedArrayViewImplTS3std3uni19__T9BitPackedTbVi1Z9BitPackedVm1Z19PackedArrayViewImpl6__initZ 000000014009ac40     phobos64:uni_a6b_c56.obj
 0003:00015c50       _D3std3uni63__T13PackedPtrImplTS3std3uni19__T9BitPackedTbVi1Z9BitPackedVm1Z13PackedPtrImpl6__initZ 000000014009ac50     phobos64:uni_a6b_c56.obj
 0003:00015c60       _D3std5range123__T5retroTS3std3uni83__T16SliceOverIndexedTS3std3uni36__T11Uint24ArrayTS3std3uni8GcPolicyZ11Uint24ArrayZ16SliceOverIndexedZ5retroFS3std3uni83__T16SliceOverIndexedTS3std3uni36__T11Uint24ArrayTS3std3uni8GcPolicyZ11Uint24ArrayZ16SliceOverIndexedZ11__T6ResultZ6Result6__initZ 000000014009ac60     phobos64:range_460_2f1.obj
 0003:00015e40       _D3std5range247__T11SortedRangeTS3std3uni38__T13InversionListTS3std3uni8GcPolicyZ13InversionList127__T9IntervalsTS3std3uni83__T16SliceOverIndexedTS3std3uni36__T11Uint24ArrayTS3std3uni8GcPolicyZ11Uint24ArrayZ16SliceOverIndexedZ9IntervalsVAyaa9_612e61203c20622e61Z11SortedRange6__initZ 000000014009ae40     phobos64:range_437_1a37.obj
 0003:00015e70       _D3std3uni124__T16SliceOverIndexedTS3std3uni69__T19PackedArrayViewImplTS3std3uni19__T9BitPackedTkVm8Z9BitPackedVm8Z19PackedArrayViewImplZ16SliceOverIndexed6__initZ 000000014009ae70     phobos64:uni_bee_1688.obj
 0003:00015e90       _D3std3uni126__T16SliceOverIndexedTS3std3uni71__T19PackedArrayViewImplTS3std3uni20__T9BitPackedTkVm13Z9BitPackedVm16Z19PackedArrayViewImplZ16SliceOverIndexed6__initZ 000000014009ae90     phobos64:uni_ae8_16e3.obj
 0003:00015eb0       _D3std3uni124__T16SliceOverIndexedTS3std3uni69__T19PackedArrayViewImplTS3std3uni19__T9BitPackedTbVi1Z9BitPackedVm1Z19PackedArrayViewImplZ16SliceOverIndexed6__initZ 000000014009aeb0     phobos64:uni_a73_15c5.obj
 0003:00015fe0       _D38TypeInfo_AS3std3uni17CodepointInterval6__initZ 000000014009afe0     phobos64:array_76d_a82.obj
 0003:000160b0       _D37TypeInfo_S3std3uni17CodepointInterval6__initZ 000000014009b0b0     phobos64:array_781_9ca.obj
 0003:00016140       _iob                       000000014009b140     LIBCMT:_file.obj
 0003:00016670       _fltused                   000000014009b670     LIBCMT:fpinit.obj
 0003:00016674       _ldused                    000000014009b674     LIBCMT:fpinit.obj
 0003:00016678       __isa_available            000000014009b678     LIBCMT:cpu_disp.obj
 0003:0001667c       __isa_enabled              000000014009b67c     LIBCMT:cpu_disp.obj
 0003:00016680       __nullstring               000000014009b680     LIBCMT:output.obj
 0003:00016688       __wnullstring              000000014009b688     LIBCMT:output.obj
 0003:00016690       __badioinfo                000000014009b690     LIBCMT:ioinit.obj
 0003:000166e8       __flsindex                 000000014009b6e8     LIBCMT:tidtable.obj
 0003:00016930       _sys_nerr                  000000014009b930     LIBCMT:syserr.obj
 0003:00016940       _cfltcvt_tab               000000014009b940     LIBCMT:cmiscdat.obj
 0003:00016990       _mbctype                   000000014009b990     LIBCMT:mbctype.obj
 0003:00016aa0       _mbcasemap                 000000014009baa0     LIBCMT:mbctype.obj
 0003:00016ba0       __initialmbcinfo           000000014009bba0     LIBCMT:mbctype.obj
 0003:00016ec0       __ptmbcinfo                000000014009bec0     LIBCMT:mbctype.obj
 0003:00016ed0       __mb_cur_max               000000014009bed0     LIBCMT:nlsdata.obj
 0003:00016ed4       __wclocalestr              000000014009bed4     LIBCMT:nlsdata.obj
 0003:00016ee0       __lc_time_c                000000014009bee0     LIBCMT:nlsdata.obj
 0003:000171a0       __ptlocinfo                000000014009c1a0     LIBCMT:nlsdata.obj
 0003:000171b0       __initiallocinfo           000000014009c1b0     LIBCMT:nlsdata.obj
 0003:00017308       __initiallocalestructinfo  000000014009c308     LIBCMT:nlsdata.obj
 0003:00017318       __globallocalestatus       000000014009c318     LIBCMT:glstatus.obj
 0003:00017320       _HUGE                      000000014009c320     LIBCMT:huge.obj
 0003:00017328       __security_cookie          000000014009c328     LIBCMT:gs_cookie.obj
 0003:00017330       __security_cookie_complement 000000014009c330     LIBCMT:gs_cookie.obj
 0003:00017370       __lconv_c                  000000014009c370     LIBCMT:lconv.obj
 0003:00017408       __lconv_static_decimal     000000014009c408     LIBCMT:lconv.obj
 0003:0001740c       __lconv_static_W_decimal   000000014009c40c     LIBCMT:lconv.obj
 0003:00017410       __lconv                    000000014009c410     LIBCMT:lconv.obj
 0003:00017420       _pctype                    000000014009c420     LIBCMT:ctype.obj
 0003:00017428       _pwctype                   000000014009c428     LIBCMT:ctype.obj
 0003:00017430       __abort_behavior           000000014009c430     LIBCMT:abort.obj
 0003:00017438       _confh                     000000014009c438     LIBCMT:initcon.obj
 0003:00017440       _pow10pos                  000000014009c440     LIBCMT:constpow.obj
 0003:000175a0       _pow10neg                  000000014009c5a0     LIBCMT:constpow.obj
 0003:0001a920       _D6System7_Struct11ArgIterator11ArgIterator6__initZ 000000014009f920     Framework.exe.obj
 0003:0001a948       _D6System7_Struct8DateTime8DateTime6__initZ 000000014009f948     Framework.exe.obj
 0003:0001a950       _D6System7_Struct21RuntimeArgumentHandle21RuntimeArgumentHandle6__initZ 000000014009f950     Framework.exe.obj
 0003:0001a958       _D6System6IntPtr6__initZ   000000014009f958     Framework.exe.obj
 0003:0001a960       _D6System6IntPtr4ZeroyS6System6IntPtr 000000014009f960     Framework.exe.obj
 0003:0001a968       _D6System14TypedReference6__initZ 000000014009f968     Framework.exe.obj
 0003:0001a969       _D6System16StreamingContext6__initZ 000000014009f969     Framework.exe.obj
 0003:0001a980       _D4core6memory2GC6__initZ  000000014009f980     druntime64:memory_e1_8a.obj
 0003:0001a990       _D2rt8lifetime14collectHandlerPFC6ObjectZb 000000014009f990     druntime64:lifetime.obj
 0003:0001a9a0       _D6object10ModuleInfo6__initZ 000000014009f9a0     druntime64:object__21_3f2.obj
 0003:0001a9b0       _D2rt6dmain27_d_argsAAya   000000014009f9b0     druntime64:dmain2.obj
 0003:0001a9c0       _D2rt6dmain210_initCountOm 000000014009f9c0     druntime64:dmain2.obj
 0003:0001a9d0       _D2rt6dmain26_cArgsS2rt6dmain25CArgs 000000014009f9d0     druntime64:dmain2.obj
 0003:0001a9e0       stdin                      000000014009f9e0     druntime64:stdio.obj
 0003:0001a9e8       stdout                     000000014009f9e8     druntime64:stdio.obj
 0003:0001a9f0       stderr                     000000014009f9f0     druntime64:stdio.obj
 0003:0001aa00       _D2rt6dmain214printThrowableFC6object9ThrowableZv5WSink6__initZ 000000014009fa00     druntime64:dmain2_493_5d5.obj
 0003:0001aa10       _D6object12traceHandlerPFPvZC6object9Throwable9TraceInfo 000000014009fa10     druntime64:object_.obj
 0003:0001aa20       _D2gc5proxy3_gcC2gc2gc2GC  000000014009fa20     druntime64:proxy.obj
 0003:0001aa30       _D2gc5proxy5pthisS2gc5proxy5Proxy 000000014009fa30     druntime64:proxy.obj
 0003:0001aad8       _D2gc5proxy5proxyPS2gc5proxy5Proxy 000000014009fad8     druntime64:proxy.obj
 0003:0001aae0       _D4core9exception14_assertHandlerPFNbAyamAyaZv 000000014009fae0     druntime64:exception.obj
 0003:0001aaf0       _D2rt14sections_win649_sectionsS2rt14sections_win6412SectionGroup 000000014009faf0     druntime64:sections_win64.obj
 0003:0001ab30       _D2rt14sections_win6412SectionGroup6__initZ 000000014009fb30     druntime64:sections_win64_50c_4e2.obj
 0003:0001ab70       _D4core7runtime7Runtime6__initZ 000000014009fb70     druntime64:runtime_e8_2e4.obj
 0003:0001ab78       _D4core7runtime7Runtime19sm_moduleUnitTesterPFZb 000000014009fb78     druntime64:runtime_e8_2e4.obj
 0003:0001ab80       _D2rt8monitor_6initedi     000000014009fb80     druntime64:monitor_.obj
 0003:0001ab90       _D2rt8monitor_16_monitor_critsecS4core3sys7windows7windows21_RTL_CRITICAL_SECTION 000000014009fb90     druntime64:monitor_.obj
 0003:0001abc0       _D2rt9critical_8dcs_listPS2rt9critical_18D_CRITICAL_SECTION 000000014009fbc0     druntime64:critical_.obj
 0003:0001abd0       _D2rt9critical_16critical_sectionS2rt9critical_18D_CRITICAL_SECTION 000000014009fbd0     druntime64:critical_.obj
 0003:0001ac00       _D2rt9critical_6initedi    000000014009fc00     druntime64:critical_.obj
 0003:0001ac10       _D2rt5minfo11ModuleGroup6__initZ 000000014009fc10     druntime64:minfo_4e4_473.obj
 0003:0001ac40       _D2rt5minfo11ModuleGroup9sortCtorsMFZv8StackRec6__initZ 000000014009fc40     druntime64:minfo_4e4_473.obj
 0003:0001ac60       _D4core6thread6Thread12PRIORITY_MINxi 000000014009fc60     druntime64:thread.obj
 0003:0001ac64       _D4core6thread6Thread12PRIORITY_MAXxi 000000014009fc64     druntime64:thread.obj
 0003:0001ac68       _D4core6thread6Thread16PRIORITY_DEFAULTxi 000000014009fc68     druntime64:thread.obj
 0003:0001ac70       _D4core6thread6Thread7sm_mainC4core6thread6Thread 000000014009fc70     druntime64:thread.obj
 0003:0001ac80       _D4core6thread6Thread6_locksG2G72g 000000014009fc80     druntime64:thread.obj
 0003:0001ad10       _D4core6thread6Thread7sm_cbegPS4core6thread6Thread7Context 000000014009fd10     druntime64:thread.obj
 0003:0001ad18       _D4core6thread6Thread7sm_clenm 000000014009fd18     druntime64:thread.obj
 0003:0001ad20       _D4core6thread6Thread7sm_tbegC4core6thread6Thread 000000014009fd20     druntime64:thread.obj
 0003:0001ad28       _D4core6thread6Thread7sm_tlenm 000000014009fd28     druntime64:thread.obj
 0003:0001ad30       _D4core6thread17multiThreadedFlagb 000000014009fd30     druntime64:thread.obj
 0003:0001ad34       _D4core6thread12suspendDepthk 000000014009fd34     druntime64:thread.obj
 0003:0001ad38       _D4core6thread8PAGESIZExm  000000014009fd38     druntime64:thread.obj
 0003:0001ad40       _D4core3sys7windows10stacktrace24RtlCaptureStackBackTracePWkkPPvPkZt 000000014009fd40     druntime64:stacktrace.obj
 0003:0001ad48       _D4core3sys7windows10stacktrace11initializedyb 000000014009fd48     druntime64:stacktrace.obj
 0003:0001ad50       _D2gc2gc2GC4linem          000000014009fd50     druntime64:gc_321_8a.obj
 0003:0001ad58       _D2gc2gc2GC4filePa         000000014009fd58     druntime64:gc_321_8a.obj
 0003:0001ad60       _D2gc2gc2GC6gcLockC2gc2gc7GCMutex 000000014009fd60     druntime64:gc_321_8a.obj
 0003:0001ad70       _D2gc2gc2GC12mutexStorageG72g 000000014009fd70     druntime64:gc_321_8a.obj
 0003:0001adc0       _D4core4time12TickDuration6__initZ 000000014009fdc0     druntime64:time.obj
 0003:0001adc8       _D4core4time12TickDuration11ticksPerSecyl 000000014009fdc8     druntime64:time.obj
 0003:0001add0       _D4core4time12TickDuration9appOriginyS4core4time12TickDuration 000000014009fdd0     druntime64:time.obj
 0003:0001ade0       _D4core3sys7windows7dbghelp7DbgHelp6__initZ 000000014009fde0     druntime64:dbghelp.obj
 0003:0001ae60       _D4core3sys7windows7dbghelp7DbgHelp7sm_instS4core3sys7windows7dbghelp7DbgHelp 000000014009fe60     druntime64:dbghelp.obj
 0003:0001aee0       _D4core3sys7windows7dbghelp7DbgHelp7sm_hndlPv 000000014009fee0     druntime64:dbghelp.obj
 0003:0001aef0       _D4core4sync5mutex5Mutex12MonitorProxy6__initZ 000000014009fef0     druntime64:mutex_222_213.obj
 0003:0001af00       _D2gc2gc3Gcx6__initZ       000000014009ff00     druntime64:gc_324_122.obj
 0003:0001aff0       _D2gc2gc14SENTINEL_EXTRAxk 000000014009fff0     druntime64:gc.obj
 0003:0001b000       _D2gc2gc4Pool6__initZ      00000001400a0000     druntime64:gc_325_19a.obj
 0003:0001b0f0       _D4core4time8Duration6__initZ 00000001400a00f0     druntime64:time_15c_346.obj
 0003:0001b100       _D4core4time7FracSec6__initZ 00000001400a0100     druntime64:time_16a_297.obj
 0003:0001b110       _D2rt3aaA4Impl6__initZ     00000001400a0110     druntime64:aaA_379_192.obj
 0003:0001b150       _D3std5stdio5stdinS3std5stdio4File 00000001400a0150     phobos64:stdio.obj
 0003:0001b170       _D3std5stdio6stdoutS3std5stdio4File 00000001400a0170     phobos64:stdio.obj
 0003:0001b190       _D3std5stdio6stderrS3std5stdio4File 00000001400a0190     phobos64:stdio.obj
 0003:0001b1b0       _D3std3uni17CodepointInterval6__initZ 00000001400a01b0     phobos64:uni_8bd_6ea.obj
 0003:0001b1c0       _aenvptr                   00000001400a01c0     LIBCMT:crt0.obj
 0003:0001b1c8       _wenvptr                   00000001400a01c8     LIBCMT:crt0.obj
 0003:0001b1d0       _tls_index                 00000001400a01d0     LIBCMT:tlssup.obj
 0003:0001b1d4       _outputformat              00000001400a01d4     LIBCMT:outputformat.obj
 0003:0001b1d8       _cflush                    00000001400a01d8     LIBCMT:_file.obj
 0003:0001b1f8       __fastflag                 00000001400a01f8     LIBCMT:fpinit.obj
 0003:0001b1fc       __favor                    00000001400a01fc     LIBCMT:cpu_disp.obj
 0003:0001b200       __pInvalidArgHandler       00000001400a0200     LIBCMT:invarg.obj
 0003:0001b208       _stdbuf                    00000001400a0208     LIBCMT:_sftbuf.obj
 0003:0001b220       __pioinfo                  00000001400a0220     LIBCMT:ioinit.obj
 0003:0001b420       _crtheap                   00000001400a0420     LIBCMT:heapinit.obj
 0003:0001b428       _C_Exit_Done               00000001400a0428     LIBCMT:crt0dat.obj
 0003:0001b42c       __argc                     00000001400a042c     LIBCMT:crt0dat.obj
 0003:0001b430       __argv                     00000001400a0430     LIBCMT:crt0dat.obj
 0003:0001b438       __wargv                    00000001400a0438     LIBCMT:crt0dat.obj
 0003:0001b440       _environ                   00000001400a0440     LIBCMT:crt0dat.obj
 0003:0001b448       _wenviron                  00000001400a0448     LIBCMT:crt0dat.obj
 0003:0001b450       _pgmptr                    00000001400a0450     LIBCMT:crt0dat.obj
 0003:0001b458       _wpgmptr                   00000001400a0458     LIBCMT:crt0dat.obj
 0003:0001b460       _umaskval                  00000001400a0460     LIBCMT:crt0dat.obj
 0003:0001b464       _exitflag                  00000001400a0464     LIBCMT:crt0dat.obj
 0003:0001b468       _C_Termination_Done        00000001400a0468     LIBCMT:crt0dat.obj
 0003:0001b470       __winitenv                 00000001400a0470     LIBCMT:crt0dat.obj
 0003:0001b478       __initenv                  00000001400a0478     LIBCMT:crt0dat.obj
 0003:0001b590       __app_type                 00000001400a0590     LIBCMT:crt0msg.obj
 0003:0001bbc8       __error_mode               00000001400a0bc8     LIBCMT:errmode.obj
 0003:0001bbd0       ?_pnhHeap@@3P6AH_K@ZEA     00000001400a0bd0     LIBCMT:handler.obj
 0003:0001bbd8       _newmode                   00000001400a0bd8     LIBCMT:_newmode.obj
 0003:0001be10       _maxwait                   00000001400a0e10     LIBCMT:crtheap.obj
 0003:0001be18       __mbcodepage               00000001400a0e18     LIBCMT:mbctype.obj
 0003:0001be1c       __ismbcodepage             00000001400a0e1c     LIBCMT:mbctype.obj
 0003:0001be20       __mbulinfo                 00000001400a0e20     LIBCMT:mbctype.obj
 0003:0001be30       __mblocalename             00000001400a0e30     LIBCMT:mbctype.obj
 0003:0001be48       ?__pInconsistency@@3P6AXXZEA 00000001400a0e48     LIBCMT:hooks.obj
 0003:0001be50       __pPurecall                00000001400a0e50     LIBCMT:inithelp.obj
 0003:0001beb0       __lconv_static_null        00000001400a0eb0     LIBCMT:lconv.obj
 0003:0001beb4       __lconv_static_W_null      00000001400a0eb4     LIBCMT:lconv.obj
 0003:0001beb8       __locale_changed           00000001400a0eb8     LIBCMT:wsetloca.obj
 0003:0001c440       __unguarded_readlc_active  00000001400a1440     <common>
 0003:0001c450       __setlc_active             00000001400a1450     <common>
 0003:0001c454       _debugger_hook_dummy       00000001400a1454     <common>
 0003:0001c460       encodedKERNEL32Functions   00000001400a1460     <common>
 0003:0001c5a8       __dyn_tls_init_callback    00000001400a15a8     <common>
 0003:0001c5c0       __onexitend                00000001400a15c0     <common>
 0003:0001c5c8       __onexitbegin              00000001400a15c8     <common>
 0003:0001c5d0       __mbctype_initialized      00000001400a15d0     <common>
 0003:0001c5d4       __env_initialized          00000001400a15d4     <common>
 0003:0001c5d8       _nhandle                   00000001400a15d8     <common>
 0003:0001c5e8       _pDestructExceptionObject  00000001400a15e8     <common>
 0003:0001c600       __piob                     00000001400a1600     <common>
 0003:0001c948       _nstream                   00000001400a1948     <common>
 0003:0001c960       _bufin                     00000001400a1960     <common>
 0003:0001d960       _acmdln                    00000001400a2960     <common>
 0005:00000000       __imp_GetProcessHeap       00000001400ab000     kernel32:KERNEL32.dll
 0005:00000008       __imp_CreateFileW          00000001400ab008     kernel32:KERNEL32.dll
 0005:00000010       __imp_LocalFree            00000001400ab010     kernel32:KERNEL32.dll
 0005:00000018       __imp_IsDebuggerPresent    00000001400ab018     kernel32:KERNEL32.dll
 0005:00000020       __imp_WideCharToMultiByte  00000001400ab020     kernel32:KERNEL32.dll
 0005:00000028       __imp_GetCommandLineW      00000001400ab028     kernel32:KERNEL32.dll
 0005:00000030       __imp_FreeLibrary          00000001400ab030     kernel32:KERNEL32.dll
 0005:00000038       __imp_MultiByteToWideChar  00000001400ab038     kernel32:KERNEL32.dll
 0005:00000040       __imp_LoadLibraryW         00000001400ab040     kernel32:KERNEL32.dll
 0005:00000048       __imp_GetConsoleWindow     00000001400ab048     kernel32:KERNEL32.dll
 0005:00000050       __imp_GetProcAddress       00000001400ab050     kernel32:KERNEL32.dll
 0005:00000058       __imp_DeleteCriticalSection 00000001400ab058     kernel32:KERNEL32.dll
 0005:00000060       __imp_InitializeCriticalSection 00000001400ab060     kernel32:KERNEL32.dll
 0005:00000068       __imp_EnterCriticalSection 00000001400ab068     kernel32:KERNEL32.dll
 0005:00000070       __imp_LeaveCriticalSection 00000001400ab070     kernel32:KERNEL32.dll
 0005:00000078       __imp_GetSystemInfo        00000001400ab078     kernel32:KERNEL32.dll
 0005:00000080       __imp_GetExitCodeThread    00000001400ab080     kernel32:KERNEL32.dll
 0005:00000088       __imp_WaitForSingleObject  00000001400ab088     kernel32:KERNEL32.dll
 0005:00000090       __imp_CloseHandle          00000001400ab090     kernel32:KERNEL32.dll
 0005:00000098       __imp_GetCurrentProcess    00000001400ab098     kernel32:KERNEL32.dll
 0005:000000a0       __imp_LoadLibraryA         00000001400ab0a0     kernel32:KERNEL32.dll
 0005:000000a8       __imp_QueryPerformanceFrequency 00000001400ab0a8     kernel32:KERNEL32.dll
 0005:000000b0       __imp_VirtualFree          00000001400ab0b0     kernel32:KERNEL32.dll
 0005:000000b8       __imp_VirtualAlloc         00000001400ab0b8     kernel32:KERNEL32.dll
 0005:000000c0       __imp_GetCurrentThread     00000001400ab0c0     kernel32:KERNEL32.dll
 0005:000000c8       __imp_RtlCaptureContext    00000001400ab0c8     kernel32:KERNEL32.dll
 0005:000000d0       __imp_GetEnvironmentVariableA 00000001400ab0d0     kernel32:KERNEL32.dll
 0005:000000d8       __imp_DuplicateHandle      00000001400ab0d8     kernel32:KERNEL32.dll
 0005:000000e0       __imp_GetCurrentThreadId   00000001400ab0e0     kernel32:KERNEL32.dll
 0005:000000e8       __imp_TryEnterCriticalSection 00000001400ab0e8     kernel32:KERNEL32.dll
 0005:000000f0       __imp_ResumeThread         00000001400ab0f0     kernel32:KERNEL32.dll
 0005:000000f8       __imp_QueryPerformanceCounter 00000001400ab0f8     kernel32:KERNEL32.dll
 0005:00000100       __imp_SwitchToThread       00000001400ab100     kernel32:KERNEL32.dll
 0005:00000108       __imp_GetThreadContext     00000001400ab108     kernel32:KERNEL32.dll
 0005:00000110       __imp_SuspendThread        00000001400ab110     kernel32:KERNEL32.dll
 0005:00000118       __imp_Sleep                00000001400ab118     kernel32:KERNEL32.dll
 0005:00000120       __imp_GetLastError         00000001400ab120     kernel32:KERNEL32.dll
 0005:00000128       __imp_HeapFree             00000001400ab128     kernel32:KERNEL32.dll
 0005:00000130       __imp_GetCommandLineA      00000001400ab130     kernel32:KERNEL32.dll
 0005:00000138       __imp_HeapAlloc            00000001400ab138     kernel32:KERNEL32.dll
 0005:00000140       __imp_HeapReAlloc          00000001400ab140     kernel32:KERNEL32.dll
 0005:00000148       __imp_EncodePointer        00000001400ab148     kernel32:KERNEL32.dll
 0005:00000150       __imp_DecodePointer        00000001400ab150     kernel32:KERNEL32.dll
 0005:00000158       __imp_CreateThread         00000001400ab158     kernel32:KERNEL32.dll
 0005:00000160       __imp_ExitThread           00000001400ab160     kernel32:KERNEL32.dll
 0005:00000168       __imp_LoadLibraryExW       00000001400ab168     kernel32:KERNEL32.dll
 0005:00000170       __imp_IsProcessorFeaturePresent 00000001400ab170     kernel32:KERNEL32.dll
 0005:00000178       __imp_RtlUnwindEx          00000001400ab178     kernel32:KERNEL32.dll
 0005:00000180       __imp_GetStdHandle         00000001400ab180     kernel32:KERNEL32.dll
 0005:00000188       __imp_GetFileType          00000001400ab188     kernel32:KERNEL32.dll
 0005:00000190       __imp_GetStartupInfoW      00000001400ab190     kernel32:KERNEL32.dll
 0005:00000198       __imp_SetLastError         00000001400ab198     kernel32:KERNEL32.dll
 0005:000001a0       __imp_ExitProcess          00000001400ab1a0     kernel32:KERNEL32.dll
 0005:000001a8       __imp_GetModuleHandleExW   00000001400ab1a8     kernel32:KERNEL32.dll
 0005:000001b0       __imp_AreFileApisANSI      00000001400ab1b0     kernel32:KERNEL32.dll
 0005:000001b8       __imp_GetModuleFileNameA   00000001400ab1b8     kernel32:KERNEL32.dll
 0005:000001c0       __imp_WriteFile            00000001400ab1c0     kernel32:KERNEL32.dll
 0005:000001c8       __imp_GetModuleFileNameW   00000001400ab1c8     kernel32:KERNEL32.dll
 0005:000001d0       __imp_GetCurrentProcessId  00000001400ab1d0     kernel32:KERNEL32.dll
 0005:000001d8       __imp_GetSystemTimeAsFileTime 00000001400ab1d8     kernel32:KERNEL32.dll
 0005:000001e0       __imp_GetEnvironmentStringsW 00000001400ab1e0     kernel32:KERNEL32.dll
 0005:000001e8       __imp_FreeEnvironmentStringsW 00000001400ab1e8     kernel32:KERNEL32.dll
 0005:000001f0       __imp_FatalAppExitA        00000001400ab1f0     kernel32:KERNEL32.dll
 0005:000001f8       __imp_FlushFileBuffers     00000001400ab1f8     kernel32:KERNEL32.dll
 0005:00000200       __imp_GetConsoleCP         00000001400ab200     kernel32:KERNEL32.dll
 0005:00000208       __imp_GetConsoleMode       00000001400ab208     kernel32:KERNEL32.dll
 0005:00000210       __imp_RtlLookupFunctionEntry 00000001400ab210     kernel32:KERNEL32.dll
 0005:00000218       __imp_RtlVirtualUnwind     00000001400ab218     kernel32:KERNEL32.dll
 0005:00000220       __imp_UnhandledExceptionFilter 00000001400ab220     kernel32:KERNEL32.dll
 0005:00000228       __imp_SetUnhandledExceptionFilter 00000001400ab228     kernel32:KERNEL32.dll
 0005:00000230       __imp_InitializeCriticalSectionAndSpinCount 00000001400ab230     kernel32:KERNEL32.dll
 0005:00000238       __imp_CreateEventW         00000001400ab238     kernel32:KERNEL32.dll
 0005:00000240       __imp_TerminateProcess     00000001400ab240     kernel32:KERNEL32.dll
 0005:00000248       __imp_TlsAlloc             00000001400ab248     kernel32:KERNEL32.dll
 0005:00000250       __imp_TlsGetValue          00000001400ab250     kernel32:KERNEL32.dll
 0005:00000258       __imp_TlsSetValue          00000001400ab258     kernel32:KERNEL32.dll
 0005:00000260       __imp_TlsFree              00000001400ab260     kernel32:KERNEL32.dll
 0005:00000268       __imp_GetTickCount         00000001400ab268     kernel32:KERNEL32.dll
 0005:00000270       __imp_GetModuleHandleW     00000001400ab270     kernel32:KERNEL32.dll
 0005:00000278       __imp_CreateSemaphoreW     00000001400ab278     kernel32:KERNEL32.dll
 0005:00000280       __imp_IsValidCodePage      00000001400ab280     kernel32:KERNEL32.dll
 0005:00000288       __imp_GetACP               00000001400ab288     kernel32:KERNEL32.dll
 0005:00000290       __imp_GetOEMCP             00000001400ab290     kernel32:KERNEL32.dll
 0005:00000298       __imp_GetCPInfo            00000001400ab298     kernel32:KERNEL32.dll
 0005:000002a0       __imp_SetConsoleCtrlHandler 00000001400ab2a0     kernel32:KERNEL32.dll
 0005:000002a8       __imp_OutputDebugStringW   00000001400ab2a8     kernel32:KERNEL32.dll
 0005:000002b0       __imp_SetStdHandle         00000001400ab2b0     kernel32:KERNEL32.dll
 0005:000002b8       __imp_SetFilePointerEx     00000001400ab2b8     kernel32:KERNEL32.dll
 0005:000002c0       __imp_WriteConsoleW        00000001400ab2c0     kernel32:KERNEL32.dll
 0005:000002c8       __imp_GetStringTypeW       00000001400ab2c8     kernel32:KERNEL32.dll
 0005:000002d0       __imp_HeapSize             00000001400ab2d0     kernel32:KERNEL32.dll
 0005:000002d8       __imp_GetDateFormatW       00000001400ab2d8     kernel32:KERNEL32.dll
 0005:000002e0       __imp_GetTimeFormatW       00000001400ab2e0     kernel32:KERNEL32.dll
 0005:000002e8       __imp_CompareStringW       00000001400ab2e8     kernel32:KERNEL32.dll
 0005:000002f0       __imp_LCMapStringW         00000001400ab2f0     kernel32:KERNEL32.dll
 0005:000002f8       __imp_GetLocaleInfoW       00000001400ab2f8     kernel32:KERNEL32.dll
 0005:00000300       __imp_IsValidLocale        00000001400ab300     kernel32:KERNEL32.dll
 0005:00000308       __imp_GetUserDefaultLCID   00000001400ab308     kernel32:KERNEL32.dll
 0005:00000310       __imp_EnumSystemLocalesW   00000001400ab310     kernel32:KERNEL32.dll
 0005:00000318       \177KERNEL32_NULL_THUNK_DATA 00000001400ab318     kernel32:KERNEL32.dll
 0005:00000408       __imp_CommandLineToArgvW   00000001400ab408     shell32:SHELL32.dll
 0005:00000410       \177SHELL32_NULL_THUNK_DATA 00000001400ab410     shell32:SHELL32.dll
 0005:00000468       __IMPORT_DESCRIPTOR_SHELL32 00000001400ab468     shell32:SHELL32.dll
 0005:0000047c       __IMPORT_DESCRIPTOR_KERNEL32 00000001400ab47c     kernel32:KERNEL32.dll
 0005:00000490       __NULL_IMPORT_DESCRIPTOR   00000001400ab490     shell32:SHELL32.dll
 0006:00000000       _deh_beg                   00000001400ad000     Framework.exe.obj
 0006:000009b0       _deh_end                   00000001400ad9b0     Framework.exe.obj
 0007:00000000       _minfo_beg                 00000001400ae000     Framework.exe.obj
 0007:000004f8       _minfo_end                 00000001400ae4f8     Framework.exe.obj
 0008:00000000       _tls_start                 00000001400af000     LIBCMT:tlssup.obj
 0008:00000110       _D2rt8lifetime18__blkcache_storagePS2rt8lifetime7BlkInfo 00000001400af110     druntime64:lifetime.obj
 0008:00000118       _D2rt8lifetime12__nextBlkIdxi 00000001400af118     druntime64:lifetime.obj
 0008:00000120       _D2rt15deh_win64_posix10__inflightPS2rt15deh_win64_posix8InFlight 00000001400af120     druntime64:deh_win64_posix.obj
 0008:00000130       gc_atomic                  00000001400af130     druntime64:thread.obj
 0008:00000138       _D4core6thread6Thread7sm_thisC4core6thread6Thread 00000001400af138     druntime64:thread.obj
 0008:00000140       _D4core6thread5Fiber7sm_thisC4core6thread5Fiber 00000001400af140     druntime64:thread_14b_1e8.obj
 0008:00000253       _tls_end                   00000001400af253     LIBCMT:tlssup.obj

 entry point at        0001:00052380

